
rover.elf:     file format elf32-littlearm


Disassembly of section .text:

00000000 <__Vectors>:
       0:	20004000 	.word	0x20004000
       4:	000031c9 	.word	0x000031c9
       8:	00003211 	.word	0x00003211
       c:	00003213 	.word	0x00003213
	...
      2c:	00003215 	.word	0x00003215
	...
      38:	00003217 	.word	0x00003217
      3c:	00003219 	.word	0x00003219
      40:	0000321b 	.word	0x0000321b
      44:	0000321b 	.word	0x0000321b
      48:	0000321b 	.word	0x0000321b
      4c:	0000321b 	.word	0x0000321b
      50:	0000321b 	.word	0x0000321b
      54:	00000000 	.word	0x00000000
      58:	0000321b 	.word	0x0000321b
      5c:	0000321b 	.word	0x0000321b
      60:	0000321b 	.word	0x0000321b
      64:	0000321b 	.word	0x0000321b
      68:	00000e6d 	.word	0x00000e6d
      6c:	0000321b 	.word	0x0000321b
      70:	0000321b 	.word	0x0000321b
      74:	0000321b 	.word	0x0000321b
      78:	0000321b 	.word	0x0000321b
      7c:	0000321b 	.word	0x0000321b
      80:	0000321b 	.word	0x0000321b
      84:	0000321b 	.word	0x0000321b
      88:	0000321b 	.word	0x0000321b
      8c:	0000321b 	.word	0x0000321b
      90:	0000321b 	.word	0x0000321b
      94:	0000321b 	.word	0x0000321b
      98:	0000321b 	.word	0x0000321b
      9c:	0000321b 	.word	0x0000321b
      a0:	0000321b 	.word	0x0000321b
      a4:	0000321b 	.word	0x0000321b
	...

000000c0 <__do_global_dtors_aux>:
      c0:	b510      	push	{r4, lr}
      c2:	4c06      	ldr	r4, [pc, #24]	; (dc <__do_global_dtors_aux+0x1c>)
      c4:	7823      	ldrb	r3, [r4, #0]
      c6:	2b00      	cmp	r3, #0
      c8:	d107      	bne.n	da <__do_global_dtors_aux+0x1a>
      ca:	4b05      	ldr	r3, [pc, #20]	; (e0 <__do_global_dtors_aux+0x20>)
      cc:	2b00      	cmp	r3, #0
      ce:	d002      	beq.n	d6 <__do_global_dtors_aux+0x16>
      d0:	4804      	ldr	r0, [pc, #16]	; (e4 <__do_global_dtors_aux+0x24>)
      d2:	e000      	b.n	d6 <__do_global_dtors_aux+0x16>
      d4:	bf00      	nop
      d6:	2301      	movs	r3, #1
      d8:	7023      	strb	r3, [r4, #0]
      da:	bd10      	pop	{r4, pc}
      dc:	2000007c 	.word	0x2000007c
      e0:	00000000 	.word	0x00000000
      e4:	00006084 	.word	0x00006084

000000e8 <frame_dummy>:
      e8:	4b04      	ldr	r3, [pc, #16]	; (fc <frame_dummy+0x14>)
      ea:	b510      	push	{r4, lr}
      ec:	2b00      	cmp	r3, #0
      ee:	d003      	beq.n	f8 <frame_dummy+0x10>
      f0:	4903      	ldr	r1, [pc, #12]	; (100 <frame_dummy+0x18>)
      f2:	4804      	ldr	r0, [pc, #16]	; (104 <frame_dummy+0x1c>)
      f4:	e000      	b.n	f8 <frame_dummy+0x10>
      f6:	bf00      	nop
      f8:	bd10      	pop	{r4, pc}
      fa:	46c0      	nop			; (mov r8, r8)
      fc:	00000000 	.word	0x00000000
     100:	20000080 	.word	0x20000080
     104:	00006084 	.word	0x00006084

00000108 <_mainCRTStartup>:
     108:	4b16      	ldr	r3, [pc, #88]	; (164 <_mainCRTStartup+0x5c>)
     10a:	2b00      	cmp	r3, #0
     10c:	d100      	bne.n	110 <_mainCRTStartup+0x8>
     10e:	4b14      	ldr	r3, [pc, #80]	; (160 <_mainCRTStartup+0x58>)
     110:	469d      	mov	sp, r3
     112:	2240      	movs	r2, #64	; 0x40
     114:	0292      	lsls	r2, r2, #10
     116:	1a9a      	subs	r2, r3, r2
     118:	4692      	mov	sl, r2
     11a:	2100      	movs	r1, #0
     11c:	468b      	mov	fp, r1
     11e:	460f      	mov	r7, r1
     120:	4813      	ldr	r0, [pc, #76]	; (170 <_mainCRTStartup+0x68>)
     122:	4a14      	ldr	r2, [pc, #80]	; (174 <_mainCRTStartup+0x6c>)
     124:	1a12      	subs	r2, r2, r0
     126:	f003 f8f3 	bl	3310 <memset>
     12a:	4b0f      	ldr	r3, [pc, #60]	; (168 <_mainCRTStartup+0x60>)
     12c:	2b00      	cmp	r3, #0
     12e:	d000      	beq.n	132 <_mainCRTStartup+0x2a>
     130:	4798      	blx	r3
     132:	4b0e      	ldr	r3, [pc, #56]	; (16c <_mainCRTStartup+0x64>)
     134:	2b00      	cmp	r3, #0
     136:	d000      	beq.n	13a <_mainCRTStartup+0x32>
     138:	4798      	blx	r3
     13a:	2000      	movs	r0, #0
     13c:	2100      	movs	r1, #0
     13e:	0004      	movs	r4, r0
     140:	000d      	movs	r5, r1
     142:	480d      	ldr	r0, [pc, #52]	; (178 <_mainCRTStartup+0x70>)
     144:	2800      	cmp	r0, #0
     146:	d002      	beq.n	14e <_mainCRTStartup+0x46>
     148:	480c      	ldr	r0, [pc, #48]	; (17c <_mainCRTStartup+0x74>)
     14a:	e000      	b.n	14e <_mainCRTStartup+0x46>
     14c:	bf00      	nop
     14e:	f003 f8bb 	bl	32c8 <__libc_init_array>
     152:	0020      	movs	r0, r4
     154:	0029      	movs	r1, r5
     156:	f001 ffff 	bl	2158 <main>
     15a:	f003 f883 	bl	3264 <exit>
     15e:	46c0      	nop			; (mov r8, r8)
     160:	00080000 	.word	0x00080000
     164:	20004000 	.word	0x20004000
	...
     170:	2000007c 	.word	0x2000007c
     174:	20000120 	.word	0x20000120
	...

00000180 <nrf_gpio_cfg>:
     180:	b590      	push	{r4, r7, lr}
     182:	b083      	sub	sp, #12
     184:	af00      	add	r7, sp, #0
     186:	6078      	str	r0, [r7, #4]
     188:	000c      	movs	r4, r1
     18a:	0010      	movs	r0, r2
     18c:	0019      	movs	r1, r3
     18e:	1cfb      	adds	r3, r7, #3
     190:	1c22      	adds	r2, r4, #0
     192:	701a      	strb	r2, [r3, #0]
     194:	1cbb      	adds	r3, r7, #2
     196:	1c02      	adds	r2, r0, #0
     198:	701a      	strb	r2, [r3, #0]
     19a:	1c7b      	adds	r3, r7, #1
     19c:	1c0a      	adds	r2, r1, #0
     19e:	701a      	strb	r2, [r3, #0]
     1a0:	1cfb      	adds	r3, r7, #3
     1a2:	781a      	ldrb	r2, [r3, #0]
     1a4:	1cbb      	adds	r3, r7, #2
     1a6:	781b      	ldrb	r3, [r3, #0]
     1a8:	005b      	lsls	r3, r3, #1
     1aa:	431a      	orrs	r2, r3
     1ac:	1c7b      	adds	r3, r7, #1
     1ae:	781b      	ldrb	r3, [r3, #0]
     1b0:	009b      	lsls	r3, r3, #2
     1b2:	431a      	orrs	r2, r3
     1b4:	2318      	movs	r3, #24
     1b6:	18fb      	adds	r3, r7, r3
     1b8:	781b      	ldrb	r3, [r3, #0]
     1ba:	021b      	lsls	r3, r3, #8
     1bc:	431a      	orrs	r2, r3
     1be:	0011      	movs	r1, r2
     1c0:	231c      	movs	r3, #28
     1c2:	18fb      	adds	r3, r7, r3
     1c4:	781b      	ldrb	r3, [r3, #0]
     1c6:	041a      	lsls	r2, r3, #16
     1c8:	23a0      	movs	r3, #160	; 0xa0
     1ca:	05db      	lsls	r3, r3, #23
     1cc:	4311      	orrs	r1, r2
     1ce:	687a      	ldr	r2, [r7, #4]
     1d0:	32c1      	adds	r2, #193	; 0xc1
     1d2:	32ff      	adds	r2, #255	; 0xff
     1d4:	0092      	lsls	r2, r2, #2
     1d6:	50d1      	str	r1, [r2, r3]
     1d8:	46c0      	nop			; (mov r8, r8)
     1da:	46bd      	mov	sp, r7
     1dc:	b003      	add	sp, #12
     1de:	bd90      	pop	{r4, r7, pc}

000001e0 <nrf_gpio_pin_dir_set>:
     1e0:	b580      	push	{r7, lr}
     1e2:	b084      	sub	sp, #16
     1e4:	af02      	add	r7, sp, #8
     1e6:	6078      	str	r0, [r7, #4]
     1e8:	000a      	movs	r2, r1
     1ea:	1cfb      	adds	r3, r7, #3
     1ec:	701a      	strb	r2, [r3, #0]
     1ee:	1cfb      	adds	r3, r7, #3
     1f0:	781b      	ldrb	r3, [r3, #0]
     1f2:	2b00      	cmp	r3, #0
     1f4:	d10a      	bne.n	20c <nrf_gpio_pin_dir_set+0x2c>
     1f6:	6878      	ldr	r0, [r7, #4]
     1f8:	2300      	movs	r3, #0
     1fa:	9301      	str	r3, [sp, #4]
     1fc:	2300      	movs	r3, #0
     1fe:	9300      	str	r3, [sp, #0]
     200:	2300      	movs	r3, #0
     202:	2200      	movs	r2, #0
     204:	2100      	movs	r1, #0
     206:	f7ff ffbb 	bl	180 <nrf_gpio_cfg>
     20a:	e007      	b.n	21c <nrf_gpio_pin_dir_set+0x3c>
     20c:	23a0      	movs	r3, #160	; 0xa0
     20e:	05da      	lsls	r2, r3, #23
     210:	2101      	movs	r1, #1
     212:	687b      	ldr	r3, [r7, #4]
     214:	4099      	lsls	r1, r3
     216:	23a3      	movs	r3, #163	; 0xa3
     218:	00db      	lsls	r3, r3, #3
     21a:	50d1      	str	r1, [r2, r3]
     21c:	46c0      	nop			; (mov r8, r8)
     21e:	46bd      	mov	sp, r7
     220:	b002      	add	sp, #8
     222:	bd80      	pop	{r7, pc}

00000224 <nrf_gpio_pin_set>:
     224:	b580      	push	{r7, lr}
     226:	b082      	sub	sp, #8
     228:	af00      	add	r7, sp, #0
     22a:	6078      	str	r0, [r7, #4]
     22c:	23a0      	movs	r3, #160	; 0xa0
     22e:	05da      	lsls	r2, r3, #23
     230:	2101      	movs	r1, #1
     232:	687b      	ldr	r3, [r7, #4]
     234:	4099      	lsls	r1, r3
     236:	23a1      	movs	r3, #161	; 0xa1
     238:	00db      	lsls	r3, r3, #3
     23a:	50d1      	str	r1, [r2, r3]
     23c:	46c0      	nop			; (mov r8, r8)
     23e:	46bd      	mov	sp, r7
     240:	b002      	add	sp, #8
     242:	bd80      	pop	{r7, pc}

00000244 <nrf_gpio_pin_clear>:
     244:	b580      	push	{r7, lr}
     246:	b082      	sub	sp, #8
     248:	af00      	add	r7, sp, #0
     24a:	6078      	str	r0, [r7, #4]
     24c:	23a0      	movs	r3, #160	; 0xa0
     24e:	05db      	lsls	r3, r3, #23
     250:	2101      	movs	r1, #1
     252:	687a      	ldr	r2, [r7, #4]
     254:	4091      	lsls	r1, r2
     256:	000a      	movs	r2, r1
     258:	4902      	ldr	r1, [pc, #8]	; (264 <nrf_gpio_pin_clear+0x20>)
     25a:	505a      	str	r2, [r3, r1]
     25c:	46c0      	nop			; (mov r8, r8)
     25e:	46bd      	mov	sp, r7
     260:	b002      	add	sp, #8
     262:	bd80      	pop	{r7, pc}
     264:	0000050c 	.word	0x0000050c

00000268 <nrf_gpio_pin_read>:
     268:	b580      	push	{r7, lr}
     26a:	b082      	sub	sp, #8
     26c:	af00      	add	r7, sp, #0
     26e:	6078      	str	r0, [r7, #4]
     270:	23a0      	movs	r3, #160	; 0xa0
     272:	05da      	lsls	r2, r3, #23
     274:	23a2      	movs	r3, #162	; 0xa2
     276:	00db      	lsls	r3, r3, #3
     278:	58d2      	ldr	r2, [r2, r3]
     27a:	687b      	ldr	r3, [r7, #4]
     27c:	40da      	lsrs	r2, r3
     27e:	0013      	movs	r3, r2
     280:	2201      	movs	r2, #1
     282:	4013      	ands	r3, r2
     284:	0018      	movs	r0, r3
     286:	46bd      	mov	sp, r7
     288:	b002      	add	sp, #8
     28a:	bd80      	pop	{r7, pc}

0000028c <nrf_twi_task_set>:
     28c:	b580      	push	{r7, lr}
     28e:	b082      	sub	sp, #8
     290:	af00      	add	r7, sp, #0
     292:	6078      	str	r0, [r7, #4]
     294:	000a      	movs	r2, r1
     296:	1cfb      	adds	r3, r7, #3
     298:	701a      	strb	r2, [r3, #0]
     29a:	1cfb      	adds	r3, r7, #3
     29c:	781b      	ldrb	r3, [r3, #0]
     29e:	687a      	ldr	r2, [r7, #4]
     2a0:	18d3      	adds	r3, r2, r3
     2a2:	2201      	movs	r2, #1
     2a4:	601a      	str	r2, [r3, #0]
     2a6:	46c0      	nop			; (mov r8, r8)
     2a8:	46bd      	mov	sp, r7
     2aa:	b002      	add	sp, #8
     2ac:	bd80      	pop	{r7, pc}

000002ae <nrf_twi_event_clear>:
     2ae:	b580      	push	{r7, lr}
     2b0:	b082      	sub	sp, #8
     2b2:	af00      	add	r7, sp, #0
     2b4:	6078      	str	r0, [r7, #4]
     2b6:	000a      	movs	r2, r1
     2b8:	1cbb      	adds	r3, r7, #2
     2ba:	801a      	strh	r2, [r3, #0]
     2bc:	1cbb      	adds	r3, r7, #2
     2be:	881b      	ldrh	r3, [r3, #0]
     2c0:	687a      	ldr	r2, [r7, #4]
     2c2:	18d3      	adds	r3, r2, r3
     2c4:	2200      	movs	r2, #0
     2c6:	601a      	str	r2, [r3, #0]
     2c8:	46c0      	nop			; (mov r8, r8)
     2ca:	46bd      	mov	sp, r7
     2cc:	b002      	add	sp, #8
     2ce:	bd80      	pop	{r7, pc}

000002d0 <nrf_twi_event_check>:
     2d0:	b580      	push	{r7, lr}
     2d2:	b082      	sub	sp, #8
     2d4:	af00      	add	r7, sp, #0
     2d6:	6078      	str	r0, [r7, #4]
     2d8:	000a      	movs	r2, r1
     2da:	1cbb      	adds	r3, r7, #2
     2dc:	801a      	strh	r2, [r3, #0]
     2de:	1cbb      	adds	r3, r7, #2
     2e0:	881b      	ldrh	r3, [r3, #0]
     2e2:	687a      	ldr	r2, [r7, #4]
     2e4:	18d3      	adds	r3, r2, r3
     2e6:	681b      	ldr	r3, [r3, #0]
     2e8:	1e5a      	subs	r2, r3, #1
     2ea:	4193      	sbcs	r3, r2
     2ec:	b2db      	uxtb	r3, r3
     2ee:	0018      	movs	r0, r3
     2f0:	46bd      	mov	sp, r7
     2f2:	b002      	add	sp, #8
     2f4:	bd80      	pop	{r7, pc}

000002f6 <nrf_twi_shorts_set>:
     2f6:	b580      	push	{r7, lr}
     2f8:	b082      	sub	sp, #8
     2fa:	af00      	add	r7, sp, #0
     2fc:	6078      	str	r0, [r7, #4]
     2fe:	6039      	str	r1, [r7, #0]
     300:	687a      	ldr	r2, [r7, #4]
     302:	2380      	movs	r3, #128	; 0x80
     304:	009b      	lsls	r3, r3, #2
     306:	58d2      	ldr	r2, [r2, r3]
     308:	683b      	ldr	r3, [r7, #0]
     30a:	431a      	orrs	r2, r3
     30c:	0011      	movs	r1, r2
     30e:	687a      	ldr	r2, [r7, #4]
     310:	2380      	movs	r3, #128	; 0x80
     312:	009b      	lsls	r3, r3, #2
     314:	50d1      	str	r1, [r2, r3]
     316:	46c0      	nop			; (mov r8, r8)
     318:	46bd      	mov	sp, r7
     31a:	b002      	add	sp, #8
     31c:	bd80      	pop	{r7, pc}

0000031e <nrf_twi_shorts_clear>:
     31e:	b580      	push	{r7, lr}
     320:	b082      	sub	sp, #8
     322:	af00      	add	r7, sp, #0
     324:	6078      	str	r0, [r7, #4]
     326:	6039      	str	r1, [r7, #0]
     328:	687a      	ldr	r2, [r7, #4]
     32a:	2380      	movs	r3, #128	; 0x80
     32c:	009b      	lsls	r3, r3, #2
     32e:	58d3      	ldr	r3, [r2, r3]
     330:	683a      	ldr	r2, [r7, #0]
     332:	43d2      	mvns	r2, r2
     334:	401a      	ands	r2, r3
     336:	0011      	movs	r1, r2
     338:	687a      	ldr	r2, [r7, #4]
     33a:	2380      	movs	r3, #128	; 0x80
     33c:	009b      	lsls	r3, r3, #2
     33e:	50d1      	str	r1, [r2, r3]
     340:	46c0      	nop			; (mov r8, r8)
     342:	46bd      	mov	sp, r7
     344:	b002      	add	sp, #8
     346:	bd80      	pop	{r7, pc}

00000348 <nrf_twi_frequency_set>:
     348:	b580      	push	{r7, lr}
     34a:	b082      	sub	sp, #8
     34c:	af00      	add	r7, sp, #0
     34e:	6078      	str	r0, [r7, #4]
     350:	6039      	str	r1, [r7, #0]
     352:	687b      	ldr	r3, [r7, #4]
     354:	4903      	ldr	r1, [pc, #12]	; (364 <nrf_twi_frequency_set+0x1c>)
     356:	683a      	ldr	r2, [r7, #0]
     358:	505a      	str	r2, [r3, r1]
     35a:	46c0      	nop			; (mov r8, r8)
     35c:	46bd      	mov	sp, r7
     35e:	b002      	add	sp, #8
     360:	bd80      	pop	{r7, pc}
     362:	46c0      	nop			; (mov r8, r8)
     364:	00000524 	.word	0x00000524

00000368 <nrf_twi_enable>:
     368:	b580      	push	{r7, lr}
     36a:	b082      	sub	sp, #8
     36c:	af00      	add	r7, sp, #0
     36e:	6078      	str	r0, [r7, #4]
     370:	687a      	ldr	r2, [r7, #4]
     372:	23a0      	movs	r3, #160	; 0xa0
     374:	00db      	lsls	r3, r3, #3
     376:	2105      	movs	r1, #5
     378:	50d1      	str	r1, [r2, r3]
     37a:	46c0      	nop			; (mov r8, r8)
     37c:	46bd      	mov	sp, r7
     37e:	b002      	add	sp, #8
     380:	bd80      	pop	{r7, pc}
	...

00000384 <nrf_twi_pins_set>:
     384:	b580      	push	{r7, lr}
     386:	b084      	sub	sp, #16
     388:	af00      	add	r7, sp, #0
     38a:	60f8      	str	r0, [r7, #12]
     38c:	60b9      	str	r1, [r7, #8]
     38e:	607a      	str	r2, [r7, #4]
     390:	68fa      	ldr	r2, [r7, #12]
     392:	23a1      	movs	r3, #161	; 0xa1
     394:	00db      	lsls	r3, r3, #3
     396:	68b9      	ldr	r1, [r7, #8]
     398:	50d1      	str	r1, [r2, r3]
     39a:	68fb      	ldr	r3, [r7, #12]
     39c:	4903      	ldr	r1, [pc, #12]	; (3ac <nrf_twi_pins_set+0x28>)
     39e:	687a      	ldr	r2, [r7, #4]
     3a0:	505a      	str	r2, [r3, r1]
     3a2:	46c0      	nop			; (mov r8, r8)
     3a4:	46bd      	mov	sp, r7
     3a6:	b004      	add	sp, #16
     3a8:	bd80      	pop	{r7, pc}
     3aa:	46c0      	nop			; (mov r8, r8)
     3ac:	0000050c 	.word	0x0000050c

000003b0 <nrf_twi_rxd_get>:
     3b0:	b580      	push	{r7, lr}
     3b2:	b082      	sub	sp, #8
     3b4:	af00      	add	r7, sp, #0
     3b6:	6078      	str	r0, [r7, #4]
     3b8:	687a      	ldr	r2, [r7, #4]
     3ba:	23a3      	movs	r3, #163	; 0xa3
     3bc:	00db      	lsls	r3, r3, #3
     3be:	58d3      	ldr	r3, [r2, r3]
     3c0:	b2db      	uxtb	r3, r3
     3c2:	0018      	movs	r0, r3
     3c4:	46bd      	mov	sp, r7
     3c6:	b002      	add	sp, #8
     3c8:	bd80      	pop	{r7, pc}
	...

000003cc <nrf_twi_txd_set>:
     3cc:	b580      	push	{r7, lr}
     3ce:	b082      	sub	sp, #8
     3d0:	af00      	add	r7, sp, #0
     3d2:	6078      	str	r0, [r7, #4]
     3d4:	000a      	movs	r2, r1
     3d6:	1cfb      	adds	r3, r7, #3
     3d8:	701a      	strb	r2, [r3, #0]
     3da:	1cfb      	adds	r3, r7, #3
     3dc:	781a      	ldrb	r2, [r3, #0]
     3de:	687b      	ldr	r3, [r7, #4]
     3e0:	4902      	ldr	r1, [pc, #8]	; (3ec <nrf_twi_txd_set+0x20>)
     3e2:	505a      	str	r2, [r3, r1]
     3e4:	46c0      	nop			; (mov r8, r8)
     3e6:	46bd      	mov	sp, r7
     3e8:	b002      	add	sp, #8
     3ea:	bd80      	pop	{r7, pc}
     3ec:	0000051c 	.word	0x0000051c

000003f0 <nrf_twi_address_set>:
     3f0:	b580      	push	{r7, lr}
     3f2:	b082      	sub	sp, #8
     3f4:	af00      	add	r7, sp, #0
     3f6:	6078      	str	r0, [r7, #4]
     3f8:	000a      	movs	r2, r1
     3fa:	1cfb      	adds	r3, r7, #3
     3fc:	701a      	strb	r2, [r3, #0]
     3fe:	1cfb      	adds	r3, r7, #3
     400:	7819      	ldrb	r1, [r3, #0]
     402:	687a      	ldr	r2, [r7, #4]
     404:	23b1      	movs	r3, #177	; 0xb1
     406:	00db      	lsls	r3, r3, #3
     408:	50d1      	str	r1, [r2, r3]
     40a:	46c0      	nop			; (mov r8, r8)
     40c:	46bd      	mov	sp, r7
     40e:	b002      	add	sp, #8
     410:	bd80      	pop	{r7, pc}

00000412 <clear_bus>:
     412:	b590      	push	{r4, r7, lr}
     414:	b085      	sub	sp, #20
     416:	af00      	add	r7, sp, #0
     418:	6078      	str	r0, [r7, #4]
     41a:	6039      	str	r1, [r7, #0]
     41c:	240f      	movs	r4, #15
     41e:	193b      	adds	r3, r7, r4
     420:	2200      	movs	r2, #0
     422:	701a      	strb	r2, [r3, #0]
     424:	687b      	ldr	r3, [r7, #4]
     426:	2100      	movs	r1, #0
     428:	0018      	movs	r0, r3
     42a:	f7ff fed9 	bl	1e0 <nrf_gpio_pin_dir_set>
     42e:	683b      	ldr	r3, [r7, #0]
     430:	2100      	movs	r1, #0
     432:	0018      	movs	r0, r3
     434:	f7ff fed4 	bl	1e0 <nrf_gpio_pin_dir_set>
     438:	687b      	ldr	r3, [r7, #4]
     43a:	0018      	movs	r0, r3
     43c:	f7ff fef2 	bl	224 <nrf_gpio_pin_set>
     440:	683b      	ldr	r3, [r7, #0]
     442:	0018      	movs	r0, r3
     444:	f7ff feee 	bl	224 <nrf_gpio_pin_set>
     448:	687b      	ldr	r3, [r7, #4]
     44a:	2101      	movs	r1, #1
     44c:	0018      	movs	r0, r3
     44e:	f7ff fec7 	bl	1e0 <nrf_gpio_pin_dir_set>
     452:	683b      	ldr	r3, [r7, #0]
     454:	2101      	movs	r1, #1
     456:	0018      	movs	r0, r3
     458:	f7ff fec2 	bl	1e0 <nrf_gpio_pin_dir_set>
     45c:	2004      	movs	r0, #4
     45e:	f000 faa3 	bl	9a8 <timer_wait_us>
     462:	193b      	adds	r3, r7, r4
     464:	2200      	movs	r2, #0
     466:	701a      	strb	r2, [r3, #0]
     468:	e01f      	b.n	4aa <clear_bus+0x98>
     46a:	683b      	ldr	r3, [r7, #0]
     46c:	0018      	movs	r0, r3
     46e:	f7ff fefb 	bl	268 <nrf_gpio_pin_read>
     472:	1e03      	subs	r3, r0, #0
     474:	d005      	beq.n	482 <clear_bus+0x70>
     476:	230f      	movs	r3, #15
     478:	18fb      	adds	r3, r7, r3
     47a:	781b      	ldrb	r3, [r3, #0]
     47c:	2b00      	cmp	r3, #0
     47e:	d11a      	bne.n	4b6 <clear_bus+0xa4>
     480:	e021      	b.n	4c6 <clear_bus+0xb4>
     482:	687b      	ldr	r3, [r7, #4]
     484:	0018      	movs	r0, r3
     486:	f7ff fedd 	bl	244 <nrf_gpio_pin_clear>
     48a:	2004      	movs	r0, #4
     48c:	f000 fa8c 	bl	9a8 <timer_wait_us>
     490:	687b      	ldr	r3, [r7, #4]
     492:	0018      	movs	r0, r3
     494:	f7ff fec6 	bl	224 <nrf_gpio_pin_set>
     498:	2004      	movs	r0, #4
     49a:	f000 fa85 	bl	9a8 <timer_wait_us>
     49e:	210f      	movs	r1, #15
     4a0:	187b      	adds	r3, r7, r1
     4a2:	781a      	ldrb	r2, [r3, #0]
     4a4:	187b      	adds	r3, r7, r1
     4a6:	3201      	adds	r2, #1
     4a8:	701a      	strb	r2, [r3, #0]
     4aa:	230f      	movs	r3, #15
     4ac:	18fb      	adds	r3, r7, r3
     4ae:	781b      	ldrb	r3, [r3, #0]
     4b0:	2b08      	cmp	r3, #8
     4b2:	d9da      	bls.n	46a <clear_bus+0x58>
     4b4:	e000      	b.n	4b8 <clear_bus+0xa6>
     4b6:	46c0      	nop			; (mov r8, r8)
     4b8:	683b      	ldr	r3, [r7, #0]
     4ba:	0018      	movs	r0, r3
     4bc:	f7ff fec2 	bl	244 <nrf_gpio_pin_clear>
     4c0:	2004      	movs	r0, #4
     4c2:	f000 fa71 	bl	9a8 <timer_wait_us>
     4c6:	46bd      	mov	sp, r7
     4c8:	b005      	add	sp, #20
     4ca:	bd90      	pop	{r4, r7, pc}

000004cc <wait_event>:
     4cc:	b580      	push	{r7, lr}
     4ce:	b084      	sub	sp, #16
     4d0:	af00      	add	r7, sp, #0
     4d2:	0002      	movs	r2, r0
     4d4:	1dbb      	adds	r3, r7, #6
     4d6:	801a      	strh	r2, [r3, #0]
     4d8:	f000 fa58 	bl	98c <timer_get_time_ms>
     4dc:	0003      	movs	r3, r0
     4de:	60fb      	str	r3, [r7, #12]
     4e0:	e024      	b.n	52c <wait_event+0x60>
     4e2:	4a19      	ldr	r2, [pc, #100]	; (548 <wait_event+0x7c>)
     4e4:	1dbb      	adds	r3, r7, #6
     4e6:	881b      	ldrh	r3, [r3, #0]
     4e8:	0019      	movs	r1, r3
     4ea:	0010      	movs	r0, r2
     4ec:	f7ff fef0 	bl	2d0 <nrf_twi_event_check>
     4f0:	1e03      	subs	r3, r0, #0
     4f2:	d008      	beq.n	506 <wait_event+0x3a>
     4f4:	4a14      	ldr	r2, [pc, #80]	; (548 <wait_event+0x7c>)
     4f6:	1dbb      	adds	r3, r7, #6
     4f8:	881b      	ldrh	r3, [r3, #0]
     4fa:	0019      	movs	r1, r3
     4fc:	0010      	movs	r0, r2
     4fe:	f7ff fed6 	bl	2ae <nrf_twi_event_clear>
     502:	2300      	movs	r3, #0
     504:	e01c      	b.n	540 <wait_event+0x74>
     506:	4a10      	ldr	r2, [pc, #64]	; (548 <wait_event+0x7c>)
     508:	2392      	movs	r3, #146	; 0x92
     50a:	005b      	lsls	r3, r3, #1
     50c:	0019      	movs	r1, r3
     50e:	0010      	movs	r0, r2
     510:	f7ff fede 	bl	2d0 <nrf_twi_event_check>
     514:	1e03      	subs	r3, r0, #0
     516:	d009      	beq.n	52c <wait_event+0x60>
     518:	4a0b      	ldr	r2, [pc, #44]	; (548 <wait_event+0x7c>)
     51a:	2392      	movs	r3, #146	; 0x92
     51c:	005b      	lsls	r3, r3, #1
     51e:	0019      	movs	r1, r3
     520:	0010      	movs	r0, r2
     522:	f7ff fec4 	bl	2ae <nrf_twi_event_clear>
     526:	2301      	movs	r3, #1
     528:	425b      	negs	r3, r3
     52a:	e009      	b.n	540 <wait_event+0x74>
     52c:	f000 fa2e 	bl	98c <timer_get_time_ms>
     530:	0002      	movs	r2, r0
     532:	68fb      	ldr	r3, [r7, #12]
     534:	1ad3      	subs	r3, r2, r3
     536:	2264      	movs	r2, #100	; 0x64
     538:	4293      	cmp	r3, r2
     53a:	d3d2      	bcc.n	4e2 <wait_event+0x16>
     53c:	2301      	movs	r3, #1
     53e:	425b      	negs	r3, r3
     540:	0018      	movs	r0, r3
     542:	46bd      	mov	sp, r7
     544:	b004      	add	sp, #16
     546:	bd80      	pop	{r7, pc}
     548:	40003000 	.word	0x40003000

0000054c <i2c_init>:
     54c:	b580      	push	{r7, lr}
     54e:	b082      	sub	sp, #8
     550:	af02      	add	r7, sp, #8
     552:	f000 f9d3 	bl	8fc <timer_init>
     556:	2300      	movs	r3, #0
     558:	9301      	str	r3, [sp, #4]
     55a:	2306      	movs	r3, #6
     55c:	9300      	str	r3, [sp, #0]
     55e:	2303      	movs	r3, #3
     560:	2200      	movs	r2, #0
     562:	2100      	movs	r1, #0
     564:	2000      	movs	r0, #0
     566:	f7ff fe0b 	bl	180 <nrf_gpio_cfg>
     56a:	2300      	movs	r3, #0
     56c:	9301      	str	r3, [sp, #4]
     56e:	2306      	movs	r3, #6
     570:	9300      	str	r3, [sp, #0]
     572:	2303      	movs	r3, #3
     574:	2200      	movs	r2, #0
     576:	2100      	movs	r1, #0
     578:	201e      	movs	r0, #30
     57a:	f7ff fe01 	bl	180 <nrf_gpio_cfg>
     57e:	211e      	movs	r1, #30
     580:	2000      	movs	r0, #0
     582:	f7ff ff46 	bl	412 <clear_bus>
     586:	2100      	movs	r1, #0
     588:	2000      	movs	r0, #0
     58a:	f7ff fe29 	bl	1e0 <nrf_gpio_pin_dir_set>
     58e:	2100      	movs	r1, #0
     590:	201e      	movs	r0, #30
     592:	f7ff fe25 	bl	1e0 <nrf_gpio_pin_dir_set>
     596:	4a14      	ldr	r2, [pc, #80]	; (5e8 <i2c_init+0x9c>)
     598:	23cc      	movs	r3, #204	; 0xcc
     59a:	045b      	lsls	r3, r3, #17
     59c:	0019      	movs	r1, r3
     59e:	0010      	movs	r0, r2
     5a0:	f7ff fed2 	bl	348 <nrf_twi_frequency_set>
     5a4:	4b10      	ldr	r3, [pc, #64]	; (5e8 <i2c_init+0x9c>)
     5a6:	221e      	movs	r2, #30
     5a8:	2100      	movs	r1, #0
     5aa:	0018      	movs	r0, r3
     5ac:	f7ff feea 	bl	384 <nrf_twi_pins_set>
     5b0:	4a0d      	ldr	r2, [pc, #52]	; (5e8 <i2c_init+0x9c>)
     5b2:	2384      	movs	r3, #132	; 0x84
     5b4:	005b      	lsls	r3, r3, #1
     5b6:	0019      	movs	r1, r3
     5b8:	0010      	movs	r0, r2
     5ba:	f7ff fe78 	bl	2ae <nrf_twi_event_clear>
     5be:	4a0a      	ldr	r2, [pc, #40]	; (5e8 <i2c_init+0x9c>)
     5c0:	238e      	movs	r3, #142	; 0x8e
     5c2:	005b      	lsls	r3, r3, #1
     5c4:	0019      	movs	r1, r3
     5c6:	0010      	movs	r0, r2
     5c8:	f7ff fe71 	bl	2ae <nrf_twi_event_clear>
     5cc:	4a06      	ldr	r2, [pc, #24]	; (5e8 <i2c_init+0x9c>)
     5ce:	2392      	movs	r3, #146	; 0x92
     5d0:	005b      	lsls	r3, r3, #1
     5d2:	0019      	movs	r1, r3
     5d4:	0010      	movs	r0, r2
     5d6:	f7ff fe6a 	bl	2ae <nrf_twi_event_clear>
     5da:	4b03      	ldr	r3, [pc, #12]	; (5e8 <i2c_init+0x9c>)
     5dc:	0018      	movs	r0, r3
     5de:	f7ff fec3 	bl	368 <nrf_twi_enable>
     5e2:	46c0      	nop			; (mov r8, r8)
     5e4:	46bd      	mov	sp, r7
     5e6:	bd80      	pop	{r7, pc}
     5e8:	40003000 	.word	0x40003000

000005ec <i2c_write>:
     5ec:	b5b0      	push	{r4, r5, r7, lr}
     5ee:	b086      	sub	sp, #24
     5f0:	af00      	add	r7, sp, #0
     5f2:	60ba      	str	r2, [r7, #8]
     5f4:	607b      	str	r3, [r7, #4]
     5f6:	240f      	movs	r4, #15
     5f8:	193b      	adds	r3, r7, r4
     5fa:	1c02      	adds	r2, r0, #0
     5fc:	701a      	strb	r2, [r3, #0]
     5fe:	250e      	movs	r5, #14
     600:	197b      	adds	r3, r7, r5
     602:	1c0a      	adds	r2, r1, #0
     604:	701a      	strb	r2, [r3, #0]
     606:	2300      	movs	r3, #0
     608:	617b      	str	r3, [r7, #20]
     60a:	4a24      	ldr	r2, [pc, #144]	; (69c <i2c_write+0xb0>)
     60c:	193b      	adds	r3, r7, r4
     60e:	781b      	ldrb	r3, [r3, #0]
     610:	0019      	movs	r1, r3
     612:	0010      	movs	r0, r2
     614:	f7ff feec 	bl	3f0 <nrf_twi_address_set>
     618:	4a20      	ldr	r2, [pc, #128]	; (69c <i2c_write+0xb0>)
     61a:	197b      	adds	r3, r7, r5
     61c:	781b      	ldrb	r3, [r3, #0]
     61e:	0019      	movs	r1, r3
     620:	0010      	movs	r0, r2
     622:	f7ff fed3 	bl	3cc <nrf_twi_txd_set>
     626:	4b1d      	ldr	r3, [pc, #116]	; (69c <i2c_write+0xb0>)
     628:	2108      	movs	r1, #8
     62a:	0018      	movs	r0, r3
     62c:	f7ff fe2e 	bl	28c <nrf_twi_task_set>
     630:	238e      	movs	r3, #142	; 0x8e
     632:	005b      	lsls	r3, r3, #1
     634:	0018      	movs	r0, r3
     636:	f7ff ff49 	bl	4cc <wait_event>
     63a:	1e03      	subs	r3, r0, #0
     63c:	da02      	bge.n	644 <i2c_write+0x58>
     63e:	2301      	movs	r3, #1
     640:	425b      	negs	r3, r3
     642:	e026      	b.n	692 <i2c_write+0xa6>
     644:	2300      	movs	r3, #0
     646:	617b      	str	r3, [r7, #20]
     648:	e014      	b.n	674 <i2c_write+0x88>
     64a:	4814      	ldr	r0, [pc, #80]	; (69c <i2c_write+0xb0>)
     64c:	68ba      	ldr	r2, [r7, #8]
     64e:	697b      	ldr	r3, [r7, #20]
     650:	18d3      	adds	r3, r2, r3
     652:	781b      	ldrb	r3, [r3, #0]
     654:	0019      	movs	r1, r3
     656:	f7ff feb9 	bl	3cc <nrf_twi_txd_set>
     65a:	238e      	movs	r3, #142	; 0x8e
     65c:	005b      	lsls	r3, r3, #1
     65e:	0018      	movs	r0, r3
     660:	f7ff ff34 	bl	4cc <wait_event>
     664:	1e03      	subs	r3, r0, #0
     666:	da02      	bge.n	66e <i2c_write+0x82>
     668:	2301      	movs	r3, #1
     66a:	425b      	negs	r3, r3
     66c:	e011      	b.n	692 <i2c_write+0xa6>
     66e:	697b      	ldr	r3, [r7, #20]
     670:	3301      	adds	r3, #1
     672:	617b      	str	r3, [r7, #20]
     674:	697a      	ldr	r2, [r7, #20]
     676:	687b      	ldr	r3, [r7, #4]
     678:	429a      	cmp	r2, r3
     67a:	d3e6      	bcc.n	64a <i2c_write+0x5e>
     67c:	4b07      	ldr	r3, [pc, #28]	; (69c <i2c_write+0xb0>)
     67e:	2114      	movs	r1, #20
     680:	0018      	movs	r0, r3
     682:	f7ff fe03 	bl	28c <nrf_twi_task_set>
     686:	2382      	movs	r3, #130	; 0x82
     688:	005b      	lsls	r3, r3, #1
     68a:	0018      	movs	r0, r3
     68c:	f7ff ff1e 	bl	4cc <wait_event>
     690:	687b      	ldr	r3, [r7, #4]
     692:	0018      	movs	r0, r3
     694:	46bd      	mov	sp, r7
     696:	b006      	add	sp, #24
     698:	bdb0      	pop	{r4, r5, r7, pc}
     69a:	46c0      	nop			; (mov r8, r8)
     69c:	40003000 	.word	0x40003000

000006a0 <i2c_read>:
     6a0:	b5b0      	push	{r4, r5, r7, lr}
     6a2:	b086      	sub	sp, #24
     6a4:	af00      	add	r7, sp, #0
     6a6:	60ba      	str	r2, [r7, #8]
     6a8:	607b      	str	r3, [r7, #4]
     6aa:	240f      	movs	r4, #15
     6ac:	193b      	adds	r3, r7, r4
     6ae:	1c02      	adds	r2, r0, #0
     6b0:	701a      	strb	r2, [r3, #0]
     6b2:	250e      	movs	r5, #14
     6b4:	197b      	adds	r3, r7, r5
     6b6:	1c0a      	adds	r2, r1, #0
     6b8:	701a      	strb	r2, [r3, #0]
     6ba:	2300      	movs	r3, #0
     6bc:	617b      	str	r3, [r7, #20]
     6be:	4a3d      	ldr	r2, [pc, #244]	; (7b4 <i2c_read+0x114>)
     6c0:	193b      	adds	r3, r7, r4
     6c2:	781b      	ldrb	r3, [r3, #0]
     6c4:	0019      	movs	r1, r3
     6c6:	0010      	movs	r0, r2
     6c8:	f7ff fe92 	bl	3f0 <nrf_twi_address_set>
     6cc:	4a39      	ldr	r2, [pc, #228]	; (7b4 <i2c_read+0x114>)
     6ce:	197b      	adds	r3, r7, r5
     6d0:	781b      	ldrb	r3, [r3, #0]
     6d2:	0019      	movs	r1, r3
     6d4:	0010      	movs	r0, r2
     6d6:	f7ff fe79 	bl	3cc <nrf_twi_txd_set>
     6da:	4b36      	ldr	r3, [pc, #216]	; (7b4 <i2c_read+0x114>)
     6dc:	2108      	movs	r1, #8
     6de:	0018      	movs	r0, r3
     6e0:	f7ff fdd4 	bl	28c <nrf_twi_task_set>
     6e4:	238e      	movs	r3, #142	; 0x8e
     6e6:	005b      	lsls	r3, r3, #1
     6e8:	0018      	movs	r0, r3
     6ea:	f7ff feef 	bl	4cc <wait_event>
     6ee:	1e03      	subs	r3, r0, #0
     6f0:	da02      	bge.n	6f8 <i2c_read+0x58>
     6f2:	2301      	movs	r3, #1
     6f4:	425b      	negs	r3, r3
     6f6:	e058      	b.n	7aa <i2c_read+0x10a>
     6f8:	687b      	ldr	r3, [r7, #4]
     6fa:	2b01      	cmp	r3, #1
     6fc:	d90a      	bls.n	714 <i2c_read+0x74>
     6fe:	4b2d      	ldr	r3, [pc, #180]	; (7b4 <i2c_read+0x114>)
     700:	2102      	movs	r1, #2
     702:	0018      	movs	r0, r3
     704:	f7ff fe0b 	bl	31e <nrf_twi_shorts_clear>
     708:	4b2a      	ldr	r3, [pc, #168]	; (7b4 <i2c_read+0x114>)
     70a:	2101      	movs	r1, #1
     70c:	0018      	movs	r0, r3
     70e:	f7ff fdf2 	bl	2f6 <nrf_twi_shorts_set>
     712:	e009      	b.n	728 <i2c_read+0x88>
     714:	4b27      	ldr	r3, [pc, #156]	; (7b4 <i2c_read+0x114>)
     716:	2102      	movs	r1, #2
     718:	0018      	movs	r0, r3
     71a:	f7ff fdec 	bl	2f6 <nrf_twi_shorts_set>
     71e:	4b25      	ldr	r3, [pc, #148]	; (7b4 <i2c_read+0x114>)
     720:	2101      	movs	r1, #1
     722:	0018      	movs	r0, r3
     724:	f7ff fdfb 	bl	31e <nrf_twi_shorts_clear>
     728:	4b22      	ldr	r3, [pc, #136]	; (7b4 <i2c_read+0x114>)
     72a:	2100      	movs	r1, #0
     72c:	0018      	movs	r0, r3
     72e:	f7ff fdad 	bl	28c <nrf_twi_task_set>
     732:	2300      	movs	r3, #0
     734:	617b      	str	r3, [r7, #20]
     736:	e024      	b.n	782 <i2c_read+0xe2>
     738:	2384      	movs	r3, #132	; 0x84
     73a:	005b      	lsls	r3, r3, #1
     73c:	0018      	movs	r0, r3
     73e:	f7ff fec5 	bl	4cc <wait_event>
     742:	1e03      	subs	r3, r0, #0
     744:	da02      	bge.n	74c <i2c_read+0xac>
     746:	2301      	movs	r3, #1
     748:	425b      	negs	r3, r3
     74a:	e02e      	b.n	7aa <i2c_read+0x10a>
     74c:	4919      	ldr	r1, [pc, #100]	; (7b4 <i2c_read+0x114>)
     74e:	68ba      	ldr	r2, [r7, #8]
     750:	697b      	ldr	r3, [r7, #20]
     752:	18d4      	adds	r4, r2, r3
     754:	0008      	movs	r0, r1
     756:	f7ff fe2b 	bl	3b0 <nrf_twi_rxd_get>
     75a:	0003      	movs	r3, r0
     75c:	7023      	strb	r3, [r4, #0]
     75e:	697b      	ldr	r3, [r7, #20]
     760:	3302      	adds	r3, #2
     762:	687a      	ldr	r2, [r7, #4]
     764:	429a      	cmp	r2, r3
     766:	d104      	bne.n	772 <i2c_read+0xd2>
     768:	4b12      	ldr	r3, [pc, #72]	; (7b4 <i2c_read+0x114>)
     76a:	2102      	movs	r1, #2
     76c:	0018      	movs	r0, r3
     76e:	f7ff fdc2 	bl	2f6 <nrf_twi_shorts_set>
     772:	4b10      	ldr	r3, [pc, #64]	; (7b4 <i2c_read+0x114>)
     774:	2120      	movs	r1, #32
     776:	0018      	movs	r0, r3
     778:	f7ff fd88 	bl	28c <nrf_twi_task_set>
     77c:	697b      	ldr	r3, [r7, #20]
     77e:	3301      	adds	r3, #1
     780:	617b      	str	r3, [r7, #20]
     782:	697a      	ldr	r2, [r7, #20]
     784:	687b      	ldr	r3, [r7, #4]
     786:	429a      	cmp	r2, r3
     788:	d3d6      	bcc.n	738 <i2c_read+0x98>
     78a:	2382      	movs	r3, #130	; 0x82
     78c:	005b      	lsls	r3, r3, #1
     78e:	0018      	movs	r0, r3
     790:	f7ff fe9c 	bl	4cc <wait_event>
     794:	4b07      	ldr	r3, [pc, #28]	; (7b4 <i2c_read+0x114>)
     796:	2102      	movs	r1, #2
     798:	0018      	movs	r0, r3
     79a:	f7ff fdc0 	bl	31e <nrf_twi_shorts_clear>
     79e:	4b05      	ldr	r3, [pc, #20]	; (7b4 <i2c_read+0x114>)
     7a0:	2101      	movs	r1, #1
     7a2:	0018      	movs	r0, r3
     7a4:	f7ff fdbb 	bl	31e <nrf_twi_shorts_clear>
     7a8:	687b      	ldr	r3, [r7, #4]
     7aa:	0018      	movs	r0, r3
     7ac:	46bd      	mov	sp, r7
     7ae:	b006      	add	sp, #24
     7b0:	bdb0      	pop	{r4, r5, r7, pc}
     7b2:	46c0      	nop			; (mov r8, r8)
     7b4:	40003000 	.word	0x40003000

000007b8 <nrf_timer_task_trigger>:
     7b8:	b580      	push	{r7, lr}
     7ba:	b082      	sub	sp, #8
     7bc:	af00      	add	r7, sp, #0
     7be:	6078      	str	r0, [r7, #4]
     7c0:	000a      	movs	r2, r1
     7c2:	1cfb      	adds	r3, r7, #3
     7c4:	701a      	strb	r2, [r3, #0]
     7c6:	1cfb      	adds	r3, r7, #3
     7c8:	781b      	ldrb	r3, [r3, #0]
     7ca:	687a      	ldr	r2, [r7, #4]
     7cc:	18d3      	adds	r3, r2, r3
     7ce:	2201      	movs	r2, #1
     7d0:	601a      	str	r2, [r3, #0]
     7d2:	46c0      	nop			; (mov r8, r8)
     7d4:	46bd      	mov	sp, r7
     7d6:	b002      	add	sp, #8
     7d8:	bd80      	pop	{r7, pc}

000007da <nrf_timer_shorts_enable>:
     7da:	b580      	push	{r7, lr}
     7dc:	b082      	sub	sp, #8
     7de:	af00      	add	r7, sp, #0
     7e0:	6078      	str	r0, [r7, #4]
     7e2:	6039      	str	r1, [r7, #0]
     7e4:	687a      	ldr	r2, [r7, #4]
     7e6:	2380      	movs	r3, #128	; 0x80
     7e8:	009b      	lsls	r3, r3, #2
     7ea:	58d2      	ldr	r2, [r2, r3]
     7ec:	683b      	ldr	r3, [r7, #0]
     7ee:	431a      	orrs	r2, r3
     7f0:	0011      	movs	r1, r2
     7f2:	687a      	ldr	r2, [r7, #4]
     7f4:	2380      	movs	r3, #128	; 0x80
     7f6:	009b      	lsls	r3, r3, #2
     7f8:	50d1      	str	r1, [r2, r3]
     7fa:	46c0      	nop			; (mov r8, r8)
     7fc:	46bd      	mov	sp, r7
     7fe:	b002      	add	sp, #8
     800:	bd80      	pop	{r7, pc}
	...

00000804 <nrf_timer_mode_set>:
     804:	b580      	push	{r7, lr}
     806:	b082      	sub	sp, #8
     808:	af00      	add	r7, sp, #0
     80a:	6078      	str	r0, [r7, #4]
     80c:	000a      	movs	r2, r1
     80e:	1cfb      	adds	r3, r7, #3
     810:	701a      	strb	r2, [r3, #0]
     812:	687b      	ldr	r3, [r7, #4]
     814:	4a08      	ldr	r2, [pc, #32]	; (838 <nrf_timer_mode_set+0x34>)
     816:	589b      	ldr	r3, [r3, r2]
     818:	2201      	movs	r2, #1
     81a:	4393      	bics	r3, r2
     81c:	001a      	movs	r2, r3
     81e:	1cfb      	adds	r3, r7, #3
     820:	781b      	ldrb	r3, [r3, #0]
     822:	2101      	movs	r1, #1
     824:	400b      	ands	r3, r1
     826:	431a      	orrs	r2, r3
     828:	687b      	ldr	r3, [r7, #4]
     82a:	4903      	ldr	r1, [pc, #12]	; (838 <nrf_timer_mode_set+0x34>)
     82c:	505a      	str	r2, [r3, r1]
     82e:	46c0      	nop			; (mov r8, r8)
     830:	46bd      	mov	sp, r7
     832:	b002      	add	sp, #8
     834:	bd80      	pop	{r7, pc}
     836:	46c0      	nop			; (mov r8, r8)
     838:	00000504 	.word	0x00000504

0000083c <nrf_timer_bit_width_set>:
     83c:	b580      	push	{r7, lr}
     83e:	b082      	sub	sp, #8
     840:	af00      	add	r7, sp, #0
     842:	6078      	str	r0, [r7, #4]
     844:	000a      	movs	r2, r1
     846:	1cfb      	adds	r3, r7, #3
     848:	701a      	strb	r2, [r3, #0]
     84a:	687a      	ldr	r2, [r7, #4]
     84c:	23a1      	movs	r3, #161	; 0xa1
     84e:	00db      	lsls	r3, r3, #3
     850:	58d3      	ldr	r3, [r2, r3]
     852:	2203      	movs	r2, #3
     854:	4393      	bics	r3, r2
     856:	001a      	movs	r2, r3
     858:	1cfb      	adds	r3, r7, #3
     85a:	781b      	ldrb	r3, [r3, #0]
     85c:	2103      	movs	r1, #3
     85e:	400b      	ands	r3, r1
     860:	431a      	orrs	r2, r3
     862:	0011      	movs	r1, r2
     864:	687a      	ldr	r2, [r7, #4]
     866:	23a1      	movs	r3, #161	; 0xa1
     868:	00db      	lsls	r3, r3, #3
     86a:	50d1      	str	r1, [r2, r3]
     86c:	46c0      	nop			; (mov r8, r8)
     86e:	46bd      	mov	sp, r7
     870:	b002      	add	sp, #8
     872:	bd80      	pop	{r7, pc}

00000874 <nrf_timer_frequency_set>:
     874:	b580      	push	{r7, lr}
     876:	b082      	sub	sp, #8
     878:	af00      	add	r7, sp, #0
     87a:	6078      	str	r0, [r7, #4]
     87c:	000a      	movs	r2, r1
     87e:	1cfb      	adds	r3, r7, #3
     880:	701a      	strb	r2, [r3, #0]
     882:	687a      	ldr	r2, [r7, #4]
     884:	23a2      	movs	r3, #162	; 0xa2
     886:	00db      	lsls	r3, r3, #3
     888:	58d3      	ldr	r3, [r2, r3]
     88a:	220f      	movs	r2, #15
     88c:	4393      	bics	r3, r2
     88e:	001a      	movs	r2, r3
     890:	1cfb      	adds	r3, r7, #3
     892:	781b      	ldrb	r3, [r3, #0]
     894:	210f      	movs	r1, #15
     896:	400b      	ands	r3, r1
     898:	431a      	orrs	r2, r3
     89a:	0011      	movs	r1, r2
     89c:	687a      	ldr	r2, [r7, #4]
     89e:	23a2      	movs	r3, #162	; 0xa2
     8a0:	00db      	lsls	r3, r3, #3
     8a2:	50d1      	str	r1, [r2, r3]
     8a4:	46c0      	nop			; (mov r8, r8)
     8a6:	46bd      	mov	sp, r7
     8a8:	b002      	add	sp, #8
     8aa:	bd80      	pop	{r7, pc}

000008ac <nrf_timer_cc_read>:
     8ac:	b580      	push	{r7, lr}
     8ae:	b082      	sub	sp, #8
     8b0:	af00      	add	r7, sp, #0
     8b2:	6078      	str	r0, [r7, #4]
     8b4:	000a      	movs	r2, r1
     8b6:	1cfb      	adds	r3, r7, #3
     8b8:	701a      	strb	r2, [r3, #0]
     8ba:	1cfb      	adds	r3, r7, #3
     8bc:	781a      	ldrb	r2, [r3, #0]
     8be:	687b      	ldr	r3, [r7, #4]
     8c0:	3251      	adds	r2, #81	; 0x51
     8c2:	32ff      	adds	r2, #255	; 0xff
     8c4:	0092      	lsls	r2, r2, #2
     8c6:	58d3      	ldr	r3, [r2, r3]
     8c8:	0018      	movs	r0, r3
     8ca:	46bd      	mov	sp, r7
     8cc:	b002      	add	sp, #8
     8ce:	bd80      	pop	{r7, pc}

000008d0 <nrf_timer_cc_write>:
     8d0:	b580      	push	{r7, lr}
     8d2:	b084      	sub	sp, #16
     8d4:	af00      	add	r7, sp, #0
     8d6:	60f8      	str	r0, [r7, #12]
     8d8:	607a      	str	r2, [r7, #4]
     8da:	200b      	movs	r0, #11
     8dc:	183b      	adds	r3, r7, r0
     8de:	1c0a      	adds	r2, r1, #0
     8e0:	701a      	strb	r2, [r3, #0]
     8e2:	183b      	adds	r3, r7, r0
     8e4:	781a      	ldrb	r2, [r3, #0]
     8e6:	68fb      	ldr	r3, [r7, #12]
     8e8:	3251      	adds	r2, #81	; 0x51
     8ea:	32ff      	adds	r2, #255	; 0xff
     8ec:	0092      	lsls	r2, r2, #2
     8ee:	6879      	ldr	r1, [r7, #4]
     8f0:	50d1      	str	r1, [r2, r3]
     8f2:	46c0      	nop			; (mov r8, r8)
     8f4:	46bd      	mov	sp, r7
     8f6:	b004      	add	sp, #16
     8f8:	bd80      	pop	{r7, pc}
	...

000008fc <timer_init>:
     8fc:	b580      	push	{r7, lr}
     8fe:	af00      	add	r7, sp, #0
     900:	4b17      	ldr	r3, [pc, #92]	; (960 <timer_init+0x64>)
     902:	781b      	ldrb	r3, [r3, #0]
     904:	2b00      	cmp	r3, #0
     906:	d128      	bne.n	95a <timer_init+0x5e>
     908:	4b16      	ldr	r3, [pc, #88]	; (964 <timer_init+0x68>)
     90a:	2100      	movs	r1, #0
     90c:	0018      	movs	r0, r3
     90e:	f7ff ff79 	bl	804 <nrf_timer_mode_set>
     912:	4b14      	ldr	r3, [pc, #80]	; (964 <timer_init+0x68>)
     914:	2103      	movs	r1, #3
     916:	0018      	movs	r0, r3
     918:	f7ff ff90 	bl	83c <nrf_timer_bit_width_set>
     91c:	4b11      	ldr	r3, [pc, #68]	; (964 <timer_init+0x68>)
     91e:	2104      	movs	r1, #4
     920:	0018      	movs	r0, r3
     922:	f7ff ffa7 	bl	874 <nrf_timer_frequency_set>
     926:	480f      	ldr	r0, [pc, #60]	; (964 <timer_init+0x68>)
     928:	2301      	movs	r3, #1
     92a:	425b      	negs	r3, r3
     92c:	001a      	movs	r2, r3
     92e:	2101      	movs	r1, #1
     930:	f7ff ffce 	bl	8d0 <nrf_timer_cc_write>
     934:	4a0b      	ldr	r2, [pc, #44]	; (964 <timer_init+0x68>)
     936:	2380      	movs	r3, #128	; 0x80
     938:	009b      	lsls	r3, r3, #2
     93a:	2100      	movs	r1, #0
     93c:	50d1      	str	r1, [r2, r3]
     93e:	4b09      	ldr	r3, [pc, #36]	; (964 <timer_init+0x68>)
     940:	2102      	movs	r1, #2
     942:	0018      	movs	r0, r3
     944:	f7ff ff49 	bl	7da <nrf_timer_shorts_enable>
     948:	4b06      	ldr	r3, [pc, #24]	; (964 <timer_init+0x68>)
     94a:	2100      	movs	r1, #0
     94c:	0018      	movs	r0, r3
     94e:	f7ff ff33 	bl	7b8 <nrf_timer_task_trigger>
     952:	4b03      	ldr	r3, [pc, #12]	; (960 <timer_init+0x64>)
     954:	2201      	movs	r2, #1
     956:	701a      	strb	r2, [r3, #0]
     958:	e000      	b.n	95c <timer_init+0x60>
     95a:	46c0      	nop			; (mov r8, r8)
     95c:	46bd      	mov	sp, r7
     95e:	bd80      	pop	{r7, pc}
     960:	20000098 	.word	0x20000098
     964:	40008000 	.word	0x40008000

00000968 <timer_get_time_us>:
     968:	b580      	push	{r7, lr}
     96a:	af00      	add	r7, sp, #0
     96c:	4b06      	ldr	r3, [pc, #24]	; (988 <timer_get_time_us+0x20>)
     96e:	2140      	movs	r1, #64	; 0x40
     970:	0018      	movs	r0, r3
     972:	f7ff ff21 	bl	7b8 <nrf_timer_task_trigger>
     976:	4b04      	ldr	r3, [pc, #16]	; (988 <timer_get_time_us+0x20>)
     978:	2100      	movs	r1, #0
     97a:	0018      	movs	r0, r3
     97c:	f7ff ff96 	bl	8ac <nrf_timer_cc_read>
     980:	0003      	movs	r3, r0
     982:	0018      	movs	r0, r3
     984:	46bd      	mov	sp, r7
     986:	bd80      	pop	{r7, pc}
     988:	40008000 	.word	0x40008000

0000098c <timer_get_time_ms>:
     98c:	b580      	push	{r7, lr}
     98e:	af00      	add	r7, sp, #0
     990:	f7ff ffea 	bl	968 <timer_get_time_us>
     994:	0002      	movs	r2, r0
     996:	23fa      	movs	r3, #250	; 0xfa
     998:	0099      	lsls	r1, r3, #2
     99a:	0010      	movs	r0, r2
     99c:	f004 f878 	bl	4a90 <__udivsi3>
     9a0:	0003      	movs	r3, r0
     9a2:	0018      	movs	r0, r3
     9a4:	46bd      	mov	sp, r7
     9a6:	bd80      	pop	{r7, pc}

000009a8 <timer_wait_us>:
     9a8:	b580      	push	{r7, lr}
     9aa:	b084      	sub	sp, #16
     9ac:	af00      	add	r7, sp, #0
     9ae:	6078      	str	r0, [r7, #4]
     9b0:	f7ff ffda 	bl	968 <timer_get_time_us>
     9b4:	0003      	movs	r3, r0
     9b6:	60fb      	str	r3, [r7, #12]
     9b8:	46c0      	nop			; (mov r8, r8)
     9ba:	f7ff ffd5 	bl	968 <timer_get_time_us>
     9be:	0002      	movs	r2, r0
     9c0:	68fb      	ldr	r3, [r7, #12]
     9c2:	1ad3      	subs	r3, r2, r3
     9c4:	687a      	ldr	r2, [r7, #4]
     9c6:	429a      	cmp	r2, r3
     9c8:	d8f7      	bhi.n	9ba <timer_wait_us+0x12>
     9ca:	46c0      	nop			; (mov r8, r8)
     9cc:	46c0      	nop			; (mov r8, r8)
     9ce:	46bd      	mov	sp, r7
     9d0:	b004      	add	sp, #16
     9d2:	bd80      	pop	{r7, pc}

000009d4 <timer_wait_ms>:
     9d4:	b580      	push	{r7, lr}
     9d6:	b082      	sub	sp, #8
     9d8:	af00      	add	r7, sp, #0
     9da:	6078      	str	r0, [r7, #4]
     9dc:	687a      	ldr	r2, [r7, #4]
     9de:	0013      	movs	r3, r2
     9e0:	015b      	lsls	r3, r3, #5
     9e2:	1a9b      	subs	r3, r3, r2
     9e4:	009b      	lsls	r3, r3, #2
     9e6:	189b      	adds	r3, r3, r2
     9e8:	00db      	lsls	r3, r3, #3
     9ea:	0018      	movs	r0, r3
     9ec:	f7ff ffdc 	bl	9a8 <timer_wait_us>
     9f0:	46c0      	nop			; (mov r8, r8)
     9f2:	46bd      	mov	sp, r7
     9f4:	b002      	add	sp, #8
     9f6:	bd80      	pop	{r7, pc}

000009f8 <NVIC_EnableIRQ>:
     9f8:	b580      	push	{r7, lr}
     9fa:	b082      	sub	sp, #8
     9fc:	af00      	add	r7, sp, #0
     9fe:	0002      	movs	r2, r0
     a00:	1dfb      	adds	r3, r7, #7
     a02:	701a      	strb	r2, [r3, #0]
     a04:	1dfb      	adds	r3, r7, #7
     a06:	781b      	ldrb	r3, [r3, #0]
     a08:	001a      	movs	r2, r3
     a0a:	231f      	movs	r3, #31
     a0c:	4013      	ands	r3, r2
     a0e:	2201      	movs	r2, #1
     a10:	409a      	lsls	r2, r3
     a12:	4b03      	ldr	r3, [pc, #12]	; (a20 <NVIC_EnableIRQ+0x28>)
     a14:	601a      	str	r2, [r3, #0]
     a16:	46c0      	nop			; (mov r8, r8)
     a18:	46bd      	mov	sp, r7
     a1a:	b002      	add	sp, #8
     a1c:	bd80      	pop	{r7, pc}
     a1e:	46c0      	nop			; (mov r8, r8)
     a20:	e000e100 	.word	0xe000e100

00000a24 <NVIC_SetPriority>:
     a24:	b590      	push	{r4, r7, lr}
     a26:	b083      	sub	sp, #12
     a28:	af00      	add	r7, sp, #0
     a2a:	0002      	movs	r2, r0
     a2c:	6039      	str	r1, [r7, #0]
     a2e:	1dfb      	adds	r3, r7, #7
     a30:	701a      	strb	r2, [r3, #0]
     a32:	1dfb      	adds	r3, r7, #7
     a34:	781b      	ldrb	r3, [r3, #0]
     a36:	2b7f      	cmp	r3, #127	; 0x7f
     a38:	d932      	bls.n	aa0 <NVIC_SetPriority+0x7c>
     a3a:	4a2f      	ldr	r2, [pc, #188]	; (af8 <NVIC_SetPriority+0xd4>)
     a3c:	1dfb      	adds	r3, r7, #7
     a3e:	781b      	ldrb	r3, [r3, #0]
     a40:	0019      	movs	r1, r3
     a42:	230f      	movs	r3, #15
     a44:	400b      	ands	r3, r1
     a46:	3b08      	subs	r3, #8
     a48:	089b      	lsrs	r3, r3, #2
     a4a:	3306      	adds	r3, #6
     a4c:	009b      	lsls	r3, r3, #2
     a4e:	18d3      	adds	r3, r2, r3
     a50:	3304      	adds	r3, #4
     a52:	681b      	ldr	r3, [r3, #0]
     a54:	1dfa      	adds	r2, r7, #7
     a56:	7812      	ldrb	r2, [r2, #0]
     a58:	0011      	movs	r1, r2
     a5a:	2203      	movs	r2, #3
     a5c:	400a      	ands	r2, r1
     a5e:	00d2      	lsls	r2, r2, #3
     a60:	21ff      	movs	r1, #255	; 0xff
     a62:	4091      	lsls	r1, r2
     a64:	000a      	movs	r2, r1
     a66:	43d2      	mvns	r2, r2
     a68:	401a      	ands	r2, r3
     a6a:	0011      	movs	r1, r2
     a6c:	683b      	ldr	r3, [r7, #0]
     a6e:	019b      	lsls	r3, r3, #6
     a70:	22ff      	movs	r2, #255	; 0xff
     a72:	401a      	ands	r2, r3
     a74:	1dfb      	adds	r3, r7, #7
     a76:	781b      	ldrb	r3, [r3, #0]
     a78:	0018      	movs	r0, r3
     a7a:	2303      	movs	r3, #3
     a7c:	4003      	ands	r3, r0
     a7e:	00db      	lsls	r3, r3, #3
     a80:	409a      	lsls	r2, r3
     a82:	481d      	ldr	r0, [pc, #116]	; (af8 <NVIC_SetPriority+0xd4>)
     a84:	1dfb      	adds	r3, r7, #7
     a86:	781b      	ldrb	r3, [r3, #0]
     a88:	001c      	movs	r4, r3
     a8a:	230f      	movs	r3, #15
     a8c:	4023      	ands	r3, r4
     a8e:	3b08      	subs	r3, #8
     a90:	089b      	lsrs	r3, r3, #2
     a92:	430a      	orrs	r2, r1
     a94:	3306      	adds	r3, #6
     a96:	009b      	lsls	r3, r3, #2
     a98:	18c3      	adds	r3, r0, r3
     a9a:	3304      	adds	r3, #4
     a9c:	601a      	str	r2, [r3, #0]
     a9e:	e027      	b.n	af0 <NVIC_SetPriority+0xcc>
     aa0:	4a16      	ldr	r2, [pc, #88]	; (afc <NVIC_SetPriority+0xd8>)
     aa2:	1dfb      	adds	r3, r7, #7
     aa4:	781b      	ldrb	r3, [r3, #0]
     aa6:	b25b      	sxtb	r3, r3
     aa8:	089b      	lsrs	r3, r3, #2
     aaa:	33c0      	adds	r3, #192	; 0xc0
     aac:	009b      	lsls	r3, r3, #2
     aae:	589b      	ldr	r3, [r3, r2]
     ab0:	1dfa      	adds	r2, r7, #7
     ab2:	7812      	ldrb	r2, [r2, #0]
     ab4:	0011      	movs	r1, r2
     ab6:	2203      	movs	r2, #3
     ab8:	400a      	ands	r2, r1
     aba:	00d2      	lsls	r2, r2, #3
     abc:	21ff      	movs	r1, #255	; 0xff
     abe:	4091      	lsls	r1, r2
     ac0:	000a      	movs	r2, r1
     ac2:	43d2      	mvns	r2, r2
     ac4:	401a      	ands	r2, r3
     ac6:	0011      	movs	r1, r2
     ac8:	683b      	ldr	r3, [r7, #0]
     aca:	019b      	lsls	r3, r3, #6
     acc:	22ff      	movs	r2, #255	; 0xff
     ace:	401a      	ands	r2, r3
     ad0:	1dfb      	adds	r3, r7, #7
     ad2:	781b      	ldrb	r3, [r3, #0]
     ad4:	0018      	movs	r0, r3
     ad6:	2303      	movs	r3, #3
     ad8:	4003      	ands	r3, r0
     ada:	00db      	lsls	r3, r3, #3
     adc:	409a      	lsls	r2, r3
     ade:	4807      	ldr	r0, [pc, #28]	; (afc <NVIC_SetPriority+0xd8>)
     ae0:	1dfb      	adds	r3, r7, #7
     ae2:	781b      	ldrb	r3, [r3, #0]
     ae4:	b25b      	sxtb	r3, r3
     ae6:	089b      	lsrs	r3, r3, #2
     ae8:	430a      	orrs	r2, r1
     aea:	33c0      	adds	r3, #192	; 0xc0
     aec:	009b      	lsls	r3, r3, #2
     aee:	501a      	str	r2, [r3, r0]
     af0:	46c0      	nop			; (mov r8, r8)
     af2:	46bd      	mov	sp, r7
     af4:	b003      	add	sp, #12
     af6:	bd90      	pop	{r4, r7, pc}
     af8:	e000ed00 	.word	0xe000ed00
     afc:	e000e100 	.word	0xe000e100

00000b00 <nrf_gpio_cfg>:
     b00:	b590      	push	{r4, r7, lr}
     b02:	b083      	sub	sp, #12
     b04:	af00      	add	r7, sp, #0
     b06:	6078      	str	r0, [r7, #4]
     b08:	000c      	movs	r4, r1
     b0a:	0010      	movs	r0, r2
     b0c:	0019      	movs	r1, r3
     b0e:	1cfb      	adds	r3, r7, #3
     b10:	1c22      	adds	r2, r4, #0
     b12:	701a      	strb	r2, [r3, #0]
     b14:	1cbb      	adds	r3, r7, #2
     b16:	1c02      	adds	r2, r0, #0
     b18:	701a      	strb	r2, [r3, #0]
     b1a:	1c7b      	adds	r3, r7, #1
     b1c:	1c0a      	adds	r2, r1, #0
     b1e:	701a      	strb	r2, [r3, #0]
     b20:	1cfb      	adds	r3, r7, #3
     b22:	781a      	ldrb	r2, [r3, #0]
     b24:	1cbb      	adds	r3, r7, #2
     b26:	781b      	ldrb	r3, [r3, #0]
     b28:	005b      	lsls	r3, r3, #1
     b2a:	431a      	orrs	r2, r3
     b2c:	1c7b      	adds	r3, r7, #1
     b2e:	781b      	ldrb	r3, [r3, #0]
     b30:	009b      	lsls	r3, r3, #2
     b32:	431a      	orrs	r2, r3
     b34:	2318      	movs	r3, #24
     b36:	18fb      	adds	r3, r7, r3
     b38:	781b      	ldrb	r3, [r3, #0]
     b3a:	021b      	lsls	r3, r3, #8
     b3c:	431a      	orrs	r2, r3
     b3e:	0011      	movs	r1, r2
     b40:	231c      	movs	r3, #28
     b42:	18fb      	adds	r3, r7, r3
     b44:	781b      	ldrb	r3, [r3, #0]
     b46:	041a      	lsls	r2, r3, #16
     b48:	23a0      	movs	r3, #160	; 0xa0
     b4a:	05db      	lsls	r3, r3, #23
     b4c:	4311      	orrs	r1, r2
     b4e:	687a      	ldr	r2, [r7, #4]
     b50:	32c1      	adds	r2, #193	; 0xc1
     b52:	32ff      	adds	r2, #255	; 0xff
     b54:	0092      	lsls	r2, r2, #2
     b56:	50d1      	str	r1, [r2, r3]
     b58:	46c0      	nop			; (mov r8, r8)
     b5a:	46bd      	mov	sp, r7
     b5c:	b003      	add	sp, #12
     b5e:	bd90      	pop	{r4, r7, pc}

00000b60 <nrf_gpio_cfg_output>:
     b60:	b580      	push	{r7, lr}
     b62:	b084      	sub	sp, #16
     b64:	af02      	add	r7, sp, #8
     b66:	6078      	str	r0, [r7, #4]
     b68:	6878      	ldr	r0, [r7, #4]
     b6a:	2300      	movs	r3, #0
     b6c:	9301      	str	r3, [sp, #4]
     b6e:	2300      	movs	r3, #0
     b70:	9300      	str	r3, [sp, #0]
     b72:	2300      	movs	r3, #0
     b74:	2201      	movs	r2, #1
     b76:	2101      	movs	r1, #1
     b78:	f7ff ffc2 	bl	b00 <nrf_gpio_cfg>
     b7c:	46c0      	nop			; (mov r8, r8)
     b7e:	46bd      	mov	sp, r7
     b80:	b002      	add	sp, #8
     b82:	bd80      	pop	{r7, pc}

00000b84 <nrf_gpiote_task_addr_get>:
     b84:	b580      	push	{r7, lr}
     b86:	b082      	sub	sp, #8
     b88:	af00      	add	r7, sp, #0
     b8a:	0002      	movs	r2, r0
     b8c:	1dfb      	adds	r3, r7, #7
     b8e:	701a      	strb	r2, [r3, #0]
     b90:	1dfb      	adds	r3, r7, #7
     b92:	781b      	ldrb	r3, [r3, #0]
     b94:	4a03      	ldr	r2, [pc, #12]	; (ba4 <nrf_gpiote_task_addr_get+0x20>)
     b96:	4694      	mov	ip, r2
     b98:	4463      	add	r3, ip
     b9a:	0018      	movs	r0, r3
     b9c:	46bd      	mov	sp, r7
     b9e:	b002      	add	sp, #8
     ba0:	bd80      	pop	{r7, pc}
     ba2:	46c0      	nop			; (mov r8, r8)
     ba4:	40006000 	.word	0x40006000

00000ba8 <nrf_gpiote_task_enable>:
     ba8:	b580      	push	{r7, lr}
     baa:	b084      	sub	sp, #16
     bac:	af00      	add	r7, sp, #0
     bae:	6078      	str	r0, [r7, #4]
     bb0:	4a11      	ldr	r2, [pc, #68]	; (bf8 <nrf_gpiote_task_enable+0x50>)
     bb2:	687b      	ldr	r3, [r7, #4]
     bb4:	3345      	adds	r3, #69	; 0x45
     bb6:	33ff      	adds	r3, #255	; 0xff
     bb8:	009b      	lsls	r3, r3, #2
     bba:	589b      	ldr	r3, [r3, r2]
     bbc:	2203      	movs	r2, #3
     bbe:	4313      	orrs	r3, r2
     bc0:	60fb      	str	r3, [r7, #12]
     bc2:	490d      	ldr	r1, [pc, #52]	; (bf8 <nrf_gpiote_task_enable+0x50>)
     bc4:	68fb      	ldr	r3, [r7, #12]
     bc6:	22f8      	movs	r2, #248	; 0xf8
     bc8:	0152      	lsls	r2, r2, #5
     bca:	431a      	orrs	r2, r3
     bcc:	687b      	ldr	r3, [r7, #4]
     bce:	3345      	adds	r3, #69	; 0x45
     bd0:	33ff      	adds	r3, #255	; 0xff
     bd2:	009b      	lsls	r3, r3, #2
     bd4:	505a      	str	r2, [r3, r1]
     bd6:	46c0      	nop			; (mov r8, r8)
     bd8:	46c0      	nop			; (mov r8, r8)
     bda:	46c0      	nop			; (mov r8, r8)
     bdc:	46c0      	nop			; (mov r8, r8)
     bde:	46c0      	nop			; (mov r8, r8)
     be0:	46c0      	nop			; (mov r8, r8)
     be2:	4905      	ldr	r1, [pc, #20]	; (bf8 <nrf_gpiote_task_enable+0x50>)
     be4:	687b      	ldr	r3, [r7, #4]
     be6:	3345      	adds	r3, #69	; 0x45
     be8:	33ff      	adds	r3, #255	; 0xff
     bea:	009b      	lsls	r3, r3, #2
     bec:	68fa      	ldr	r2, [r7, #12]
     bee:	505a      	str	r2, [r3, r1]
     bf0:	46c0      	nop			; (mov r8, r8)
     bf2:	46bd      	mov	sp, r7
     bf4:	b004      	add	sp, #16
     bf6:	bd80      	pop	{r7, pc}
     bf8:	40006000 	.word	0x40006000

00000bfc <nrf_gpiote_task_configure>:
     bfc:	b580      	push	{r7, lr}
     bfe:	b084      	sub	sp, #16
     c00:	af00      	add	r7, sp, #0
     c02:	60f8      	str	r0, [r7, #12]
     c04:	60b9      	str	r1, [r7, #8]
     c06:	0019      	movs	r1, r3
     c08:	1dfb      	adds	r3, r7, #7
     c0a:	701a      	strb	r2, [r3, #0]
     c0c:	1dbb      	adds	r3, r7, #6
     c0e:	1c0a      	adds	r2, r1, #0
     c10:	701a      	strb	r2, [r3, #0]
     c12:	4a1a      	ldr	r2, [pc, #104]	; (c7c <nrf_gpiote_task_configure+0x80>)
     c14:	68fb      	ldr	r3, [r7, #12]
     c16:	3345      	adds	r3, #69	; 0x45
     c18:	33ff      	adds	r3, #255	; 0xff
     c1a:	009b      	lsls	r3, r3, #2
     c1c:	589b      	ldr	r3, [r3, r2]
     c1e:	4917      	ldr	r1, [pc, #92]	; (c7c <nrf_gpiote_task_configure+0x80>)
     c20:	4a17      	ldr	r2, [pc, #92]	; (c80 <nrf_gpiote_task_configure+0x84>)
     c22:	401a      	ands	r2, r3
     c24:	68fb      	ldr	r3, [r7, #12]
     c26:	3345      	adds	r3, #69	; 0x45
     c28:	33ff      	adds	r3, #255	; 0xff
     c2a:	009b      	lsls	r3, r3, #2
     c2c:	505a      	str	r2, [r3, r1]
     c2e:	4a13      	ldr	r2, [pc, #76]	; (c7c <nrf_gpiote_task_configure+0x80>)
     c30:	68fb      	ldr	r3, [r7, #12]
     c32:	3345      	adds	r3, #69	; 0x45
     c34:	33ff      	adds	r3, #255	; 0xff
     c36:	009b      	lsls	r3, r3, #2
     c38:	589a      	ldr	r2, [r3, r2]
     c3a:	68bb      	ldr	r3, [r7, #8]
     c3c:	0219      	lsls	r1, r3, #8
     c3e:	23f8      	movs	r3, #248	; 0xf8
     c40:	015b      	lsls	r3, r3, #5
     c42:	4019      	ands	r1, r3
     c44:	1dfb      	adds	r3, r7, #7
     c46:	781b      	ldrb	r3, [r3, #0]
     c48:	041b      	lsls	r3, r3, #16
     c4a:	0018      	movs	r0, r3
     c4c:	23c0      	movs	r3, #192	; 0xc0
     c4e:	029b      	lsls	r3, r3, #10
     c50:	4003      	ands	r3, r0
     c52:	4319      	orrs	r1, r3
     c54:	1dbb      	adds	r3, r7, #6
     c56:	781b      	ldrb	r3, [r3, #0]
     c58:	051b      	lsls	r3, r3, #20
     c5a:	0018      	movs	r0, r3
     c5c:	2380      	movs	r3, #128	; 0x80
     c5e:	035b      	lsls	r3, r3, #13
     c60:	4003      	ands	r3, r0
     c62:	430b      	orrs	r3, r1
     c64:	4905      	ldr	r1, [pc, #20]	; (c7c <nrf_gpiote_task_configure+0x80>)
     c66:	431a      	orrs	r2, r3
     c68:	68fb      	ldr	r3, [r7, #12]
     c6a:	3345      	adds	r3, #69	; 0x45
     c6c:	33ff      	adds	r3, #255	; 0xff
     c6e:	009b      	lsls	r3, r3, #2
     c70:	505a      	str	r2, [r3, r1]
     c72:	46c0      	nop			; (mov r8, r8)
     c74:	46bd      	mov	sp, r7
     c76:	b004      	add	sp, #16
     c78:	bd80      	pop	{r7, pc}
     c7a:	46c0      	nop			; (mov r8, r8)
     c7c:	40006000 	.word	0x40006000
     c80:	ffece0ff 	.word	0xffece0ff

00000c84 <nrf_ppi_channel_enable>:
     c84:	b580      	push	{r7, lr}
     c86:	b082      	sub	sp, #8
     c88:	af00      	add	r7, sp, #0
     c8a:	0002      	movs	r2, r0
     c8c:	1dfb      	adds	r3, r7, #7
     c8e:	701a      	strb	r2, [r3, #0]
     c90:	1dfb      	adds	r3, r7, #7
     c92:	781b      	ldrb	r3, [r3, #0]
     c94:	4904      	ldr	r1, [pc, #16]	; (ca8 <nrf_ppi_channel_enable+0x24>)
     c96:	2201      	movs	r2, #1
     c98:	409a      	lsls	r2, r3
     c9a:	0013      	movs	r3, r2
     c9c:	4a03      	ldr	r2, [pc, #12]	; (cac <nrf_ppi_channel_enable+0x28>)
     c9e:	508b      	str	r3, [r1, r2]
     ca0:	46c0      	nop			; (mov r8, r8)
     ca2:	46bd      	mov	sp, r7
     ca4:	b002      	add	sp, #8
     ca6:	bd80      	pop	{r7, pc}
     ca8:	4001f000 	.word	0x4001f000
     cac:	00000504 	.word	0x00000504

00000cb0 <nrf_ppi_channel_endpoint_setup>:
     cb0:	b590      	push	{r4, r7, lr}
     cb2:	b085      	sub	sp, #20
     cb4:	af00      	add	r7, sp, #0
     cb6:	60b9      	str	r1, [r7, #8]
     cb8:	607a      	str	r2, [r7, #4]
     cba:	240f      	movs	r4, #15
     cbc:	193b      	adds	r3, r7, r4
     cbe:	1c02      	adds	r2, r0, #0
     cc0:	701a      	strb	r2, [r3, #0]
     cc2:	490a      	ldr	r1, [pc, #40]	; (cec <nrf_ppi_channel_endpoint_setup+0x3c>)
     cc4:	0020      	movs	r0, r4
     cc6:	183b      	adds	r3, r7, r0
     cc8:	781b      	ldrb	r3, [r3, #0]
     cca:	33a2      	adds	r3, #162	; 0xa2
     ccc:	00db      	lsls	r3, r3, #3
     cce:	68ba      	ldr	r2, [r7, #8]
     cd0:	505a      	str	r2, [r3, r1]
     cd2:	4a06      	ldr	r2, [pc, #24]	; (cec <nrf_ppi_channel_endpoint_setup+0x3c>)
     cd4:	183b      	adds	r3, r7, r0
     cd6:	781b      	ldrb	r3, [r3, #0]
     cd8:	33a2      	adds	r3, #162	; 0xa2
     cda:	00db      	lsls	r3, r3, #3
     cdc:	18d3      	adds	r3, r2, r3
     cde:	3304      	adds	r3, #4
     ce0:	687a      	ldr	r2, [r7, #4]
     ce2:	601a      	str	r2, [r3, #0]
     ce4:	46c0      	nop			; (mov r8, r8)
     ce6:	46bd      	mov	sp, r7
     ce8:	b005      	add	sp, #20
     cea:	bd90      	pop	{r4, r7, pc}
     cec:	4001f000 	.word	0x4001f000

00000cf0 <nrf_timer_task_trigger>:
     cf0:	b580      	push	{r7, lr}
     cf2:	b082      	sub	sp, #8
     cf4:	af00      	add	r7, sp, #0
     cf6:	6078      	str	r0, [r7, #4]
     cf8:	000a      	movs	r2, r1
     cfa:	1cfb      	adds	r3, r7, #3
     cfc:	701a      	strb	r2, [r3, #0]
     cfe:	1cfb      	adds	r3, r7, #3
     d00:	781b      	ldrb	r3, [r3, #0]
     d02:	687a      	ldr	r2, [r7, #4]
     d04:	18d3      	adds	r3, r2, r3
     d06:	2201      	movs	r2, #1
     d08:	601a      	str	r2, [r3, #0]
     d0a:	46c0      	nop			; (mov r8, r8)
     d0c:	46bd      	mov	sp, r7
     d0e:	b002      	add	sp, #8
     d10:	bd80      	pop	{r7, pc}

00000d12 <nrf_timer_event_clear>:
     d12:	b580      	push	{r7, lr}
     d14:	b082      	sub	sp, #8
     d16:	af00      	add	r7, sp, #0
     d18:	6078      	str	r0, [r7, #4]
     d1a:	000a      	movs	r2, r1
     d1c:	1cbb      	adds	r3, r7, #2
     d1e:	801a      	strh	r2, [r3, #0]
     d20:	1cbb      	adds	r3, r7, #2
     d22:	881b      	ldrh	r3, [r3, #0]
     d24:	687a      	ldr	r2, [r7, #4]
     d26:	18d3      	adds	r3, r2, r3
     d28:	2200      	movs	r2, #0
     d2a:	601a      	str	r2, [r3, #0]
     d2c:	46c0      	nop			; (mov r8, r8)
     d2e:	46bd      	mov	sp, r7
     d30:	b002      	add	sp, #8
     d32:	bd80      	pop	{r7, pc}

00000d34 <nrf_timer_event_address_get>:
     d34:	b580      	push	{r7, lr}
     d36:	b082      	sub	sp, #8
     d38:	af00      	add	r7, sp, #0
     d3a:	6078      	str	r0, [r7, #4]
     d3c:	000a      	movs	r2, r1
     d3e:	1cbb      	adds	r3, r7, #2
     d40:	801a      	strh	r2, [r3, #0]
     d42:	1cbb      	adds	r3, r7, #2
     d44:	881b      	ldrh	r3, [r3, #0]
     d46:	687a      	ldr	r2, [r7, #4]
     d48:	18d3      	adds	r3, r2, r3
     d4a:	0018      	movs	r0, r3
     d4c:	46bd      	mov	sp, r7
     d4e:	b002      	add	sp, #8
     d50:	bd80      	pop	{r7, pc}

00000d52 <nrf_timer_shorts_enable>:
     d52:	b580      	push	{r7, lr}
     d54:	b082      	sub	sp, #8
     d56:	af00      	add	r7, sp, #0
     d58:	6078      	str	r0, [r7, #4]
     d5a:	6039      	str	r1, [r7, #0]
     d5c:	687a      	ldr	r2, [r7, #4]
     d5e:	2380      	movs	r3, #128	; 0x80
     d60:	009b      	lsls	r3, r3, #2
     d62:	58d2      	ldr	r2, [r2, r3]
     d64:	683b      	ldr	r3, [r7, #0]
     d66:	431a      	orrs	r2, r3
     d68:	0011      	movs	r1, r2
     d6a:	687a      	ldr	r2, [r7, #4]
     d6c:	2380      	movs	r3, #128	; 0x80
     d6e:	009b      	lsls	r3, r3, #2
     d70:	50d1      	str	r1, [r2, r3]
     d72:	46c0      	nop			; (mov r8, r8)
     d74:	46bd      	mov	sp, r7
     d76:	b002      	add	sp, #8
     d78:	bd80      	pop	{r7, pc}
	...

00000d7c <nrf_timer_mode_set>:
     d7c:	b580      	push	{r7, lr}
     d7e:	b082      	sub	sp, #8
     d80:	af00      	add	r7, sp, #0
     d82:	6078      	str	r0, [r7, #4]
     d84:	000a      	movs	r2, r1
     d86:	1cfb      	adds	r3, r7, #3
     d88:	701a      	strb	r2, [r3, #0]
     d8a:	687b      	ldr	r3, [r7, #4]
     d8c:	4a08      	ldr	r2, [pc, #32]	; (db0 <nrf_timer_mode_set+0x34>)
     d8e:	589b      	ldr	r3, [r3, r2]
     d90:	2201      	movs	r2, #1
     d92:	4393      	bics	r3, r2
     d94:	001a      	movs	r2, r3
     d96:	1cfb      	adds	r3, r7, #3
     d98:	781b      	ldrb	r3, [r3, #0]
     d9a:	2101      	movs	r1, #1
     d9c:	400b      	ands	r3, r1
     d9e:	431a      	orrs	r2, r3
     da0:	687b      	ldr	r3, [r7, #4]
     da2:	4903      	ldr	r1, [pc, #12]	; (db0 <nrf_timer_mode_set+0x34>)
     da4:	505a      	str	r2, [r3, r1]
     da6:	46c0      	nop			; (mov r8, r8)
     da8:	46bd      	mov	sp, r7
     daa:	b002      	add	sp, #8
     dac:	bd80      	pop	{r7, pc}
     dae:	46c0      	nop			; (mov r8, r8)
     db0:	00000504 	.word	0x00000504

00000db4 <nrf_timer_bit_width_set>:
     db4:	b580      	push	{r7, lr}
     db6:	b082      	sub	sp, #8
     db8:	af00      	add	r7, sp, #0
     dba:	6078      	str	r0, [r7, #4]
     dbc:	000a      	movs	r2, r1
     dbe:	1cfb      	adds	r3, r7, #3
     dc0:	701a      	strb	r2, [r3, #0]
     dc2:	687a      	ldr	r2, [r7, #4]
     dc4:	23a1      	movs	r3, #161	; 0xa1
     dc6:	00db      	lsls	r3, r3, #3
     dc8:	58d3      	ldr	r3, [r2, r3]
     dca:	2203      	movs	r2, #3
     dcc:	4393      	bics	r3, r2
     dce:	001a      	movs	r2, r3
     dd0:	1cfb      	adds	r3, r7, #3
     dd2:	781b      	ldrb	r3, [r3, #0]
     dd4:	2103      	movs	r1, #3
     dd6:	400b      	ands	r3, r1
     dd8:	431a      	orrs	r2, r3
     dda:	0011      	movs	r1, r2
     ddc:	687a      	ldr	r2, [r7, #4]
     dde:	23a1      	movs	r3, #161	; 0xa1
     de0:	00db      	lsls	r3, r3, #3
     de2:	50d1      	str	r1, [r2, r3]
     de4:	46c0      	nop			; (mov r8, r8)
     de6:	46bd      	mov	sp, r7
     de8:	b002      	add	sp, #8
     dea:	bd80      	pop	{r7, pc}

00000dec <nrf_timer_frequency_set>:
     dec:	b580      	push	{r7, lr}
     dee:	b082      	sub	sp, #8
     df0:	af00      	add	r7, sp, #0
     df2:	6078      	str	r0, [r7, #4]
     df4:	000a      	movs	r2, r1
     df6:	1cfb      	adds	r3, r7, #3
     df8:	701a      	strb	r2, [r3, #0]
     dfa:	687a      	ldr	r2, [r7, #4]
     dfc:	23a2      	movs	r3, #162	; 0xa2
     dfe:	00db      	lsls	r3, r3, #3
     e00:	58d3      	ldr	r3, [r2, r3]
     e02:	220f      	movs	r2, #15
     e04:	4393      	bics	r3, r2
     e06:	001a      	movs	r2, r3
     e08:	1cfb      	adds	r3, r7, #3
     e0a:	781b      	ldrb	r3, [r3, #0]
     e0c:	210f      	movs	r1, #15
     e0e:	400b      	ands	r3, r1
     e10:	431a      	orrs	r2, r3
     e12:	0011      	movs	r1, r2
     e14:	687a      	ldr	r2, [r7, #4]
     e16:	23a2      	movs	r3, #162	; 0xa2
     e18:	00db      	lsls	r3, r3, #3
     e1a:	50d1      	str	r1, [r2, r3]
     e1c:	46c0      	nop			; (mov r8, r8)
     e1e:	46bd      	mov	sp, r7
     e20:	b002      	add	sp, #8
     e22:	bd80      	pop	{r7, pc}

00000e24 <nrf_timer_cc_write>:
     e24:	b580      	push	{r7, lr}
     e26:	b084      	sub	sp, #16
     e28:	af00      	add	r7, sp, #0
     e2a:	60f8      	str	r0, [r7, #12]
     e2c:	607a      	str	r2, [r7, #4]
     e2e:	200b      	movs	r0, #11
     e30:	183b      	adds	r3, r7, r0
     e32:	1c0a      	adds	r2, r1, #0
     e34:	701a      	strb	r2, [r3, #0]
     e36:	183b      	adds	r3, r7, r0
     e38:	781a      	ldrb	r2, [r3, #0]
     e3a:	68fb      	ldr	r3, [r7, #12]
     e3c:	3251      	adds	r2, #81	; 0x51
     e3e:	32ff      	adds	r2, #255	; 0xff
     e40:	0092      	lsls	r2, r2, #2
     e42:	6879      	ldr	r1, [r7, #4]
     e44:	50d1      	str	r1, [r2, r3]
     e46:	46c0      	nop			; (mov r8, r8)
     e48:	46bd      	mov	sp, r7
     e4a:	b004      	add	sp, #16
     e4c:	bd80      	pop	{r7, pc}

00000e4e <nrf_timer_int_enable>:
     e4e:	b580      	push	{r7, lr}
     e50:	b082      	sub	sp, #8
     e52:	af00      	add	r7, sp, #0
     e54:	6078      	str	r0, [r7, #4]
     e56:	6039      	str	r1, [r7, #0]
     e58:	687a      	ldr	r2, [r7, #4]
     e5a:	23c1      	movs	r3, #193	; 0xc1
     e5c:	009b      	lsls	r3, r3, #2
     e5e:	6839      	ldr	r1, [r7, #0]
     e60:	50d1      	str	r1, [r2, r3]
     e62:	46c0      	nop			; (mov r8, r8)
     e64:	46bd      	mov	sp, r7
     e66:	b002      	add	sp, #8
     e68:	bd80      	pop	{r7, pc}
	...

00000e6c <TIMER2_IRQHandler>:
     e6c:	b580      	push	{r7, lr}
     e6e:	af00      	add	r7, sp, #0
     e70:	4a10      	ldr	r2, [pc, #64]	; (eb4 <TIMER2_IRQHandler+0x48>)
     e72:	23a6      	movs	r3, #166	; 0xa6
     e74:	005b      	lsls	r3, r3, #1
     e76:	2100      	movs	r1, #0
     e78:	50d1      	str	r1, [r2, r3]
     e7a:	490e      	ldr	r1, [pc, #56]	; (eb4 <TIMER2_IRQHandler+0x48>)
     e7c:	4b0e      	ldr	r3, [pc, #56]	; (eb8 <TIMER2_IRQHandler+0x4c>)
     e7e:	681a      	ldr	r2, [r3, #0]
     e80:	23a8      	movs	r3, #168	; 0xa8
     e82:	00db      	lsls	r3, r3, #3
     e84:	50ca      	str	r2, [r1, r3]
     e86:	490b      	ldr	r1, [pc, #44]	; (eb4 <TIMER2_IRQHandler+0x48>)
     e88:	4b0b      	ldr	r3, [pc, #44]	; (eb8 <TIMER2_IRQHandler+0x4c>)
     e8a:	685b      	ldr	r3, [r3, #4]
     e8c:	4a0b      	ldr	r2, [pc, #44]	; (ebc <TIMER2_IRQHandler+0x50>)
     e8e:	508b      	str	r3, [r1, r2]
     e90:	4908      	ldr	r1, [pc, #32]	; (eb4 <TIMER2_IRQHandler+0x48>)
     e92:	4b09      	ldr	r3, [pc, #36]	; (eb8 <TIMER2_IRQHandler+0x4c>)
     e94:	689a      	ldr	r2, [r3, #8]
     e96:	23a9      	movs	r3, #169	; 0xa9
     e98:	00db      	lsls	r3, r3, #3
     e9a:	50ca      	str	r2, [r1, r3]
     e9c:	4905      	ldr	r1, [pc, #20]	; (eb4 <TIMER2_IRQHandler+0x48>)
     e9e:	4b08      	ldr	r3, [pc, #32]	; (ec0 <TIMER2_IRQHandler+0x54>)
     ea0:	681b      	ldr	r3, [r3, #0]
     ea2:	4a08      	ldr	r2, [pc, #32]	; (ec4 <TIMER2_IRQHandler+0x58>)
     ea4:	508b      	str	r3, [r1, r2]
     ea6:	4b03      	ldr	r3, [pc, #12]	; (eb4 <TIMER2_IRQHandler+0x48>)
     ea8:	2201      	movs	r2, #1
     eaa:	601a      	str	r2, [r3, #0]
     eac:	46c0      	nop			; (mov r8, r8)
     eae:	46bd      	mov	sp, r7
     eb0:	bd80      	pop	{r7, pc}
     eb2:	46c0      	nop			; (mov r8, r8)
     eb4:	4000a000 	.word	0x4000a000
     eb8:	200000a0 	.word	0x200000a0
     ebc:	00000544 	.word	0x00000544
     ec0:	2000009c 	.word	0x2000009c
     ec4:	0000054c 	.word	0x0000054c

00000ec8 <pwm_init>:
     ec8:	b580      	push	{r7, lr}
     eca:	b082      	sub	sp, #8
     ecc:	af00      	add	r7, sp, #0
     ece:	0002      	movs	r2, r0
     ed0:	1dbb      	adds	r3, r7, #6
     ed2:	801a      	strh	r2, [r3, #0]
     ed4:	4b46      	ldr	r3, [pc, #280]	; (ff0 <pwm_init+0x128>)
     ed6:	2104      	movs	r1, #4
     ed8:	0018      	movs	r0, r3
     eda:	f7ff ff09 	bl	cf0 <nrf_timer_task_trigger>
     ede:	2380      	movs	r3, #128	; 0x80
     ee0:	05db      	lsls	r3, r3, #23
     ee2:	2201      	movs	r2, #1
     ee4:	679a      	str	r2, [r3, #120]	; 0x78
     ee6:	4b43      	ldr	r3, [pc, #268]	; (ff4 <pwm_init+0x12c>)
     ee8:	2200      	movs	r2, #0
     eea:	601a      	str	r2, [r3, #0]
     eec:	2301      	movs	r3, #1
     eee:	4a42      	ldr	r2, [pc, #264]	; (ff8 <pwm_init+0x130>)
     ef0:	6093      	str	r3, [r2, #8]
     ef2:	4a41      	ldr	r2, [pc, #260]	; (ff8 <pwm_init+0x130>)
     ef4:	6053      	str	r3, [r2, #4]
     ef6:	4a40      	ldr	r2, [pc, #256]	; (ff8 <pwm_init+0x130>)
     ef8:	6013      	str	r3, [r2, #0]
     efa:	1dbb      	adds	r3, r7, #6
     efc:	881a      	ldrh	r2, [r3, #0]
     efe:	4b3f      	ldr	r3, [pc, #252]	; (ffc <pwm_init+0x134>)
     f00:	601a      	str	r2, [r3, #0]
     f02:	4b3b      	ldr	r3, [pc, #236]	; (ff0 <pwm_init+0x128>)
     f04:	2100      	movs	r1, #0
     f06:	0018      	movs	r0, r3
     f08:	f7ff ff38 	bl	d7c <nrf_timer_mode_set>
     f0c:	4b38      	ldr	r3, [pc, #224]	; (ff0 <pwm_init+0x128>)
     f0e:	2100      	movs	r1, #0
     f10:	0018      	movs	r0, r3
     f12:	f7ff ff4f 	bl	db4 <nrf_timer_bit_width_set>
     f16:	4b36      	ldr	r3, [pc, #216]	; (ff0 <pwm_init+0x128>)
     f18:	2104      	movs	r1, #4
     f1a:	0018      	movs	r0, r3
     f1c:	f7ff ff66 	bl	dec <nrf_timer_frequency_set>
     f20:	4833      	ldr	r0, [pc, #204]	; (ff0 <pwm_init+0x128>)
     f22:	4b35      	ldr	r3, [pc, #212]	; (ff8 <pwm_init+0x130>)
     f24:	681b      	ldr	r3, [r3, #0]
     f26:	001a      	movs	r2, r3
     f28:	2100      	movs	r1, #0
     f2a:	f7ff ff7b 	bl	e24 <nrf_timer_cc_write>
     f2e:	4830      	ldr	r0, [pc, #192]	; (ff0 <pwm_init+0x128>)
     f30:	4b31      	ldr	r3, [pc, #196]	; (ff8 <pwm_init+0x130>)
     f32:	685b      	ldr	r3, [r3, #4]
     f34:	001a      	movs	r2, r3
     f36:	2101      	movs	r1, #1
     f38:	f7ff ff74 	bl	e24 <nrf_timer_cc_write>
     f3c:	482c      	ldr	r0, [pc, #176]	; (ff0 <pwm_init+0x128>)
     f3e:	4b2e      	ldr	r3, [pc, #184]	; (ff8 <pwm_init+0x130>)
     f40:	689b      	ldr	r3, [r3, #8]
     f42:	001a      	movs	r2, r3
     f44:	2102      	movs	r1, #2
     f46:	f7ff ff6d 	bl	e24 <nrf_timer_cc_write>
     f4a:	4829      	ldr	r0, [pc, #164]	; (ff0 <pwm_init+0x128>)
     f4c:	1dbb      	adds	r3, r7, #6
     f4e:	881b      	ldrh	r3, [r3, #0]
     f50:	001a      	movs	r2, r3
     f52:	2103      	movs	r1, #3
     f54:	f7ff ff66 	bl	e24 <nrf_timer_cc_write>
     f58:	4a25      	ldr	r2, [pc, #148]	; (ff0 <pwm_init+0x128>)
     f5a:	2380      	movs	r3, #128	; 0x80
     f5c:	009b      	lsls	r3, r3, #2
     f5e:	2100      	movs	r1, #0
     f60:	50d1      	str	r1, [r2, r3]
     f62:	4b23      	ldr	r3, [pc, #140]	; (ff0 <pwm_init+0x128>)
     f64:	2108      	movs	r1, #8
     f66:	0018      	movs	r0, r3
     f68:	f7ff fef3 	bl	d52 <nrf_timer_shorts_enable>
     f6c:	4a20      	ldr	r2, [pc, #128]	; (ff0 <pwm_init+0x128>)
     f6e:	2380      	movs	r3, #128	; 0x80
     f70:	011b      	lsls	r3, r3, #4
     f72:	0019      	movs	r1, r3
     f74:	0010      	movs	r0, r2
     f76:	f7ff feec 	bl	d52 <nrf_timer_shorts_enable>
     f7a:	4a1d      	ldr	r2, [pc, #116]	; (ff0 <pwm_init+0x128>)
     f7c:	23a0      	movs	r3, #160	; 0xa0
     f7e:	005b      	lsls	r3, r3, #1
     f80:	0019      	movs	r1, r3
     f82:	0010      	movs	r0, r2
     f84:	f7ff fec5 	bl	d12 <nrf_timer_event_clear>
     f88:	4a19      	ldr	r2, [pc, #100]	; (ff0 <pwm_init+0x128>)
     f8a:	23a2      	movs	r3, #162	; 0xa2
     f8c:	005b      	lsls	r3, r3, #1
     f8e:	0019      	movs	r1, r3
     f90:	0010      	movs	r0, r2
     f92:	f7ff febe 	bl	d12 <nrf_timer_event_clear>
     f96:	4a16      	ldr	r2, [pc, #88]	; (ff0 <pwm_init+0x128>)
     f98:	23a4      	movs	r3, #164	; 0xa4
     f9a:	005b      	lsls	r3, r3, #1
     f9c:	0019      	movs	r1, r3
     f9e:	0010      	movs	r0, r2
     fa0:	f7ff feb7 	bl	d12 <nrf_timer_event_clear>
     fa4:	4a12      	ldr	r2, [pc, #72]	; (ff0 <pwm_init+0x128>)
     fa6:	23a6      	movs	r3, #166	; 0xa6
     fa8:	005b      	lsls	r3, r3, #1
     faa:	0019      	movs	r1, r3
     fac:	0010      	movs	r0, r2
     fae:	f7ff feb0 	bl	d12 <nrf_timer_event_clear>
     fb2:	4b0f      	ldr	r3, [pc, #60]	; (ff0 <pwm_init+0x128>)
     fb4:	210c      	movs	r1, #12
     fb6:	0018      	movs	r0, r3
     fb8:	f7ff fe9a 	bl	cf0 <nrf_timer_task_trigger>
     fbc:	4a0c      	ldr	r2, [pc, #48]	; (ff0 <pwm_init+0x128>)
     fbe:	2380      	movs	r3, #128	; 0x80
     fc0:	031b      	lsls	r3, r3, #12
     fc2:	0019      	movs	r1, r3
     fc4:	0010      	movs	r0, r2
     fc6:	f7ff ff42 	bl	e4e <nrf_timer_int_enable>
     fca:	2101      	movs	r1, #1
     fcc:	200a      	movs	r0, #10
     fce:	f7ff fd29 	bl	a24 <NVIC_SetPriority>
     fd2:	200a      	movs	r0, #10
     fd4:	f7ff fd10 	bl	9f8 <NVIC_EnableIRQ>
     fd8:	4b06      	ldr	r3, [pc, #24]	; (ff4 <pwm_init+0x12c>)
     fda:	2201      	movs	r2, #1
     fdc:	601a      	str	r2, [r3, #0]
     fde:	4b04      	ldr	r3, [pc, #16]	; (ff0 <pwm_init+0x128>)
     fe0:	2100      	movs	r1, #0
     fe2:	0018      	movs	r0, r3
     fe4:	f7ff fe84 	bl	cf0 <nrf_timer_task_trigger>
     fe8:	46c0      	nop			; (mov r8, r8)
     fea:	46bd      	mov	sp, r7
     fec:	b002      	add	sp, #8
     fee:	bd80      	pop	{r7, pc}
     ff0:	4000a000 	.word	0x4000a000
     ff4:	4000ac0c 	.word	0x4000ac0c
     ff8:	200000a0 	.word	0x200000a0
     ffc:	2000009c 	.word	0x2000009c

00001000 <pwm_channel_init>:
    1000:	b5f0      	push	{r4, r5, r6, r7, lr}
    1002:	b085      	sub	sp, #20
    1004:	af00      	add	r7, sp, #0
    1006:	6039      	str	r1, [r7, #0]
    1008:	0011      	movs	r1, r2
    100a:	1dfb      	adds	r3, r7, #7
    100c:	1c02      	adds	r2, r0, #0
    100e:	701a      	strb	r2, [r3, #0]
    1010:	1d3b      	adds	r3, r7, #4
    1012:	1c0a      	adds	r2, r1, #0
    1014:	801a      	strh	r2, [r3, #0]
    1016:	1dfb      	adds	r3, r7, #7
    1018:	781b      	ldrb	r3, [r3, #0]
    101a:	2b02      	cmp	r3, #2
    101c:	d905      	bls.n	102a <pwm_channel_init+0x2a>
    101e:	4b35      	ldr	r3, [pc, #212]	; (10f4 <pwm_channel_init+0xf4>)
    1020:	4a35      	ldr	r2, [pc, #212]	; (10f8 <pwm_channel_init+0xf8>)
    1022:	4836      	ldr	r0, [pc, #216]	; (10fc <pwm_channel_init+0xfc>)
    1024:	2153      	movs	r1, #83	; 0x53
    1026:	f002 f8f9 	bl	321c <__assert_func>
    102a:	1d3b      	adds	r3, r7, #4
    102c:	881a      	ldrh	r2, [r3, #0]
    102e:	1dfb      	adds	r3, r7, #7
    1030:	781b      	ldrb	r3, [r3, #0]
    1032:	0011      	movs	r1, r2
    1034:	0018      	movs	r0, r3
    1036:	f000 f865 	bl	1104 <pwm_set_pulse_width>
    103a:	683b      	ldr	r3, [r7, #0]
    103c:	0018      	movs	r0, r3
    103e:	f7ff fd8f 	bl	b60 <nrf_gpio_cfg_output>
    1042:	1dfb      	adds	r3, r7, #7
    1044:	7818      	ldrb	r0, [r3, #0]
    1046:	6839      	ldr	r1, [r7, #0]
    1048:	2300      	movs	r3, #0
    104a:	2203      	movs	r2, #3
    104c:	f7ff fdd6 	bl	bfc <nrf_gpiote_task_configure>
    1050:	1dfb      	adds	r3, r7, #7
    1052:	781b      	ldrb	r3, [r3, #0]
    1054:	0018      	movs	r0, r3
    1056:	f7ff fda7 	bl	ba8 <nrf_gpiote_task_enable>
    105a:	250f      	movs	r5, #15
    105c:	197a      	adds	r2, r7, r5
    105e:	1dfb      	adds	r3, r7, #7
    1060:	781b      	ldrb	r3, [r3, #0]
    1062:	18db      	adds	r3, r3, r3
    1064:	7013      	strb	r3, [r2, #0]
    1066:	4a26      	ldr	r2, [pc, #152]	; (1100 <pwm_channel_init+0x100>)
    1068:	1dfb      	adds	r3, r7, #7
    106a:	781b      	ldrb	r3, [r3, #0]
    106c:	3350      	adds	r3, #80	; 0x50
    106e:	b29b      	uxth	r3, r3
    1070:	009b      	lsls	r3, r3, #2
    1072:	b29b      	uxth	r3, r3
    1074:	0019      	movs	r1, r3
    1076:	0010      	movs	r0, r2
    1078:	f7ff fe5c 	bl	d34 <nrf_timer_event_address_get>
    107c:	0003      	movs	r3, r0
    107e:	001c      	movs	r4, r3
    1080:	1dfb      	adds	r3, r7, #7
    1082:	781b      	ldrb	r3, [r3, #0]
    1084:	009b      	lsls	r3, r3, #2
    1086:	b2db      	uxtb	r3, r3
    1088:	0018      	movs	r0, r3
    108a:	f7ff fd7b 	bl	b84 <nrf_gpiote_task_addr_get>
    108e:	0002      	movs	r2, r0
    1090:	197b      	adds	r3, r7, r5
    1092:	781b      	ldrb	r3, [r3, #0]
    1094:	0021      	movs	r1, r4
    1096:	0018      	movs	r0, r3
    1098:	f7ff fe0a 	bl	cb0 <nrf_ppi_channel_endpoint_setup>
    109c:	002e      	movs	r6, r5
    109e:	197b      	adds	r3, r7, r5
    10a0:	781b      	ldrb	r3, [r3, #0]
    10a2:	3301      	adds	r3, #1
    10a4:	b2dc      	uxtb	r4, r3
    10a6:	4a16      	ldr	r2, [pc, #88]	; (1100 <pwm_channel_init+0x100>)
    10a8:	23a6      	movs	r3, #166	; 0xa6
    10aa:	005b      	lsls	r3, r3, #1
    10ac:	0019      	movs	r1, r3
    10ae:	0010      	movs	r0, r2
    10b0:	f7ff fe40 	bl	d34 <nrf_timer_event_address_get>
    10b4:	0003      	movs	r3, r0
    10b6:	001d      	movs	r5, r3
    10b8:	1dfb      	adds	r3, r7, #7
    10ba:	781b      	ldrb	r3, [r3, #0]
    10bc:	009b      	lsls	r3, r3, #2
    10be:	b2db      	uxtb	r3, r3
    10c0:	0018      	movs	r0, r3
    10c2:	f7ff fd5f 	bl	b84 <nrf_gpiote_task_addr_get>
    10c6:	0003      	movs	r3, r0
    10c8:	001a      	movs	r2, r3
    10ca:	0029      	movs	r1, r5
    10cc:	0020      	movs	r0, r4
    10ce:	f7ff fdef 	bl	cb0 <nrf_ppi_channel_endpoint_setup>
    10d2:	19bb      	adds	r3, r7, r6
    10d4:	781b      	ldrb	r3, [r3, #0]
    10d6:	0018      	movs	r0, r3
    10d8:	f7ff fdd4 	bl	c84 <nrf_ppi_channel_enable>
    10dc:	19bb      	adds	r3, r7, r6
    10de:	781b      	ldrb	r3, [r3, #0]
    10e0:	3301      	adds	r3, #1
    10e2:	b2db      	uxtb	r3, r3
    10e4:	0018      	movs	r0, r3
    10e6:	f7ff fdcd 	bl	c84 <nrf_ppi_channel_enable>
    10ea:	46c0      	nop			; (mov r8, r8)
    10ec:	46bd      	mov	sp, r7
    10ee:	b005      	add	sp, #20
    10f0:	bdf0      	pop	{r4, r5, r6, r7, pc}
    10f2:	46c0      	nop			; (mov r8, r8)
    10f4:	00005b28 	.word	0x00005b28
    10f8:	00005b50 	.word	0x00005b50
    10fc:	00005b40 	.word	0x00005b40
    1100:	4000a000 	.word	0x4000a000

00001104 <pwm_set_pulse_width>:
    1104:	b580      	push	{r7, lr}
    1106:	b082      	sub	sp, #8
    1108:	af00      	add	r7, sp, #0
    110a:	0002      	movs	r2, r0
    110c:	1dfb      	adds	r3, r7, #7
    110e:	701a      	strb	r2, [r3, #0]
    1110:	1d3b      	adds	r3, r7, #4
    1112:	1c0a      	adds	r2, r1, #0
    1114:	801a      	strh	r2, [r3, #0]
    1116:	1dfb      	adds	r3, r7, #7
    1118:	781b      	ldrb	r3, [r3, #0]
    111a:	2b02      	cmp	r3, #2
    111c:	d905      	bls.n	112a <pwm_set_pulse_width+0x26>
    111e:	4b12      	ldr	r3, [pc, #72]	; (1168 <pwm_set_pulse_width+0x64>)
    1120:	4a12      	ldr	r2, [pc, #72]	; (116c <pwm_set_pulse_width+0x68>)
    1122:	4813      	ldr	r0, [pc, #76]	; (1170 <pwm_set_pulse_width+0x6c>)
    1124:	216c      	movs	r1, #108	; 0x6c
    1126:	f002 f879 	bl	321c <__assert_func>
    112a:	1d3b      	adds	r3, r7, #4
    112c:	881b      	ldrh	r3, [r3, #0]
    112e:	2b00      	cmp	r3, #0
    1130:	d103      	bne.n	113a <pwm_set_pulse_width+0x36>
    1132:	1d3b      	adds	r3, r7, #4
    1134:	2201      	movs	r2, #1
    1136:	801a      	strh	r2, [r3, #0]
    1138:	e00b      	b.n	1152 <pwm_set_pulse_width+0x4e>
    113a:	1d3b      	adds	r3, r7, #4
    113c:	881a      	ldrh	r2, [r3, #0]
    113e:	4b0d      	ldr	r3, [pc, #52]	; (1174 <pwm_set_pulse_width+0x70>)
    1140:	681b      	ldr	r3, [r3, #0]
    1142:	429a      	cmp	r2, r3
    1144:	d305      	bcc.n	1152 <pwm_set_pulse_width+0x4e>
    1146:	4b0b      	ldr	r3, [pc, #44]	; (1174 <pwm_set_pulse_width+0x70>)
    1148:	681b      	ldr	r3, [r3, #0]
    114a:	b29a      	uxth	r2, r3
    114c:	1d3b      	adds	r3, r7, #4
    114e:	3a01      	subs	r2, #1
    1150:	801a      	strh	r2, [r3, #0]
    1152:	1dfb      	adds	r3, r7, #7
    1154:	781a      	ldrb	r2, [r3, #0]
    1156:	1d3b      	adds	r3, r7, #4
    1158:	8819      	ldrh	r1, [r3, #0]
    115a:	4b07      	ldr	r3, [pc, #28]	; (1178 <pwm_set_pulse_width+0x74>)
    115c:	0092      	lsls	r2, r2, #2
    115e:	50d1      	str	r1, [r2, r3]
    1160:	46c0      	nop			; (mov r8, r8)
    1162:	46bd      	mov	sp, r7
    1164:	b002      	add	sp, #8
    1166:	bd80      	pop	{r7, pc}
    1168:	00005b28 	.word	0x00005b28
    116c:	00005b64 	.word	0x00005b64
    1170:	00005b40 	.word	0x00005b40
    1174:	2000009c 	.word	0x2000009c
    1178:	200000a0 	.word	0x200000a0

0000117c <nrf_gpio_cfg>:
    117c:	b590      	push	{r4, r7, lr}
    117e:	b083      	sub	sp, #12
    1180:	af00      	add	r7, sp, #0
    1182:	6078      	str	r0, [r7, #4]
    1184:	000c      	movs	r4, r1
    1186:	0010      	movs	r0, r2
    1188:	0019      	movs	r1, r3
    118a:	1cfb      	adds	r3, r7, #3
    118c:	1c22      	adds	r2, r4, #0
    118e:	701a      	strb	r2, [r3, #0]
    1190:	1cbb      	adds	r3, r7, #2
    1192:	1c02      	adds	r2, r0, #0
    1194:	701a      	strb	r2, [r3, #0]
    1196:	1c7b      	adds	r3, r7, #1
    1198:	1c0a      	adds	r2, r1, #0
    119a:	701a      	strb	r2, [r3, #0]
    119c:	1cfb      	adds	r3, r7, #3
    119e:	781a      	ldrb	r2, [r3, #0]
    11a0:	1cbb      	adds	r3, r7, #2
    11a2:	781b      	ldrb	r3, [r3, #0]
    11a4:	005b      	lsls	r3, r3, #1
    11a6:	431a      	orrs	r2, r3
    11a8:	1c7b      	adds	r3, r7, #1
    11aa:	781b      	ldrb	r3, [r3, #0]
    11ac:	009b      	lsls	r3, r3, #2
    11ae:	431a      	orrs	r2, r3
    11b0:	2318      	movs	r3, #24
    11b2:	18fb      	adds	r3, r7, r3
    11b4:	781b      	ldrb	r3, [r3, #0]
    11b6:	021b      	lsls	r3, r3, #8
    11b8:	431a      	orrs	r2, r3
    11ba:	0011      	movs	r1, r2
    11bc:	231c      	movs	r3, #28
    11be:	18fb      	adds	r3, r7, r3
    11c0:	781b      	ldrb	r3, [r3, #0]
    11c2:	041a      	lsls	r2, r3, #16
    11c4:	23a0      	movs	r3, #160	; 0xa0
    11c6:	05db      	lsls	r3, r3, #23
    11c8:	4311      	orrs	r1, r2
    11ca:	687a      	ldr	r2, [r7, #4]
    11cc:	32c1      	adds	r2, #193	; 0xc1
    11ce:	32ff      	adds	r2, #255	; 0xff
    11d0:	0092      	lsls	r2, r2, #2
    11d2:	50d1      	str	r1, [r2, r3]
    11d4:	46c0      	nop			; (mov r8, r8)
    11d6:	46bd      	mov	sp, r7
    11d8:	b003      	add	sp, #12
    11da:	bd90      	pop	{r4, r7, pc}

000011dc <nrf_gpio_cfg_output>:
    11dc:	b580      	push	{r7, lr}
    11de:	b084      	sub	sp, #16
    11e0:	af02      	add	r7, sp, #8
    11e2:	6078      	str	r0, [r7, #4]
    11e4:	6878      	ldr	r0, [r7, #4]
    11e6:	2300      	movs	r3, #0
    11e8:	9301      	str	r3, [sp, #4]
    11ea:	2300      	movs	r3, #0
    11ec:	9300      	str	r3, [sp, #0]
    11ee:	2300      	movs	r3, #0
    11f0:	2201      	movs	r2, #1
    11f2:	2101      	movs	r1, #1
    11f4:	f7ff ffc2 	bl	117c <nrf_gpio_cfg>
    11f8:	46c0      	nop			; (mov r8, r8)
    11fa:	46bd      	mov	sp, r7
    11fc:	b002      	add	sp, #8
    11fe:	bd80      	pop	{r7, pc}

00001200 <nrf_gpio_cfg_input>:
    1200:	b580      	push	{r7, lr}
    1202:	b084      	sub	sp, #16
    1204:	af02      	add	r7, sp, #8
    1206:	6078      	str	r0, [r7, #4]
    1208:	000a      	movs	r2, r1
    120a:	1cfb      	adds	r3, r7, #3
    120c:	701a      	strb	r2, [r3, #0]
    120e:	1cfb      	adds	r3, r7, #3
    1210:	781b      	ldrb	r3, [r3, #0]
    1212:	6878      	ldr	r0, [r7, #4]
    1214:	2200      	movs	r2, #0
    1216:	9201      	str	r2, [sp, #4]
    1218:	2200      	movs	r2, #0
    121a:	9200      	str	r2, [sp, #0]
    121c:	2200      	movs	r2, #0
    121e:	2100      	movs	r1, #0
    1220:	f7ff ffac 	bl	117c <nrf_gpio_cfg>
    1224:	46c0      	nop			; (mov r8, r8)
    1226:	46bd      	mov	sp, r7
    1228:	b002      	add	sp, #8
    122a:	bd80      	pop	{r7, pc}

0000122c <nrf_uart_event_clear>:
    122c:	b580      	push	{r7, lr}
    122e:	b082      	sub	sp, #8
    1230:	af00      	add	r7, sp, #0
    1232:	6078      	str	r0, [r7, #4]
    1234:	000a      	movs	r2, r1
    1236:	1cbb      	adds	r3, r7, #2
    1238:	801a      	strh	r2, [r3, #0]
    123a:	1cbb      	adds	r3, r7, #2
    123c:	881b      	ldrh	r3, [r3, #0]
    123e:	687a      	ldr	r2, [r7, #4]
    1240:	18d3      	adds	r3, r2, r3
    1242:	2200      	movs	r2, #0
    1244:	601a      	str	r2, [r3, #0]
    1246:	46c0      	nop			; (mov r8, r8)
    1248:	46bd      	mov	sp, r7
    124a:	b002      	add	sp, #8
    124c:	bd80      	pop	{r7, pc}

0000124e <nrf_uart_event_check>:
    124e:	b580      	push	{r7, lr}
    1250:	b082      	sub	sp, #8
    1252:	af00      	add	r7, sp, #0
    1254:	6078      	str	r0, [r7, #4]
    1256:	000a      	movs	r2, r1
    1258:	1cbb      	adds	r3, r7, #2
    125a:	801a      	strh	r2, [r3, #0]
    125c:	1cbb      	adds	r3, r7, #2
    125e:	881b      	ldrh	r3, [r3, #0]
    1260:	687a      	ldr	r2, [r7, #4]
    1262:	18d3      	adds	r3, r2, r3
    1264:	681b      	ldr	r3, [r3, #0]
    1266:	1e5a      	subs	r2, r3, #1
    1268:	4193      	sbcs	r3, r2
    126a:	b2db      	uxtb	r3, r3
    126c:	0018      	movs	r0, r3
    126e:	46bd      	mov	sp, r7
    1270:	b002      	add	sp, #8
    1272:	bd80      	pop	{r7, pc}

00001274 <nrf_uart_enable>:
    1274:	b580      	push	{r7, lr}
    1276:	b082      	sub	sp, #8
    1278:	af00      	add	r7, sp, #0
    127a:	6078      	str	r0, [r7, #4]
    127c:	687a      	ldr	r2, [r7, #4]
    127e:	23a0      	movs	r3, #160	; 0xa0
    1280:	00db      	lsls	r3, r3, #3
    1282:	2104      	movs	r1, #4
    1284:	50d1      	str	r1, [r2, r3]
    1286:	46c0      	nop			; (mov r8, r8)
    1288:	46bd      	mov	sp, r7
    128a:	b002      	add	sp, #8
    128c:	bd80      	pop	{r7, pc}
	...

00001290 <nrf_uart_txrx_pins_set>:
    1290:	b580      	push	{r7, lr}
    1292:	b084      	sub	sp, #16
    1294:	af00      	add	r7, sp, #0
    1296:	60f8      	str	r0, [r7, #12]
    1298:	60b9      	str	r1, [r7, #8]
    129a:	607a      	str	r2, [r7, #4]
    129c:	68fb      	ldr	r3, [r7, #12]
    129e:	4905      	ldr	r1, [pc, #20]	; (12b4 <nrf_uart_txrx_pins_set+0x24>)
    12a0:	68ba      	ldr	r2, [r7, #8]
    12a2:	505a      	str	r2, [r3, r1]
    12a4:	68fb      	ldr	r3, [r7, #12]
    12a6:	4904      	ldr	r1, [pc, #16]	; (12b8 <nrf_uart_txrx_pins_set+0x28>)
    12a8:	687a      	ldr	r2, [r7, #4]
    12aa:	505a      	str	r2, [r3, r1]
    12ac:	46c0      	nop			; (mov r8, r8)
    12ae:	46bd      	mov	sp, r7
    12b0:	b004      	add	sp, #16
    12b2:	bd80      	pop	{r7, pc}
    12b4:	0000050c 	.word	0x0000050c
    12b8:	00000514 	.word	0x00000514

000012bc <nrf_uart_rxd_get>:
    12bc:	b580      	push	{r7, lr}
    12be:	b082      	sub	sp, #8
    12c0:	af00      	add	r7, sp, #0
    12c2:	6078      	str	r0, [r7, #4]
    12c4:	687a      	ldr	r2, [r7, #4]
    12c6:	23a3      	movs	r3, #163	; 0xa3
    12c8:	00db      	lsls	r3, r3, #3
    12ca:	58d3      	ldr	r3, [r2, r3]
    12cc:	b2db      	uxtb	r3, r3
    12ce:	0018      	movs	r0, r3
    12d0:	46bd      	mov	sp, r7
    12d2:	b002      	add	sp, #8
    12d4:	bd80      	pop	{r7, pc}
	...

000012d8 <nrf_uart_txd_set>:
    12d8:	b580      	push	{r7, lr}
    12da:	b082      	sub	sp, #8
    12dc:	af00      	add	r7, sp, #0
    12de:	6078      	str	r0, [r7, #4]
    12e0:	000a      	movs	r2, r1
    12e2:	1cfb      	adds	r3, r7, #3
    12e4:	701a      	strb	r2, [r3, #0]
    12e6:	1cfb      	adds	r3, r7, #3
    12e8:	781a      	ldrb	r2, [r3, #0]
    12ea:	687b      	ldr	r3, [r7, #4]
    12ec:	4902      	ldr	r1, [pc, #8]	; (12f8 <nrf_uart_txd_set+0x20>)
    12ee:	505a      	str	r2, [r3, r1]
    12f0:	46c0      	nop			; (mov r8, r8)
    12f2:	46bd      	mov	sp, r7
    12f4:	b002      	add	sp, #8
    12f6:	bd80      	pop	{r7, pc}
    12f8:	0000051c 	.word	0x0000051c

000012fc <nrf_uart_task_trigger>:
    12fc:	b580      	push	{r7, lr}
    12fe:	b082      	sub	sp, #8
    1300:	af00      	add	r7, sp, #0
    1302:	6078      	str	r0, [r7, #4]
    1304:	000a      	movs	r2, r1
    1306:	1cfb      	adds	r3, r7, #3
    1308:	701a      	strb	r2, [r3, #0]
    130a:	1cfb      	adds	r3, r7, #3
    130c:	781b      	ldrb	r3, [r3, #0]
    130e:	687a      	ldr	r2, [r7, #4]
    1310:	18d3      	adds	r3, r2, r3
    1312:	2201      	movs	r2, #1
    1314:	601a      	str	r2, [r3, #0]
    1316:	46c0      	nop			; (mov r8, r8)
    1318:	46bd      	mov	sp, r7
    131a:	b002      	add	sp, #8
    131c:	bd80      	pop	{r7, pc}
	...

00001320 <nrf_uart_configure>:
    1320:	b580      	push	{r7, lr}
    1322:	b082      	sub	sp, #8
    1324:	af00      	add	r7, sp, #0
    1326:	6078      	str	r0, [r7, #4]
    1328:	0008      	movs	r0, r1
    132a:	0011      	movs	r1, r2
    132c:	1cfb      	adds	r3, r7, #3
    132e:	1c02      	adds	r2, r0, #0
    1330:	701a      	strb	r2, [r3, #0]
    1332:	1cbb      	adds	r3, r7, #2
    1334:	1c0a      	adds	r2, r1, #0
    1336:	701a      	strb	r2, [r3, #0]
    1338:	1cfa      	adds	r2, r7, #3
    133a:	1cbb      	adds	r3, r7, #2
    133c:	7812      	ldrb	r2, [r2, #0]
    133e:	781b      	ldrb	r3, [r3, #0]
    1340:	4313      	orrs	r3, r2
    1342:	b2db      	uxtb	r3, r3
    1344:	0019      	movs	r1, r3
    1346:	687b      	ldr	r3, [r7, #4]
    1348:	4a02      	ldr	r2, [pc, #8]	; (1354 <nrf_uart_configure+0x34>)
    134a:	5099      	str	r1, [r3, r2]
    134c:	46c0      	nop			; (mov r8, r8)
    134e:	46bd      	mov	sp, r7
    1350:	b002      	add	sp, #8
    1352:	bd80      	pop	{r7, pc}
    1354:	0000056c 	.word	0x0000056c

00001358 <nrf_uart_baudrate_set>:
    1358:	b580      	push	{r7, lr}
    135a:	b082      	sub	sp, #8
    135c:	af00      	add	r7, sp, #0
    135e:	6078      	str	r0, [r7, #4]
    1360:	6039      	str	r1, [r7, #0]
    1362:	687b      	ldr	r3, [r7, #4]
    1364:	4903      	ldr	r1, [pc, #12]	; (1374 <nrf_uart_baudrate_set+0x1c>)
    1366:	683a      	ldr	r2, [r7, #0]
    1368:	505a      	str	r2, [r3, r1]
    136a:	46c0      	nop			; (mov r8, r8)
    136c:	46bd      	mov	sp, r7
    136e:	b002      	add	sp, #8
    1370:	bd80      	pop	{r7, pc}
    1372:	46c0      	nop			; (mov r8, r8)
    1374:	00000524 	.word	0x00000524

00001378 <uart_init>:
    1378:	b580      	push	{r7, lr}
    137a:	af00      	add	r7, sp, #0
    137c:	4a0f      	ldr	r2, [pc, #60]	; (13bc <uart_init+0x44>)
    137e:	4b10      	ldr	r3, [pc, #64]	; (13c0 <uart_init+0x48>)
    1380:	0011      	movs	r1, r2
    1382:	0018      	movs	r0, r3
    1384:	f7ff ffe8 	bl	1358 <nrf_uart_baudrate_set>
    1388:	4b0d      	ldr	r3, [pc, #52]	; (13c0 <uart_init+0x48>)
    138a:	2200      	movs	r2, #0
    138c:	2100      	movs	r1, #0
    138e:	0018      	movs	r0, r3
    1390:	f7ff ffc6 	bl	1320 <nrf_uart_configure>
    1394:	4b0a      	ldr	r3, [pc, #40]	; (13c0 <uart_init+0x48>)
    1396:	2219      	movs	r2, #25
    1398:	2118      	movs	r1, #24
    139a:	0018      	movs	r0, r3
    139c:	f7ff ff78 	bl	1290 <nrf_uart_txrx_pins_set>
    13a0:	4b07      	ldr	r3, [pc, #28]	; (13c0 <uart_init+0x48>)
    13a2:	0018      	movs	r0, r3
    13a4:	f7ff ff66 	bl	1274 <nrf_uart_enable>
    13a8:	2018      	movs	r0, #24
    13aa:	f7ff ff17 	bl	11dc <nrf_gpio_cfg_output>
    13ae:	2100      	movs	r1, #0
    13b0:	2019      	movs	r0, #25
    13b2:	f7ff ff25 	bl	1200 <nrf_gpio_cfg_input>
    13b6:	46c0      	nop			; (mov r8, r8)
    13b8:	46bd      	mov	sp, r7
    13ba:	bd80      	pop	{r7, pc}
    13bc:	00275000 	.word	0x00275000
    13c0:	40002000 	.word	0x40002000

000013c4 <uart_tx_byte>:
    13c4:	b580      	push	{r7, lr}
    13c6:	b082      	sub	sp, #8
    13c8:	af00      	add	r7, sp, #0
    13ca:	0002      	movs	r2, r0
    13cc:	1dfb      	adds	r3, r7, #7
    13ce:	701a      	strb	r2, [r3, #0]
    13d0:	238e      	movs	r3, #142	; 0x8e
    13d2:	005b      	lsls	r3, r3, #1
    13d4:	4a12      	ldr	r2, [pc, #72]	; (1420 <uart_tx_byte+0x5c>)
    13d6:	0019      	movs	r1, r3
    13d8:	0010      	movs	r0, r2
    13da:	f7ff ff27 	bl	122c <nrf_uart_event_clear>
    13de:	4b10      	ldr	r3, [pc, #64]	; (1420 <uart_tx_byte+0x5c>)
    13e0:	2108      	movs	r1, #8
    13e2:	0018      	movs	r0, r3
    13e4:	f7ff ff8a 	bl	12fc <nrf_uart_task_trigger>
    13e8:	1dfb      	adds	r3, r7, #7
    13ea:	781b      	ldrb	r3, [r3, #0]
    13ec:	4a0c      	ldr	r2, [pc, #48]	; (1420 <uart_tx_byte+0x5c>)
    13ee:	0019      	movs	r1, r3
    13f0:	0010      	movs	r0, r2
    13f2:	f7ff ff71 	bl	12d8 <nrf_uart_txd_set>
    13f6:	46c0      	nop			; (mov r8, r8)
    13f8:	238e      	movs	r3, #142	; 0x8e
    13fa:	005b      	lsls	r3, r3, #1
    13fc:	4a08      	ldr	r2, [pc, #32]	; (1420 <uart_tx_byte+0x5c>)
    13fe:	0019      	movs	r1, r3
    1400:	0010      	movs	r0, r2
    1402:	f7ff ff24 	bl	124e <nrf_uart_event_check>
    1406:	0003      	movs	r3, r0
    1408:	001a      	movs	r2, r3
    140a:	2301      	movs	r3, #1
    140c:	4053      	eors	r3, r2
    140e:	b2db      	uxtb	r3, r3
    1410:	2b00      	cmp	r3, #0
    1412:	d1f1      	bne.n	13f8 <uart_tx_byte+0x34>
    1414:	46c0      	nop			; (mov r8, r8)
    1416:	46c0      	nop			; (mov r8, r8)
    1418:	46bd      	mov	sp, r7
    141a:	b002      	add	sp, #8
    141c:	bd80      	pop	{r7, pc}
    141e:	46c0      	nop			; (mov r8, r8)
    1420:	40002000 	.word	0x40002000

00001424 <uart_rx_byte>:
    1424:	b580      	push	{r7, lr}
    1426:	af00      	add	r7, sp, #0
    1428:	2384      	movs	r3, #132	; 0x84
    142a:	005b      	lsls	r3, r3, #1
    142c:	4a10      	ldr	r2, [pc, #64]	; (1470 <uart_rx_byte+0x4c>)
    142e:	0019      	movs	r1, r3
    1430:	0010      	movs	r0, r2
    1432:	f7ff fefb 	bl	122c <nrf_uart_event_clear>
    1436:	4b0e      	ldr	r3, [pc, #56]	; (1470 <uart_rx_byte+0x4c>)
    1438:	2100      	movs	r1, #0
    143a:	0018      	movs	r0, r3
    143c:	f7ff ff5e 	bl	12fc <nrf_uart_task_trigger>
    1440:	46c0      	nop			; (mov r8, r8)
    1442:	2384      	movs	r3, #132	; 0x84
    1444:	005b      	lsls	r3, r3, #1
    1446:	4a0a      	ldr	r2, [pc, #40]	; (1470 <uart_rx_byte+0x4c>)
    1448:	0019      	movs	r1, r3
    144a:	0010      	movs	r0, r2
    144c:	f7ff feff 	bl	124e <nrf_uart_event_check>
    1450:	0003      	movs	r3, r0
    1452:	001a      	movs	r2, r3
    1454:	2301      	movs	r3, #1
    1456:	4053      	eors	r3, r2
    1458:	b2db      	uxtb	r3, r3
    145a:	2b00      	cmp	r3, #0
    145c:	d1f1      	bne.n	1442 <uart_rx_byte+0x1e>
    145e:	4b04      	ldr	r3, [pc, #16]	; (1470 <uart_rx_byte+0x4c>)
    1460:	0018      	movs	r0, r3
    1462:	f7ff ff2b 	bl	12bc <nrf_uart_rxd_get>
    1466:	0003      	movs	r3, r0
    1468:	0018      	movs	r0, r3
    146a:	46bd      	mov	sp, r7
    146c:	bd80      	pop	{r7, pc}
    146e:	46c0      	nop			; (mov r8, r8)
    1470:	40002000 	.word	0x40002000

00001474 <adc_init>:
    1474:	b580      	push	{r7, lr}
    1476:	b082      	sub	sp, #8
    1478:	af00      	add	r7, sp, #0
    147a:	003b      	movs	r3, r7
    147c:	4a05      	ldr	r2, [pc, #20]	; (1494 <adc_init+0x20>)
    147e:	ca03      	ldmia	r2!, {r0, r1}
    1480:	c303      	stmia	r3!, {r0, r1}
    1482:	003b      	movs	r3, r7
    1484:	0018      	movs	r0, r3
    1486:	f001 fe39 	bl	30fc <nrf_adc_configure>
    148a:	46c0      	nop			; (mov r8, r8)
    148c:	46bd      	mov	sp, r7
    148e:	b002      	add	sp, #8
    1490:	bd80      	pop	{r7, pc}
    1492:	46c0      	nop			; (mov r8, r8)
    1494:	00005b78 	.word	0x00005b78

00001498 <adc_get_value>:
    1498:	b580      	push	{r7, lr}
    149a:	b082      	sub	sp, #8
    149c:	af00      	add	r7, sp, #0
    149e:	0002      	movs	r2, r0
    14a0:	1dfb      	adds	r3, r7, #7
    14a2:	701a      	strb	r2, [r3, #0]
    14a4:	1dfb      	adds	r3, r7, #7
    14a6:	781b      	ldrb	r3, [r3, #0]
    14a8:	2b01      	cmp	r3, #1
    14aa:	d903      	bls.n	14b4 <adc_get_value+0x1c>
    14ac:	1dfb      	adds	r3, r7, #7
    14ae:	781b      	ldrb	r3, [r3, #0]
    14b0:	2b07      	cmp	r3, #7
    14b2:	d905      	bls.n	14c0 <adc_get_value+0x28>
    14b4:	4b08      	ldr	r3, [pc, #32]	; (14d8 <adc_get_value+0x40>)
    14b6:	4a09      	ldr	r2, [pc, #36]	; (14dc <adc_get_value+0x44>)
    14b8:	4809      	ldr	r0, [pc, #36]	; (14e0 <adc_get_value+0x48>)
    14ba:	2121      	movs	r1, #33	; 0x21
    14bc:	f001 feae 	bl	321c <__assert_func>
    14c0:	1dfb      	adds	r3, r7, #7
    14c2:	781b      	ldrb	r3, [r3, #0]
    14c4:	4a07      	ldr	r2, [pc, #28]	; (14e4 <adc_get_value+0x4c>)
    14c6:	5cd3      	ldrb	r3, [r2, r3]
    14c8:	0018      	movs	r0, r3
    14ca:	f001 fe59 	bl	3180 <nrf_adc_convert_single>
    14ce:	0003      	movs	r3, r0
    14d0:	0018      	movs	r0, r3
    14d2:	46bd      	mov	sp, r7
    14d4:	b002      	add	sp, #8
    14d6:	bd80      	pop	{r7, pc}
    14d8:	00005b80 	.word	0x00005b80
    14dc:	00005bd4 	.word	0x00005bd4
    14e0:	00005bc4 	.word	0x00005bc4
    14e4:	00005be4 	.word	0x00005be4

000014e8 <nrf_gpio_cfg>:
    14e8:	b590      	push	{r4, r7, lr}
    14ea:	b083      	sub	sp, #12
    14ec:	af00      	add	r7, sp, #0
    14ee:	6078      	str	r0, [r7, #4]
    14f0:	000c      	movs	r4, r1
    14f2:	0010      	movs	r0, r2
    14f4:	0019      	movs	r1, r3
    14f6:	1cfb      	adds	r3, r7, #3
    14f8:	1c22      	adds	r2, r4, #0
    14fa:	701a      	strb	r2, [r3, #0]
    14fc:	1cbb      	adds	r3, r7, #2
    14fe:	1c02      	adds	r2, r0, #0
    1500:	701a      	strb	r2, [r3, #0]
    1502:	1c7b      	adds	r3, r7, #1
    1504:	1c0a      	adds	r2, r1, #0
    1506:	701a      	strb	r2, [r3, #0]
    1508:	1cfb      	adds	r3, r7, #3
    150a:	781a      	ldrb	r2, [r3, #0]
    150c:	1cbb      	adds	r3, r7, #2
    150e:	781b      	ldrb	r3, [r3, #0]
    1510:	005b      	lsls	r3, r3, #1
    1512:	431a      	orrs	r2, r3
    1514:	1c7b      	adds	r3, r7, #1
    1516:	781b      	ldrb	r3, [r3, #0]
    1518:	009b      	lsls	r3, r3, #2
    151a:	431a      	orrs	r2, r3
    151c:	2318      	movs	r3, #24
    151e:	18fb      	adds	r3, r7, r3
    1520:	781b      	ldrb	r3, [r3, #0]
    1522:	021b      	lsls	r3, r3, #8
    1524:	431a      	orrs	r2, r3
    1526:	0011      	movs	r1, r2
    1528:	231c      	movs	r3, #28
    152a:	18fb      	adds	r3, r7, r3
    152c:	781b      	ldrb	r3, [r3, #0]
    152e:	041a      	lsls	r2, r3, #16
    1530:	23a0      	movs	r3, #160	; 0xa0
    1532:	05db      	lsls	r3, r3, #23
    1534:	4311      	orrs	r1, r2
    1536:	687a      	ldr	r2, [r7, #4]
    1538:	32c1      	adds	r2, #193	; 0xc1
    153a:	32ff      	adds	r2, #255	; 0xff
    153c:	0092      	lsls	r2, r2, #2
    153e:	50d1      	str	r1, [r2, r3]
    1540:	46c0      	nop			; (mov r8, r8)
    1542:	46bd      	mov	sp, r7
    1544:	b003      	add	sp, #12
    1546:	bd90      	pop	{r4, r7, pc}

00001548 <nrf_gpio_cfg_input>:
    1548:	b580      	push	{r7, lr}
    154a:	b084      	sub	sp, #16
    154c:	af02      	add	r7, sp, #8
    154e:	6078      	str	r0, [r7, #4]
    1550:	000a      	movs	r2, r1
    1552:	1cfb      	adds	r3, r7, #3
    1554:	701a      	strb	r2, [r3, #0]
    1556:	1cfb      	adds	r3, r7, #3
    1558:	781b      	ldrb	r3, [r3, #0]
    155a:	6878      	ldr	r0, [r7, #4]
    155c:	2200      	movs	r2, #0
    155e:	9201      	str	r2, [sp, #4]
    1560:	2200      	movs	r2, #0
    1562:	9200      	str	r2, [sp, #0]
    1564:	2200      	movs	r2, #0
    1566:	2100      	movs	r1, #0
    1568:	f7ff ffbe 	bl	14e8 <nrf_gpio_cfg>
    156c:	46c0      	nop			; (mov r8, r8)
    156e:	46bd      	mov	sp, r7
    1570:	b002      	add	sp, #8
    1572:	bd80      	pop	{r7, pc}

00001574 <nrf_gpio_pin_read>:
    1574:	b580      	push	{r7, lr}
    1576:	b082      	sub	sp, #8
    1578:	af00      	add	r7, sp, #0
    157a:	6078      	str	r0, [r7, #4]
    157c:	23a0      	movs	r3, #160	; 0xa0
    157e:	05da      	lsls	r2, r3, #23
    1580:	23a2      	movs	r3, #162	; 0xa2
    1582:	00db      	lsls	r3, r3, #3
    1584:	58d2      	ldr	r2, [r2, r3]
    1586:	687b      	ldr	r3, [r7, #4]
    1588:	40da      	lsrs	r2, r3
    158a:	0013      	movs	r3, r2
    158c:	2201      	movs	r2, #1
    158e:	4013      	ands	r3, r2
    1590:	0018      	movs	r0, r3
    1592:	46bd      	mov	sp, r7
    1594:	b002      	add	sp, #8
    1596:	bd80      	pop	{r7, pc}

00001598 <button_init>:
    1598:	b580      	push	{r7, lr}
    159a:	af00      	add	r7, sp, #0
    159c:	2100      	movs	r1, #0
    159e:	2011      	movs	r0, #17
    15a0:	f7ff ffd2 	bl	1548 <nrf_gpio_cfg_input>
    15a4:	2100      	movs	r1, #0
    15a6:	201a      	movs	r0, #26
    15a8:	f7ff ffce 	bl	1548 <nrf_gpio_cfg_input>
    15ac:	46c0      	nop			; (mov r8, r8)
    15ae:	46bd      	mov	sp, r7
    15b0:	bd80      	pop	{r7, pc}
	...

000015b4 <button_get_state>:
    15b4:	b580      	push	{r7, lr}
    15b6:	b084      	sub	sp, #16
    15b8:	af00      	add	r7, sp, #0
    15ba:	0002      	movs	r2, r0
    15bc:	1dfb      	adds	r3, r7, #7
    15be:	701a      	strb	r2, [r3, #0]
    15c0:	2300      	movs	r3, #0
    15c2:	60fb      	str	r3, [r7, #12]
    15c4:	1dfb      	adds	r3, r7, #7
    15c6:	781b      	ldrb	r3, [r3, #0]
    15c8:	2b00      	cmp	r3, #0
    15ca:	d009      	beq.n	15e0 <button_get_state+0x2c>
    15cc:	1dfb      	adds	r3, r7, #7
    15ce:	781b      	ldrb	r3, [r3, #0]
    15d0:	2b01      	cmp	r3, #1
    15d2:	d005      	beq.n	15e0 <button_get_state+0x2c>
    15d4:	4b0c      	ldr	r3, [pc, #48]	; (1608 <button_get_state+0x54>)
    15d6:	4a0d      	ldr	r2, [pc, #52]	; (160c <button_get_state+0x58>)
    15d8:	480d      	ldr	r0, [pc, #52]	; (1610 <button_get_state+0x5c>)
    15da:	2118      	movs	r1, #24
    15dc:	f001 fe1e 	bl	321c <__assert_func>
    15e0:	1dfb      	adds	r3, r7, #7
    15e2:	781b      	ldrb	r3, [r3, #0]
    15e4:	2b00      	cmp	r3, #0
    15e6:	d101      	bne.n	15ec <button_get_state+0x38>
    15e8:	2311      	movs	r3, #17
    15ea:	e000      	b.n	15ee <button_get_state+0x3a>
    15ec:	231a      	movs	r3, #26
    15ee:	60fb      	str	r3, [r7, #12]
    15f0:	68fb      	ldr	r3, [r7, #12]
    15f2:	0018      	movs	r0, r3
    15f4:	f7ff ffbe 	bl	1574 <nrf_gpio_pin_read>
    15f8:	0003      	movs	r3, r0
    15fa:	425a      	negs	r2, r3
    15fc:	4153      	adcs	r3, r2
    15fe:	b2db      	uxtb	r3, r3
    1600:	0018      	movs	r0, r3
    1602:	46bd      	mov	sp, r7
    1604:	b004      	add	sp, #16
    1606:	bd80      	pop	{r7, pc}
    1608:	00005bec 	.word	0x00005bec
    160c:	00005c2c 	.word	0x00005c2c
    1610:	00005c18 	.word	0x00005c18

00001614 <nrf_gpio_cfg>:
    1614:	b590      	push	{r4, r7, lr}
    1616:	b083      	sub	sp, #12
    1618:	af00      	add	r7, sp, #0
    161a:	6078      	str	r0, [r7, #4]
    161c:	000c      	movs	r4, r1
    161e:	0010      	movs	r0, r2
    1620:	0019      	movs	r1, r3
    1622:	1cfb      	adds	r3, r7, #3
    1624:	1c22      	adds	r2, r4, #0
    1626:	701a      	strb	r2, [r3, #0]
    1628:	1cbb      	adds	r3, r7, #2
    162a:	1c02      	adds	r2, r0, #0
    162c:	701a      	strb	r2, [r3, #0]
    162e:	1c7b      	adds	r3, r7, #1
    1630:	1c0a      	adds	r2, r1, #0
    1632:	701a      	strb	r2, [r3, #0]
    1634:	1cfb      	adds	r3, r7, #3
    1636:	781a      	ldrb	r2, [r3, #0]
    1638:	1cbb      	adds	r3, r7, #2
    163a:	781b      	ldrb	r3, [r3, #0]
    163c:	005b      	lsls	r3, r3, #1
    163e:	431a      	orrs	r2, r3
    1640:	1c7b      	adds	r3, r7, #1
    1642:	781b      	ldrb	r3, [r3, #0]
    1644:	009b      	lsls	r3, r3, #2
    1646:	431a      	orrs	r2, r3
    1648:	2318      	movs	r3, #24
    164a:	18fb      	adds	r3, r7, r3
    164c:	781b      	ldrb	r3, [r3, #0]
    164e:	021b      	lsls	r3, r3, #8
    1650:	431a      	orrs	r2, r3
    1652:	0011      	movs	r1, r2
    1654:	231c      	movs	r3, #28
    1656:	18fb      	adds	r3, r7, r3
    1658:	781b      	ldrb	r3, [r3, #0]
    165a:	041a      	lsls	r2, r3, #16
    165c:	23a0      	movs	r3, #160	; 0xa0
    165e:	05db      	lsls	r3, r3, #23
    1660:	4311      	orrs	r1, r2
    1662:	687a      	ldr	r2, [r7, #4]
    1664:	32c1      	adds	r2, #193	; 0xc1
    1666:	32ff      	adds	r2, #255	; 0xff
    1668:	0092      	lsls	r2, r2, #2
    166a:	50d1      	str	r1, [r2, r3]
    166c:	46c0      	nop			; (mov r8, r8)
    166e:	46bd      	mov	sp, r7
    1670:	b003      	add	sp, #12
    1672:	bd90      	pop	{r4, r7, pc}

00001674 <nrf_gpio_cfg_output>:
    1674:	b580      	push	{r7, lr}
    1676:	b084      	sub	sp, #16
    1678:	af02      	add	r7, sp, #8
    167a:	6078      	str	r0, [r7, #4]
    167c:	6878      	ldr	r0, [r7, #4]
    167e:	2300      	movs	r3, #0
    1680:	9301      	str	r3, [sp, #4]
    1682:	2300      	movs	r3, #0
    1684:	9300      	str	r3, [sp, #0]
    1686:	2300      	movs	r3, #0
    1688:	2201      	movs	r2, #1
    168a:	2101      	movs	r1, #1
    168c:	f7ff ffc2 	bl	1614 <nrf_gpio_cfg>
    1690:	46c0      	nop			; (mov r8, r8)
    1692:	46bd      	mov	sp, r7
    1694:	b002      	add	sp, #8
    1696:	bd80      	pop	{r7, pc}

00001698 <nrf_gpio_pin_set>:
    1698:	b580      	push	{r7, lr}
    169a:	b082      	sub	sp, #8
    169c:	af00      	add	r7, sp, #0
    169e:	6078      	str	r0, [r7, #4]
    16a0:	23a0      	movs	r3, #160	; 0xa0
    16a2:	05da      	lsls	r2, r3, #23
    16a4:	2101      	movs	r1, #1
    16a6:	687b      	ldr	r3, [r7, #4]
    16a8:	4099      	lsls	r1, r3
    16aa:	23a1      	movs	r3, #161	; 0xa1
    16ac:	00db      	lsls	r3, r3, #3
    16ae:	50d1      	str	r1, [r2, r3]
    16b0:	46c0      	nop			; (mov r8, r8)
    16b2:	46bd      	mov	sp, r7
    16b4:	b002      	add	sp, #8
    16b6:	bd80      	pop	{r7, pc}

000016b8 <nrf_gpio_pin_clear>:
    16b8:	b580      	push	{r7, lr}
    16ba:	b082      	sub	sp, #8
    16bc:	af00      	add	r7, sp, #0
    16be:	6078      	str	r0, [r7, #4]
    16c0:	23a0      	movs	r3, #160	; 0xa0
    16c2:	05db      	lsls	r3, r3, #23
    16c4:	2101      	movs	r1, #1
    16c6:	687a      	ldr	r2, [r7, #4]
    16c8:	4091      	lsls	r1, r2
    16ca:	000a      	movs	r2, r1
    16cc:	4902      	ldr	r1, [pc, #8]	; (16d8 <nrf_gpio_pin_clear+0x20>)
    16ce:	505a      	str	r2, [r3, r1]
    16d0:	46c0      	nop			; (mov r8, r8)
    16d2:	46bd      	mov	sp, r7
    16d4:	b002      	add	sp, #8
    16d6:	bd80      	pop	{r7, pc}
    16d8:	0000050c 	.word	0x0000050c

000016dc <nrf_gpio_pin_write>:
    16dc:	b580      	push	{r7, lr}
    16de:	b082      	sub	sp, #8
    16e0:	af00      	add	r7, sp, #0
    16e2:	6078      	str	r0, [r7, #4]
    16e4:	6039      	str	r1, [r7, #0]
    16e6:	683b      	ldr	r3, [r7, #0]
    16e8:	2b00      	cmp	r3, #0
    16ea:	d104      	bne.n	16f6 <nrf_gpio_pin_write+0x1a>
    16ec:	687b      	ldr	r3, [r7, #4]
    16ee:	0018      	movs	r0, r3
    16f0:	f7ff ffe2 	bl	16b8 <nrf_gpio_pin_clear>
    16f4:	e003      	b.n	16fe <nrf_gpio_pin_write+0x22>
    16f6:	687b      	ldr	r3, [r7, #4]
    16f8:	0018      	movs	r0, r3
    16fa:	f7ff ffcd 	bl	1698 <nrf_gpio_pin_set>
    16fe:	46c0      	nop			; (mov r8, r8)
    1700:	46bd      	mov	sp, r7
    1702:	b002      	add	sp, #8
    1704:	bd80      	pop	{r7, pc}
	...

00001708 <led_matrix_init>:
    1708:	b580      	push	{r7, lr}
    170a:	b082      	sub	sp, #8
    170c:	af00      	add	r7, sp, #0
    170e:	1dfb      	adds	r3, r7, #7
    1710:	2200      	movs	r2, #0
    1712:	701a      	strb	r2, [r3, #0]
    1714:	e009      	b.n	172a <led_matrix_init+0x22>
    1716:	1dfb      	adds	r3, r7, #7
    1718:	781b      	ldrb	r3, [r3, #0]
    171a:	4a1d      	ldr	r2, [pc, #116]	; (1790 <led_matrix_init+0x88>)
    171c:	2100      	movs	r1, #0
    171e:	54d1      	strb	r1, [r2, r3]
    1720:	1dfb      	adds	r3, r7, #7
    1722:	781a      	ldrb	r2, [r3, #0]
    1724:	1dfb      	adds	r3, r7, #7
    1726:	3201      	adds	r2, #1
    1728:	701a      	strb	r2, [r3, #0]
    172a:	1dfb      	adds	r3, r7, #7
    172c:	781b      	ldrb	r3, [r3, #0]
    172e:	2b18      	cmp	r3, #24
    1730:	d9f1      	bls.n	1716 <led_matrix_init+0xe>
    1732:	1dfb      	adds	r3, r7, #7
    1734:	2200      	movs	r2, #0
    1736:	701a      	strb	r2, [r3, #0]
    1738:	e00c      	b.n	1754 <led_matrix_init+0x4c>
    173a:	1dfb      	adds	r3, r7, #7
    173c:	781a      	ldrb	r2, [r3, #0]
    173e:	4b15      	ldr	r3, [pc, #84]	; (1794 <led_matrix_init+0x8c>)
    1740:	0092      	lsls	r2, r2, #2
    1742:	58d3      	ldr	r3, [r2, r3]
    1744:	0018      	movs	r0, r3
    1746:	f7ff ff95 	bl	1674 <nrf_gpio_cfg_output>
    174a:	1dfb      	adds	r3, r7, #7
    174c:	781a      	ldrb	r2, [r3, #0]
    174e:	1dfb      	adds	r3, r7, #7
    1750:	3201      	adds	r2, #1
    1752:	701a      	strb	r2, [r3, #0]
    1754:	1dfb      	adds	r3, r7, #7
    1756:	781b      	ldrb	r3, [r3, #0]
    1758:	2b08      	cmp	r3, #8
    175a:	d9ee      	bls.n	173a <led_matrix_init+0x32>
    175c:	1dfb      	adds	r3, r7, #7
    175e:	2200      	movs	r2, #0
    1760:	701a      	strb	r2, [r3, #0]
    1762:	e00c      	b.n	177e <led_matrix_init+0x76>
    1764:	1dfb      	adds	r3, r7, #7
    1766:	781a      	ldrb	r2, [r3, #0]
    1768:	4b0b      	ldr	r3, [pc, #44]	; (1798 <led_matrix_init+0x90>)
    176a:	0092      	lsls	r2, r2, #2
    176c:	58d3      	ldr	r3, [r2, r3]
    176e:	0018      	movs	r0, r3
    1770:	f7ff ff80 	bl	1674 <nrf_gpio_cfg_output>
    1774:	1dfb      	adds	r3, r7, #7
    1776:	781a      	ldrb	r2, [r3, #0]
    1778:	1dfb      	adds	r3, r7, #7
    177a:	3201      	adds	r2, #1
    177c:	701a      	strb	r2, [r3, #0]
    177e:	1dfb      	adds	r3, r7, #7
    1780:	781b      	ldrb	r3, [r3, #0]
    1782:	2b02      	cmp	r3, #2
    1784:	d9ee      	bls.n	1764 <led_matrix_init+0x5c>
    1786:	46c0      	nop			; (mov r8, r8)
    1788:	46c0      	nop			; (mov r8, r8)
    178a:	46bd      	mov	sp, r7
    178c:	b002      	add	sp, #8
    178e:	bd80      	pop	{r7, pc}
    1790:	200000ac 	.word	0x200000ac
    1794:	00005c40 	.word	0x00005c40
    1798:	00005c64 	.word	0x00005c64

0000179c <led_matrix_set_state>:
    179c:	b590      	push	{r4, r7, lr}
    179e:	b083      	sub	sp, #12
    17a0:	af00      	add	r7, sp, #0
    17a2:	0004      	movs	r4, r0
    17a4:	0008      	movs	r0, r1
    17a6:	0011      	movs	r1, r2
    17a8:	1dfb      	adds	r3, r7, #7
    17aa:	1c22      	adds	r2, r4, #0
    17ac:	701a      	strb	r2, [r3, #0]
    17ae:	1dbb      	adds	r3, r7, #6
    17b0:	1c02      	adds	r2, r0, #0
    17b2:	701a      	strb	r2, [r3, #0]
    17b4:	1d7b      	adds	r3, r7, #5
    17b6:	1c0a      	adds	r2, r1, #0
    17b8:	701a      	strb	r2, [r3, #0]
    17ba:	1dfb      	adds	r3, r7, #7
    17bc:	781b      	ldrb	r3, [r3, #0]
    17be:	2b04      	cmp	r3, #4
    17c0:	d803      	bhi.n	17ca <led_matrix_set_state+0x2e>
    17c2:	1dbb      	adds	r3, r7, #6
    17c4:	781b      	ldrb	r3, [r3, #0]
    17c6:	2b04      	cmp	r3, #4
    17c8:	d905      	bls.n	17d6 <led_matrix_set_state+0x3a>
    17ca:	4b0b      	ldr	r3, [pc, #44]	; (17f8 <led_matrix_set_state+0x5c>)
    17cc:	4a0b      	ldr	r2, [pc, #44]	; (17fc <led_matrix_set_state+0x60>)
    17ce:	480c      	ldr	r0, [pc, #48]	; (1800 <led_matrix_set_state+0x64>)
    17d0:	212a      	movs	r1, #42	; 0x2a
    17d2:	f001 fd23 	bl	321c <__assert_func>
    17d6:	1dbb      	adds	r3, r7, #6
    17d8:	781a      	ldrb	r2, [r3, #0]
    17da:	0013      	movs	r3, r2
    17dc:	009b      	lsls	r3, r3, #2
    17de:	189a      	adds	r2, r3, r2
    17e0:	1dfb      	adds	r3, r7, #7
    17e2:	781b      	ldrb	r3, [r3, #0]
    17e4:	18d3      	adds	r3, r2, r3
    17e6:	4a07      	ldr	r2, [pc, #28]	; (1804 <led_matrix_set_state+0x68>)
    17e8:	1d79      	adds	r1, r7, #5
    17ea:	7809      	ldrb	r1, [r1, #0]
    17ec:	54d1      	strb	r1, [r2, r3]
    17ee:	46c0      	nop			; (mov r8, r8)
    17f0:	46bd      	mov	sp, r7
    17f2:	b003      	add	sp, #12
    17f4:	bd90      	pop	{r4, r7, pc}
    17f6:	46c0      	nop			; (mov r8, r8)
    17f8:	00005ce0 	.word	0x00005ce0
    17fc:	00005d08 	.word	0x00005d08
    1800:	00005cf0 	.word	0x00005cf0
    1804:	200000ac 	.word	0x200000ac

00001808 <led_matrix_update>:
    1808:	b580      	push	{r7, lr}
    180a:	b082      	sub	sp, #8
    180c:	af00      	add	r7, sp, #0
    180e:	1d7b      	adds	r3, r7, #5
    1810:	2200      	movs	r2, #0
    1812:	701a      	strb	r2, [r3, #0]
    1814:	1dfb      	adds	r3, r7, #7
    1816:	2200      	movs	r2, #0
    1818:	701a      	strb	r2, [r3, #0]
    181a:	e047      	b.n	18ac <led_matrix_update+0xa4>
    181c:	1dbb      	adds	r3, r7, #6
    181e:	2200      	movs	r2, #0
    1820:	701a      	strb	r2, [r3, #0]
    1822:	e01f      	b.n	1864 <led_matrix_update+0x5c>
    1824:	1d7b      	adds	r3, r7, #5
    1826:	781b      	ldrb	r3, [r3, #0]
    1828:	1d7a      	adds	r2, r7, #5
    182a:	1c59      	adds	r1, r3, #1
    182c:	7011      	strb	r1, [r2, #0]
    182e:	001a      	movs	r2, r3
    1830:	4b23      	ldr	r3, [pc, #140]	; (18c0 <led_matrix_update+0xb8>)
    1832:	0092      	lsls	r2, r2, #2
    1834:	58d2      	ldr	r2, [r2, r3]
    1836:	1d3b      	adds	r3, r7, #4
    1838:	701a      	strb	r2, [r3, #0]
    183a:	1dbb      	adds	r3, r7, #6
    183c:	781a      	ldrb	r2, [r3, #0]
    183e:	4b21      	ldr	r3, [pc, #132]	; (18c4 <led_matrix_update+0xbc>)
    1840:	0092      	lsls	r2, r2, #2
    1842:	58d0      	ldr	r0, [r2, r3]
    1844:	1d3b      	adds	r3, r7, #4
    1846:	781b      	ldrb	r3, [r3, #0]
    1848:	4a1f      	ldr	r2, [pc, #124]	; (18c8 <led_matrix_update+0xc0>)
    184a:	5cd3      	ldrb	r3, [r2, r3]
    184c:	b2db      	uxtb	r3, r3
    184e:	2201      	movs	r2, #1
    1850:	4053      	eors	r3, r2
    1852:	b2db      	uxtb	r3, r3
    1854:	0019      	movs	r1, r3
    1856:	f7ff ff41 	bl	16dc <nrf_gpio_pin_write>
    185a:	1dbb      	adds	r3, r7, #6
    185c:	781a      	ldrb	r2, [r3, #0]
    185e:	1dbb      	adds	r3, r7, #6
    1860:	3201      	adds	r2, #1
    1862:	701a      	strb	r2, [r3, #0]
    1864:	1dbb      	adds	r3, r7, #6
    1866:	781a      	ldrb	r2, [r3, #0]
    1868:	1dfb      	adds	r3, r7, #7
    186a:	7819      	ldrb	r1, [r3, #0]
    186c:	4b17      	ldr	r3, [pc, #92]	; (18cc <led_matrix_update+0xc4>)
    186e:	0089      	lsls	r1, r1, #2
    1870:	58cb      	ldr	r3, [r1, r3]
    1872:	429a      	cmp	r2, r3
    1874:	dbd6      	blt.n	1824 <led_matrix_update+0x1c>
    1876:	1dfb      	adds	r3, r7, #7
    1878:	781a      	ldrb	r2, [r3, #0]
    187a:	4b15      	ldr	r3, [pc, #84]	; (18d0 <led_matrix_update+0xc8>)
    187c:	0092      	lsls	r2, r2, #2
    187e:	58d3      	ldr	r3, [r2, r3]
    1880:	0018      	movs	r0, r3
    1882:	f7ff ff09 	bl	1698 <nrf_gpio_pin_set>
    1886:	2001      	movs	r0, #1
    1888:	f001 fbac 	bl	2fe4 <nrf_delay_ms>
    188c:	1dfb      	adds	r3, r7, #7
    188e:	781a      	ldrb	r2, [r3, #0]
    1890:	4b0f      	ldr	r3, [pc, #60]	; (18d0 <led_matrix_update+0xc8>)
    1892:	0092      	lsls	r2, r2, #2
    1894:	58d3      	ldr	r3, [r2, r3]
    1896:	0018      	movs	r0, r3
    1898:	f7ff ff0e 	bl	16b8 <nrf_gpio_pin_clear>
    189c:	2001      	movs	r0, #1
    189e:	f001 fba1 	bl	2fe4 <nrf_delay_ms>
    18a2:	1dfb      	adds	r3, r7, #7
    18a4:	781a      	ldrb	r2, [r3, #0]
    18a6:	1dfb      	adds	r3, r7, #7
    18a8:	3201      	adds	r2, #1
    18aa:	701a      	strb	r2, [r3, #0]
    18ac:	1dfb      	adds	r3, r7, #7
    18ae:	781b      	ldrb	r3, [r3, #0]
    18b0:	2b02      	cmp	r3, #2
    18b2:	d9b3      	bls.n	181c <led_matrix_update+0x14>
    18b4:	46c0      	nop			; (mov r8, r8)
    18b6:	46c0      	nop			; (mov r8, r8)
    18b8:	46bd      	mov	sp, r7
    18ba:	b002      	add	sp, #8
    18bc:	bd80      	pop	{r7, pc}
    18be:	46c0      	nop			; (mov r8, r8)
    18c0:	00005c7c 	.word	0x00005c7c
    18c4:	00005c40 	.word	0x00005c40
    18c8:	200000ac 	.word	0x200000ac
    18cc:	00005c70 	.word	0x00005c70
    18d0:	00005c64 	.word	0x00005c64

000018d4 <led_matrix_clear>:
    18d4:	b580      	push	{r7, lr}
    18d6:	b082      	sub	sp, #8
    18d8:	af00      	add	r7, sp, #0
    18da:	1dfb      	adds	r3, r7, #7
    18dc:	2200      	movs	r2, #0
    18de:	701a      	strb	r2, [r3, #0]
    18e0:	e019      	b.n	1916 <led_matrix_clear+0x42>
    18e2:	1dbb      	adds	r3, r7, #6
    18e4:	2200      	movs	r2, #0
    18e6:	701a      	strb	r2, [r3, #0]
    18e8:	e00c      	b.n	1904 <led_matrix_clear+0x30>
    18ea:	1dbb      	adds	r3, r7, #6
    18ec:	7819      	ldrb	r1, [r3, #0]
    18ee:	1dfb      	adds	r3, r7, #7
    18f0:	781b      	ldrb	r3, [r3, #0]
    18f2:	2200      	movs	r2, #0
    18f4:	0018      	movs	r0, r3
    18f6:	f7ff ff51 	bl	179c <led_matrix_set_state>
    18fa:	1dfb      	adds	r3, r7, #7
    18fc:	781a      	ldrb	r2, [r3, #0]
    18fe:	1dfb      	adds	r3, r7, #7
    1900:	3201      	adds	r2, #1
    1902:	701a      	strb	r2, [r3, #0]
    1904:	1dbb      	adds	r3, r7, #6
    1906:	781b      	ldrb	r3, [r3, #0]
    1908:	2b04      	cmp	r3, #4
    190a:	d9ee      	bls.n	18ea <led_matrix_clear+0x16>
    190c:	1dfb      	adds	r3, r7, #7
    190e:	781a      	ldrb	r2, [r3, #0]
    1910:	1dfb      	adds	r3, r7, #7
    1912:	3201      	adds	r2, #1
    1914:	701a      	strb	r2, [r3, #0]
    1916:	1dfb      	adds	r3, r7, #7
    1918:	781b      	ldrb	r3, [r3, #0]
    191a:	2b04      	cmp	r3, #4
    191c:	d9e1      	bls.n	18e2 <led_matrix_clear+0xe>
    191e:	46c0      	nop			; (mov r8, r8)
    1920:	46c0      	nop			; (mov r8, r8)
    1922:	46bd      	mov	sp, r7
    1924:	b002      	add	sp, #8
    1926:	bd80      	pop	{r7, pc}

00001928 <led_matrix_display_symbol>:
    1928:	b590      	push	{r4, r7, lr}
    192a:	b085      	sub	sp, #20
    192c:	af00      	add	r7, sp, #0
    192e:	0002      	movs	r2, r0
    1930:	1dfb      	adds	r3, r7, #7
    1932:	701a      	strb	r2, [r3, #0]
    1934:	1dfb      	adds	r3, r7, #7
    1936:	781b      	ldrb	r3, [r3, #0]
    1938:	b25b      	sxtb	r3, r3
    193a:	2b02      	cmp	r3, #2
    193c:	d050      	beq.n	19e0 <led_matrix_display_symbol+0xb8>
    193e:	dd00      	ble.n	1942 <led_matrix_display_symbol+0x1a>
    1940:	e081      	b.n	1a46 <led_matrix_display_symbol+0x11e>
    1942:	1c5a      	adds	r2, r3, #1
    1944:	d002      	beq.n	194c <led_matrix_display_symbol+0x24>
    1946:	2b01      	cmp	r3, #1
    1948:	d019      	beq.n	197e <led_matrix_display_symbol+0x56>
    194a:	e07c      	b.n	1a46 <led_matrix_display_symbol+0x11e>
    194c:	230f      	movs	r3, #15
    194e:	18fb      	adds	r3, r7, r3
    1950:	2200      	movs	r2, #0
    1952:	701a      	strb	r2, [r3, #0]
    1954:	e00d      	b.n	1972 <led_matrix_display_symbol+0x4a>
    1956:	240f      	movs	r4, #15
    1958:	193b      	adds	r3, r7, r4
    195a:	781b      	ldrb	r3, [r3, #0]
    195c:	2201      	movs	r2, #1
    195e:	2102      	movs	r1, #2
    1960:	0018      	movs	r0, r3
    1962:	f7ff ff1b 	bl	179c <led_matrix_set_state>
    1966:	0021      	movs	r1, r4
    1968:	187b      	adds	r3, r7, r1
    196a:	781a      	ldrb	r2, [r3, #0]
    196c:	187b      	adds	r3, r7, r1
    196e:	3201      	adds	r2, #1
    1970:	701a      	strb	r2, [r3, #0]
    1972:	230f      	movs	r3, #15
    1974:	18fb      	adds	r3, r7, r3
    1976:	781b      	ldrb	r3, [r3, #0]
    1978:	2b04      	cmp	r3, #4
    197a:	d9ec      	bls.n	1956 <led_matrix_display_symbol+0x2e>
    197c:	e063      	b.n	1a46 <led_matrix_display_symbol+0x11e>
    197e:	230e      	movs	r3, #14
    1980:	18fb      	adds	r3, r7, r3
    1982:	2200      	movs	r2, #0
    1984:	701a      	strb	r2, [r3, #0]
    1986:	e00d      	b.n	19a4 <led_matrix_display_symbol+0x7c>
    1988:	240e      	movs	r4, #14
    198a:	193b      	adds	r3, r7, r4
    198c:	781b      	ldrb	r3, [r3, #0]
    198e:	2201      	movs	r2, #1
    1990:	0019      	movs	r1, r3
    1992:	2002      	movs	r0, #2
    1994:	f7ff ff02 	bl	179c <led_matrix_set_state>
    1998:	0021      	movs	r1, r4
    199a:	187b      	adds	r3, r7, r1
    199c:	781a      	ldrb	r2, [r3, #0]
    199e:	187b      	adds	r3, r7, r1
    19a0:	3201      	adds	r2, #1
    19a2:	701a      	strb	r2, [r3, #0]
    19a4:	230e      	movs	r3, #14
    19a6:	18fb      	adds	r3, r7, r3
    19a8:	781b      	ldrb	r3, [r3, #0]
    19aa:	2b04      	cmp	r3, #4
    19ac:	d9ec      	bls.n	1988 <led_matrix_display_symbol+0x60>
    19ae:	230d      	movs	r3, #13
    19b0:	18fb      	adds	r3, r7, r3
    19b2:	2200      	movs	r2, #0
    19b4:	701a      	strb	r2, [r3, #0]
    19b6:	e00d      	b.n	19d4 <led_matrix_display_symbol+0xac>
    19b8:	240d      	movs	r4, #13
    19ba:	193b      	adds	r3, r7, r4
    19bc:	781b      	ldrb	r3, [r3, #0]
    19be:	2201      	movs	r2, #1
    19c0:	2102      	movs	r1, #2
    19c2:	0018      	movs	r0, r3
    19c4:	f7ff feea 	bl	179c <led_matrix_set_state>
    19c8:	0021      	movs	r1, r4
    19ca:	187b      	adds	r3, r7, r1
    19cc:	781a      	ldrb	r2, [r3, #0]
    19ce:	187b      	adds	r3, r7, r1
    19d0:	3201      	adds	r2, #1
    19d2:	701a      	strb	r2, [r3, #0]
    19d4:	230d      	movs	r3, #13
    19d6:	18fb      	adds	r3, r7, r3
    19d8:	781b      	ldrb	r3, [r3, #0]
    19da:	2b04      	cmp	r3, #4
    19dc:	d9ec      	bls.n	19b8 <led_matrix_display_symbol+0x90>
    19de:	e032      	b.n	1a46 <led_matrix_display_symbol+0x11e>
    19e0:	2201      	movs	r2, #1
    19e2:	2100      	movs	r1, #0
    19e4:	2001      	movs	r0, #1
    19e6:	f7ff fed9 	bl	179c <led_matrix_set_state>
    19ea:	2201      	movs	r2, #1
    19ec:	2100      	movs	r1, #0
    19ee:	2003      	movs	r0, #3
    19f0:	f7ff fed4 	bl	179c <led_matrix_set_state>
    19f4:	2201      	movs	r2, #1
    19f6:	2101      	movs	r1, #1
    19f8:	2000      	movs	r0, #0
    19fa:	f7ff fecf 	bl	179c <led_matrix_set_state>
    19fe:	2201      	movs	r2, #1
    1a00:	2101      	movs	r1, #1
    1a02:	2002      	movs	r0, #2
    1a04:	f7ff feca 	bl	179c <led_matrix_set_state>
    1a08:	2201      	movs	r2, #1
    1a0a:	2101      	movs	r1, #1
    1a0c:	2004      	movs	r0, #4
    1a0e:	f7ff fec5 	bl	179c <led_matrix_set_state>
    1a12:	2201      	movs	r2, #1
    1a14:	2102      	movs	r1, #2
    1a16:	2000      	movs	r0, #0
    1a18:	f7ff fec0 	bl	179c <led_matrix_set_state>
    1a1c:	2201      	movs	r2, #1
    1a1e:	2102      	movs	r1, #2
    1a20:	2004      	movs	r0, #4
    1a22:	f7ff febb 	bl	179c <led_matrix_set_state>
    1a26:	2201      	movs	r2, #1
    1a28:	2103      	movs	r1, #3
    1a2a:	2001      	movs	r0, #1
    1a2c:	f7ff feb6 	bl	179c <led_matrix_set_state>
    1a30:	2201      	movs	r2, #1
    1a32:	2103      	movs	r1, #3
    1a34:	2003      	movs	r0, #3
    1a36:	f7ff feb1 	bl	179c <led_matrix_set_state>
    1a3a:	2201      	movs	r2, #1
    1a3c:	2104      	movs	r1, #4
    1a3e:	2002      	movs	r0, #2
    1a40:	f7ff feac 	bl	179c <led_matrix_set_state>
    1a44:	46c0      	nop			; (mov r8, r8)
    1a46:	46c0      	nop			; (mov r8, r8)
    1a48:	46bd      	mov	sp, r7
    1a4a:	b005      	add	sp, #20
    1a4c:	bd90      	pop	{r4, r7, pc}

00001a4e <compass_init>:
    1a4e:	b580      	push	{r7, lr}
    1a50:	b082      	sub	sp, #8
    1a52:	af00      	add	r7, sp, #0
    1a54:	1dfb      	adds	r3, r7, #7
    1a56:	2200      	movs	r2, #0
    1a58:	701a      	strb	r2, [r3, #0]
    1a5a:	1dfa      	adds	r2, r7, #7
    1a5c:	2301      	movs	r3, #1
    1a5e:	2160      	movs	r1, #96	; 0x60
    1a60:	201e      	movs	r0, #30
    1a62:	f7fe fdc3 	bl	5ec <i2c_write>
    1a66:	46c0      	nop			; (mov r8, r8)
    1a68:	46bd      	mov	sp, r7
    1a6a:	b002      	add	sp, #8
    1a6c:	bd80      	pop	{r7, pc}
	...

00001a70 <read_magnetometer_y>:
    1a70:	b5f0      	push	{r4, r5, r6, r7, lr}
    1a72:	b085      	sub	sp, #20
    1a74:	af00      	add	r7, sp, #0
    1a76:	230e      	movs	r3, #14
    1a78:	18fb      	adds	r3, r7, r3
    1a7a:	2200      	movs	r2, #0
    1a7c:	801a      	strh	r2, [r3, #0]
    1a7e:	230c      	movs	r3, #12
    1a80:	18fb      	adds	r3, r7, r3
    1a82:	2200      	movs	r2, #0
    1a84:	801a      	strh	r2, [r3, #0]
    1a86:	230a      	movs	r3, #10
    1a88:	18fb      	adds	r3, r7, r3
    1a8a:	2200      	movs	r2, #0
    1a8c:	801a      	strh	r2, [r3, #0]
    1a8e:	1dfb      	adds	r3, r7, #7
    1a90:	2200      	movs	r2, #0
    1a92:	701a      	strb	r2, [r3, #0]
    1a94:	1dfa      	adds	r2, r7, #7
    1a96:	2301      	movs	r3, #1
    1a98:	2167      	movs	r1, #103	; 0x67
    1a9a:	201e      	movs	r0, #30
    1a9c:	f7fe fe00 	bl	6a0 <i2c_read>
    1aa0:	1dfb      	adds	r3, r7, #7
    1aa2:	781b      	ldrb	r3, [r3, #0]
    1aa4:	001a      	movs	r2, r3
    1aa6:	230f      	movs	r3, #15
    1aa8:	4013      	ands	r3, r2
    1aaa:	2b0f      	cmp	r3, #15
    1aac:	d14a      	bne.n	1b44 <read_magnetometer_y+0xd4>
    1aae:	2408      	movs	r4, #8
    1ab0:	193a      	adds	r2, r7, r4
    1ab2:	2302      	movs	r3, #2
    1ab4:	2168      	movs	r1, #104	; 0x68
    1ab6:	201e      	movs	r0, #30
    1ab8:	f7fe fdf2 	bl	6a0 <i2c_read>
    1abc:	0020      	movs	r0, r4
    1abe:	183b      	adds	r3, r7, r0
    1ac0:	785b      	ldrb	r3, [r3, #1]
    1ac2:	021b      	lsls	r3, r3, #8
    1ac4:	b219      	sxth	r1, r3
    1ac6:	183b      	adds	r3, r7, r0
    1ac8:	781b      	ldrb	r3, [r3, #0]
    1aca:	b21a      	sxth	r2, r3
    1acc:	250c      	movs	r5, #12
    1ace:	197b      	adds	r3, r7, r5
    1ad0:	430a      	orrs	r2, r1
    1ad2:	801a      	strh	r2, [r3, #0]
    1ad4:	0004      	movs	r4, r0
    1ad6:	183a      	adds	r2, r7, r0
    1ad8:	2302      	movs	r3, #2
    1ada:	216a      	movs	r1, #106	; 0x6a
    1adc:	201e      	movs	r0, #30
    1ade:	f7fe fddf 	bl	6a0 <i2c_read>
    1ae2:	0020      	movs	r0, r4
    1ae4:	183b      	adds	r3, r7, r0
    1ae6:	785b      	ldrb	r3, [r3, #1]
    1ae8:	021b      	lsls	r3, r3, #8
    1aea:	b219      	sxth	r1, r3
    1aec:	183b      	adds	r3, r7, r0
    1aee:	781b      	ldrb	r3, [r3, #0]
    1af0:	b21a      	sxth	r2, r3
    1af2:	260e      	movs	r6, #14
    1af4:	19bb      	adds	r3, r7, r6
    1af6:	430a      	orrs	r2, r1
    1af8:	801a      	strh	r2, [r3, #0]
    1afa:	0004      	movs	r4, r0
    1afc:	183a      	adds	r2, r7, r0
    1afe:	2302      	movs	r3, #2
    1b00:	216c      	movs	r1, #108	; 0x6c
    1b02:	201e      	movs	r0, #30
    1b04:	f7fe fdcc 	bl	6a0 <i2c_read>
    1b08:	0020      	movs	r0, r4
    1b0a:	183b      	adds	r3, r7, r0
    1b0c:	785b      	ldrb	r3, [r3, #1]
    1b0e:	021b      	lsls	r3, r3, #8
    1b10:	b219      	sxth	r1, r3
    1b12:	183b      	adds	r3, r7, r0
    1b14:	781b      	ldrb	r3, [r3, #0]
    1b16:	b21a      	sxth	r2, r3
    1b18:	200a      	movs	r0, #10
    1b1a:	183b      	adds	r3, r7, r0
    1b1c:	430a      	orrs	r2, r1
    1b1e:	801a      	strh	r2, [r3, #0]
    1b20:	4b0f      	ldr	r3, [pc, #60]	; (1b60 <read_magnetometer_y+0xf0>)
    1b22:	781b      	ldrb	r3, [r3, #0]
    1b24:	3301      	adds	r3, #1
    1b26:	b2da      	uxtb	r2, r3
    1b28:	4b0d      	ldr	r3, [pc, #52]	; (1b60 <read_magnetometer_y+0xf0>)
    1b2a:	701a      	strb	r2, [r3, #0]
    1b2c:	197b      	adds	r3, r7, r5
    1b2e:	2100      	movs	r1, #0
    1b30:	5e59      	ldrsh	r1, [r3, r1]
    1b32:	19bb      	adds	r3, r7, r6
    1b34:	2200      	movs	r2, #0
    1b36:	5e9a      	ldrsh	r2, [r3, r2]
    1b38:	183b      	adds	r3, r7, r0
    1b3a:	2000      	movs	r0, #0
    1b3c:	5e1b      	ldrsh	r3, [r3, r0]
    1b3e:	4809      	ldr	r0, [pc, #36]	; (1b64 <read_magnetometer_y+0xf4>)
    1b40:	f001 ff00 	bl	3944 <iprintf>
    1b44:	4b06      	ldr	r3, [pc, #24]	; (1b60 <read_magnetometer_y+0xf0>)
    1b46:	781b      	ldrb	r3, [r3, #0]
    1b48:	2b04      	cmp	r3, #4
    1b4a:	d800      	bhi.n	1b4e <read_magnetometer_y+0xde>
    1b4c:	e7a2      	b.n	1a94 <read_magnetometer_y+0x24>
    1b4e:	46c0      	nop			; (mov r8, r8)
    1b50:	230e      	movs	r3, #14
    1b52:	18fb      	adds	r3, r7, r3
    1b54:	2200      	movs	r2, #0
    1b56:	5e9b      	ldrsh	r3, [r3, r2]
    1b58:	0018      	movs	r0, r3
    1b5a:	46bd      	mov	sp, r7
    1b5c:	b005      	add	sp, #20
    1b5e:	bdf0      	pop	{r4, r5, r6, r7, pc}
    1b60:	200000c5 	.word	0x200000c5
    1b64:	00005d20 	.word	0x00005d20

00001b68 <get_orientation>:
    1b68:	b580      	push	{r7, lr}
    1b6a:	af00      	add	r7, sp, #0
    1b6c:	f7ff ff80 	bl	1a70 <read_magnetometer_y>
    1b70:	1e03      	subs	r3, r0, #0
    1b72:	da02      	bge.n	1b7a <get_orientation+0x12>
    1b74:	2301      	movs	r3, #1
    1b76:	425b      	negs	r3, r3
    1b78:	e000      	b.n	1b7c <get_orientation+0x14>
    1b7a:	2301      	movs	r3, #1
    1b7c:	0018      	movs	r0, r3
    1b7e:	46bd      	mov	sp, r7
    1b80:	bd80      	pop	{r7, pc}

00001b82 <get_light_sensors_level>:
    1b82:	b580      	push	{r7, lr}
    1b84:	b082      	sub	sp, #8
    1b86:	af00      	add	r7, sp, #0
    1b88:	2000      	movs	r0, #0
    1b8a:	f000 fecb 	bl	2924 <light_sensor_get_value>
    1b8e:	0002      	movs	r2, r0
    1b90:	1dbb      	adds	r3, r7, #6
    1b92:	801a      	strh	r2, [r3, #0]
    1b94:	2001      	movs	r0, #1
    1b96:	f000 fec5 	bl	2924 <light_sensor_get_value>
    1b9a:	0002      	movs	r2, r0
    1b9c:	1d3b      	adds	r3, r7, #4
    1b9e:	801a      	strh	r2, [r3, #0]
    1ba0:	1dbb      	adds	r3, r7, #6
    1ba2:	881a      	ldrh	r2, [r3, #0]
    1ba4:	1d3b      	adds	r3, r7, #4
    1ba6:	881b      	ldrh	r3, [r3, #0]
    1ba8:	18d3      	adds	r3, r2, r3
    1baa:	2b00      	cmp	r3, #0
    1bac:	da00      	bge.n	1bb0 <get_light_sensors_level+0x2e>
    1bae:	3301      	adds	r3, #1
    1bb0:	105b      	asrs	r3, r3, #1
    1bb2:	001a      	movs	r2, r3
    1bb4:	1cbb      	adds	r3, r7, #2
    1bb6:	801a      	strh	r2, [r3, #0]
    1bb8:	1cbb      	adds	r3, r7, #2
    1bba:	881b      	ldrh	r3, [r3, #0]
    1bbc:	2b4b      	cmp	r3, #75	; 0x4b
    1bbe:	d909      	bls.n	1bd4 <get_light_sensors_level+0x52>
    1bc0:	1dbb      	adds	r3, r7, #6
    1bc2:	881b      	ldrh	r3, [r3, #0]
    1bc4:	2b25      	cmp	r3, #37	; 0x25
    1bc6:	d905      	bls.n	1bd4 <get_light_sensors_level+0x52>
    1bc8:	1d3b      	adds	r3, r7, #4
    1bca:	881b      	ldrh	r3, [r3, #0]
    1bcc:	2b25      	cmp	r3, #37	; 0x25
    1bce:	d901      	bls.n	1bd4 <get_light_sensors_level+0x52>
    1bd0:	2301      	movs	r3, #1
    1bd2:	e000      	b.n	1bd6 <get_light_sensors_level+0x54>
    1bd4:	2300      	movs	r3, #0
    1bd6:	0018      	movs	r0, r3
    1bd8:	46bd      	mov	sp, r7
    1bda:	b002      	add	sp, #8
    1bdc:	bd80      	pop	{r7, pc}
	...

00001be0 <morse_communication>:
    1be0:	b580      	push	{r7, lr}
    1be2:	b082      	sub	sp, #8
    1be4:	af00      	add	r7, sp, #0
    1be6:	f7fe fed1 	bl	98c <timer_get_time_ms>
    1bea:	0003      	movs	r3, r0
    1bec:	607b      	str	r3, [r7, #4]
    1bee:	4b72      	ldr	r3, [pc, #456]	; (1db8 <morse_communication+0x1d8>)
    1bf0:	781b      	ldrb	r3, [r3, #0]
    1bf2:	2b06      	cmp	r3, #6
    1bf4:	d900      	bls.n	1bf8 <morse_communication+0x18>
    1bf6:	e0db      	b.n	1db0 <morse_communication+0x1d0>
    1bf8:	009a      	lsls	r2, r3, #2
    1bfa:	4b70      	ldr	r3, [pc, #448]	; (1dbc <morse_communication+0x1dc>)
    1bfc:	18d3      	adds	r3, r2, r3
    1bfe:	681b      	ldr	r3, [r3, #0]
    1c00:	469f      	mov	pc, r3
    1c02:	f7ff ffbe 	bl	1b82 <get_light_sensors_level>
    1c06:	0003      	movs	r3, r0
    1c08:	001a      	movs	r2, r3
    1c0a:	4b6d      	ldr	r3, [pc, #436]	; (1dc0 <morse_communication+0x1e0>)
    1c0c:	701a      	strb	r2, [r3, #0]
    1c0e:	4b6c      	ldr	r3, [pc, #432]	; (1dc0 <morse_communication+0x1e0>)
    1c10:	781a      	ldrb	r2, [r3, #0]
    1c12:	4b6c      	ldr	r3, [pc, #432]	; (1dc4 <morse_communication+0x1e4>)
    1c14:	781b      	ldrb	r3, [r3, #0]
    1c16:	429a      	cmp	r2, r3
    1c18:	d02b      	beq.n	1c72 <morse_communication+0x92>
    1c1a:	4b6b      	ldr	r3, [pc, #428]	; (1dc8 <morse_communication+0x1e8>)
    1c1c:	781b      	ldrb	r3, [r3, #0]
    1c1e:	2b00      	cmp	r3, #0
    1c20:	d11c      	bne.n	1c5c <morse_communication+0x7c>
    1c22:	4b6a      	ldr	r3, [pc, #424]	; (1dcc <morse_communication+0x1ec>)
    1c24:	681b      	ldr	r3, [r3, #0]
    1c26:	687a      	ldr	r2, [r7, #4]
    1c28:	1ad3      	subs	r3, r2, r3
    1c2a:	2bc7      	cmp	r3, #199	; 0xc7
    1c2c:	d803      	bhi.n	1c36 <morse_communication+0x56>
    1c2e:	4b62      	ldr	r3, [pc, #392]	; (1db8 <morse_communication+0x1d8>)
    1c30:	2204      	movs	r2, #4
    1c32:	701a      	strb	r2, [r3, #0]
    1c34:	e015      	b.n	1c62 <morse_communication+0x82>
    1c36:	4b65      	ldr	r3, [pc, #404]	; (1dcc <morse_communication+0x1ec>)
    1c38:	681b      	ldr	r3, [r3, #0]
    1c3a:	687a      	ldr	r2, [r7, #4]
    1c3c:	1ad2      	subs	r2, r2, r3
    1c3e:	23fa      	movs	r3, #250	; 0xfa
    1c40:	005b      	lsls	r3, r3, #1
    1c42:	429a      	cmp	r2, r3
    1c44:	d203      	bcs.n	1c4e <morse_communication+0x6e>
    1c46:	4b5c      	ldr	r3, [pc, #368]	; (1db8 <morse_communication+0x1d8>)
    1c48:	2205      	movs	r2, #5
    1c4a:	701a      	strb	r2, [r3, #0]
    1c4c:	e009      	b.n	1c62 <morse_communication+0x82>
    1c4e:	4b60      	ldr	r3, [pc, #384]	; (1dd0 <morse_communication+0x1f0>)
    1c50:	2201      	movs	r2, #1
    1c52:	701a      	strb	r2, [r3, #0]
    1c54:	4b58      	ldr	r3, [pc, #352]	; (1db8 <morse_communication+0x1d8>)
    1c56:	2205      	movs	r2, #5
    1c58:	701a      	strb	r2, [r3, #0]
    1c5a:	e002      	b.n	1c62 <morse_communication+0x82>
    1c5c:	4b56      	ldr	r3, [pc, #344]	; (1db8 <morse_communication+0x1d8>)
    1c5e:	2201      	movs	r2, #1
    1c60:	701a      	strb	r2, [r3, #0]
    1c62:	4b5a      	ldr	r3, [pc, #360]	; (1dcc <morse_communication+0x1ec>)
    1c64:	687a      	ldr	r2, [r7, #4]
    1c66:	601a      	str	r2, [r3, #0]
    1c68:	4b55      	ldr	r3, [pc, #340]	; (1dc0 <morse_communication+0x1e0>)
    1c6a:	781a      	ldrb	r2, [r3, #0]
    1c6c:	4b55      	ldr	r3, [pc, #340]	; (1dc4 <morse_communication+0x1e4>)
    1c6e:	701a      	strb	r2, [r3, #0]
    1c70:	e09b      	b.n	1daa <morse_communication+0x1ca>
    1c72:	4b56      	ldr	r3, [pc, #344]	; (1dcc <morse_communication+0x1ec>)
    1c74:	681b      	ldr	r3, [r3, #0]
    1c76:	687a      	ldr	r2, [r7, #4]
    1c78:	1ad2      	subs	r2, r2, r3
    1c7a:	23fa      	movs	r3, #250	; 0xfa
    1c7c:	005b      	lsls	r3, r3, #1
    1c7e:	429a      	cmp	r2, r3
    1c80:	d800      	bhi.n	1c84 <morse_communication+0xa4>
    1c82:	e092      	b.n	1daa <morse_communication+0x1ca>
    1c84:	4b50      	ldr	r3, [pc, #320]	; (1dc8 <morse_communication+0x1e8>)
    1c86:	781b      	ldrb	r3, [r3, #0]
    1c88:	2b00      	cmp	r3, #0
    1c8a:	d000      	beq.n	1c8e <morse_communication+0xae>
    1c8c:	e08d      	b.n	1daa <morse_communication+0x1ca>
    1c8e:	4b50      	ldr	r3, [pc, #320]	; (1dd0 <morse_communication+0x1f0>)
    1c90:	2201      	movs	r2, #1
    1c92:	701a      	strb	r2, [r3, #0]
    1c94:	4b48      	ldr	r3, [pc, #288]	; (1db8 <morse_communication+0x1d8>)
    1c96:	2205      	movs	r2, #5
    1c98:	701a      	strb	r2, [r3, #0]
    1c9a:	e086      	b.n	1daa <morse_communication+0x1ca>
    1c9c:	f7ff ff71 	bl	1b82 <get_light_sensors_level>
    1ca0:	0003      	movs	r3, r0
    1ca2:	001a      	movs	r2, r3
    1ca4:	4b46      	ldr	r3, [pc, #280]	; (1dc0 <morse_communication+0x1e0>)
    1ca6:	701a      	strb	r2, [r3, #0]
    1ca8:	4b45      	ldr	r3, [pc, #276]	; (1dc0 <morse_communication+0x1e0>)
    1caa:	781a      	ldrb	r2, [r3, #0]
    1cac:	4b45      	ldr	r3, [pc, #276]	; (1dc4 <morse_communication+0x1e4>)
    1cae:	781b      	ldrb	r3, [r3, #0]
    1cb0:	429a      	cmp	r2, r3
    1cb2:	d100      	bne.n	1cb6 <morse_communication+0xd6>
    1cb4:	e07b      	b.n	1dae <morse_communication+0x1ce>
    1cb6:	4b45      	ldr	r3, [pc, #276]	; (1dcc <morse_communication+0x1ec>)
    1cb8:	681b      	ldr	r3, [r3, #0]
    1cba:	687a      	ldr	r2, [r7, #4]
    1cbc:	1ad3      	subs	r3, r2, r3
    1cbe:	2bc7      	cmp	r3, #199	; 0xc7
    1cc0:	d803      	bhi.n	1cca <morse_communication+0xea>
    1cc2:	4b3d      	ldr	r3, [pc, #244]	; (1db8 <morse_communication+0x1d8>)
    1cc4:	2202      	movs	r2, #2
    1cc6:	701a      	strb	r2, [r3, #0]
    1cc8:	e002      	b.n	1cd0 <morse_communication+0xf0>
    1cca:	4b3b      	ldr	r3, [pc, #236]	; (1db8 <morse_communication+0x1d8>)
    1ccc:	2203      	movs	r2, #3
    1cce:	701a      	strb	r2, [r3, #0]
    1cd0:	4b3d      	ldr	r3, [pc, #244]	; (1dc8 <morse_communication+0x1e8>)
    1cd2:	2200      	movs	r2, #0
    1cd4:	701a      	strb	r2, [r3, #0]
    1cd6:	4b3d      	ldr	r3, [pc, #244]	; (1dcc <morse_communication+0x1ec>)
    1cd8:	687a      	ldr	r2, [r7, #4]
    1cda:	601a      	str	r2, [r3, #0]
    1cdc:	4b38      	ldr	r3, [pc, #224]	; (1dc0 <morse_communication+0x1e0>)
    1cde:	781a      	ldrb	r2, [r3, #0]
    1ce0:	4b38      	ldr	r3, [pc, #224]	; (1dc4 <morse_communication+0x1e4>)
    1ce2:	701a      	strb	r2, [r3, #0]
    1ce4:	e063      	b.n	1dae <morse_communication+0x1ce>
    1ce6:	4b3b      	ldr	r3, [pc, #236]	; (1dd4 <morse_communication+0x1f4>)
    1ce8:	781b      	ldrb	r3, [r3, #0]
    1cea:	2201      	movs	r2, #1
    1cec:	4313      	orrs	r3, r2
    1cee:	b2da      	uxtb	r2, r3
    1cf0:	4b38      	ldr	r3, [pc, #224]	; (1dd4 <morse_communication+0x1f4>)
    1cf2:	701a      	strb	r2, [r3, #0]
    1cf4:	4b30      	ldr	r3, [pc, #192]	; (1db8 <morse_communication+0x1d8>)
    1cf6:	2200      	movs	r2, #0
    1cf8:	701a      	strb	r2, [r3, #0]
    1cfa:	e059      	b.n	1db0 <morse_communication+0x1d0>
    1cfc:	4b35      	ldr	r3, [pc, #212]	; (1dd4 <morse_communication+0x1f4>)
    1cfe:	781b      	ldrb	r3, [r3, #0]
    1d00:	2202      	movs	r2, #2
    1d02:	4313      	orrs	r3, r2
    1d04:	b2da      	uxtb	r2, r3
    1d06:	4b33      	ldr	r3, [pc, #204]	; (1dd4 <morse_communication+0x1f4>)
    1d08:	701a      	strb	r2, [r3, #0]
    1d0a:	4b2b      	ldr	r3, [pc, #172]	; (1db8 <morse_communication+0x1d8>)
    1d0c:	2200      	movs	r2, #0
    1d0e:	701a      	strb	r2, [r3, #0]
    1d10:	e04e      	b.n	1db0 <morse_communication+0x1d0>
    1d12:	4b30      	ldr	r3, [pc, #192]	; (1dd4 <morse_communication+0x1f4>)
    1d14:	781b      	ldrb	r3, [r3, #0]
    1d16:	009b      	lsls	r3, r3, #2
    1d18:	b2da      	uxtb	r2, r3
    1d1a:	4b2e      	ldr	r3, [pc, #184]	; (1dd4 <morse_communication+0x1f4>)
    1d1c:	701a      	strb	r2, [r3, #0]
    1d1e:	4b26      	ldr	r3, [pc, #152]	; (1db8 <morse_communication+0x1d8>)
    1d20:	2201      	movs	r2, #1
    1d22:	701a      	strb	r2, [r3, #0]
    1d24:	e044      	b.n	1db0 <morse_communication+0x1d0>
    1d26:	4b2b      	ldr	r3, [pc, #172]	; (1dd4 <morse_communication+0x1f4>)
    1d28:	781b      	ldrb	r3, [r3, #0]
    1d2a:	2b6a      	cmp	r3, #106	; 0x6a
    1d2c:	d10e      	bne.n	1d4c <morse_communication+0x16c>
    1d2e:	4b2a      	ldr	r3, [pc, #168]	; (1dd8 <morse_communication+0x1f8>)
    1d30:	881b      	ldrh	r3, [r3, #0]
    1d32:	1c5a      	adds	r2, r3, #1
    1d34:	b291      	uxth	r1, r2
    1d36:	4a28      	ldr	r2, [pc, #160]	; (1dd8 <morse_communication+0x1f8>)
    1d38:	8011      	strh	r1, [r2, #0]
    1d3a:	001a      	movs	r2, r3
    1d3c:	4b27      	ldr	r3, [pc, #156]	; (1ddc <morse_communication+0x1fc>)
    1d3e:	21ff      	movs	r1, #255	; 0xff
    1d40:	5499      	strb	r1, [r3, r2]
    1d42:	4b27      	ldr	r3, [pc, #156]	; (1de0 <morse_communication+0x200>)
    1d44:	0018      	movs	r0, r3
    1d46:	f001 fe89 	bl	3a5c <puts>
    1d4a:	e016      	b.n	1d7a <morse_communication+0x19a>
    1d4c:	4b21      	ldr	r3, [pc, #132]	; (1dd4 <morse_communication+0x1f4>)
    1d4e:	781b      	ldrb	r3, [r3, #0]
    1d50:	2b95      	cmp	r3, #149	; 0x95
    1d52:	d10e      	bne.n	1d72 <morse_communication+0x192>
    1d54:	4b20      	ldr	r3, [pc, #128]	; (1dd8 <morse_communication+0x1f8>)
    1d56:	881b      	ldrh	r3, [r3, #0]
    1d58:	1c5a      	adds	r2, r3, #1
    1d5a:	b291      	uxth	r1, r2
    1d5c:	4a1e      	ldr	r2, [pc, #120]	; (1dd8 <morse_communication+0x1f8>)
    1d5e:	8011      	strh	r1, [r2, #0]
    1d60:	001a      	movs	r2, r3
    1d62:	4b1e      	ldr	r3, [pc, #120]	; (1ddc <morse_communication+0x1fc>)
    1d64:	2101      	movs	r1, #1
    1d66:	5499      	strb	r1, [r3, r2]
    1d68:	4b1e      	ldr	r3, [pc, #120]	; (1de4 <morse_communication+0x204>)
    1d6a:	0018      	movs	r0, r3
    1d6c:	f001 fe76 	bl	3a5c <puts>
    1d70:	e003      	b.n	1d7a <morse_communication+0x19a>
    1d72:	4b1d      	ldr	r3, [pc, #116]	; (1de8 <morse_communication+0x208>)
    1d74:	0018      	movs	r0, r3
    1d76:	f001 fe71 	bl	3a5c <puts>
    1d7a:	4b17      	ldr	r3, [pc, #92]	; (1dd8 <morse_communication+0x1f8>)
    1d7c:	881b      	ldrh	r3, [r3, #0]
    1d7e:	2b0a      	cmp	r3, #10
    1d80:	d902      	bls.n	1d88 <morse_communication+0x1a8>
    1d82:	4b15      	ldr	r3, [pc, #84]	; (1dd8 <morse_communication+0x1f8>)
    1d84:	2200      	movs	r2, #0
    1d86:	801a      	strh	r2, [r3, #0]
    1d88:	4b11      	ldr	r3, [pc, #68]	; (1dd0 <morse_communication+0x1f0>)
    1d8a:	781b      	ldrb	r3, [r3, #0]
    1d8c:	2b01      	cmp	r3, #1
    1d8e:	d103      	bne.n	1d98 <morse_communication+0x1b8>
    1d90:	4b09      	ldr	r3, [pc, #36]	; (1db8 <morse_communication+0x1d8>)
    1d92:	2206      	movs	r2, #6
    1d94:	701a      	strb	r2, [r3, #0]
    1d96:	e002      	b.n	1d9e <morse_communication+0x1be>
    1d98:	4b07      	ldr	r3, [pc, #28]	; (1db8 <morse_communication+0x1d8>)
    1d9a:	2201      	movs	r2, #1
    1d9c:	701a      	strb	r2, [r3, #0]
    1d9e:	4b0d      	ldr	r3, [pc, #52]	; (1dd4 <morse_communication+0x1f4>)
    1da0:	2200      	movs	r2, #0
    1da2:	701a      	strb	r2, [r3, #0]
    1da4:	e004      	b.n	1db0 <morse_communication+0x1d0>
    1da6:	46c0      	nop			; (mov r8, r8)
    1da8:	e002      	b.n	1db0 <morse_communication+0x1d0>
    1daa:	46c0      	nop			; (mov r8, r8)
    1dac:	e000      	b.n	1db0 <morse_communication+0x1d0>
    1dae:	46c0      	nop			; (mov r8, r8)
    1db0:	46c0      	nop			; (mov r8, r8)
    1db2:	46bd      	mov	sp, r7
    1db4:	b002      	add	sp, #8
    1db6:	bd80      	pop	{r7, pc}
    1db8:	200000ce 	.word	0x200000ce
    1dbc:	00005d80 	.word	0x00005d80
    1dc0:	200000cc 	.word	0x200000cc
    1dc4:	200000cd 	.word	0x200000cd
    1dc8:	20000004 	.word	0x20000004
    1dcc:	200000c8 	.word	0x200000c8
    1dd0:	200000dd 	.word	0x200000dd
    1dd4:	200000dc 	.word	0x200000dc
    1dd8:	200000da 	.word	0x200000da
    1ddc:	200000d0 	.word	0x200000d0
    1de0:	00005d40 	.word	0x00005d40
    1de4:	00005d54 	.word	0x00005d54
    1de8:	00005d68 	.word	0x00005d68

00001dec <_write>:
    1dec:	b580      	push	{r7, lr}
    1dee:	b086      	sub	sp, #24
    1df0:	af00      	add	r7, sp, #0
    1df2:	60f8      	str	r0, [r7, #12]
    1df4:	60b9      	str	r1, [r7, #8]
    1df6:	607a      	str	r2, [r7, #4]
    1df8:	2300      	movs	r3, #0
    1dfa:	617b      	str	r3, [r7, #20]
    1dfc:	2300      	movs	r3, #0
    1dfe:	617b      	str	r3, [r7, #20]
    1e00:	e009      	b.n	1e16 <_write+0x2a>
    1e02:	68ba      	ldr	r2, [r7, #8]
    1e04:	697b      	ldr	r3, [r7, #20]
    1e06:	18d3      	adds	r3, r2, r3
    1e08:	781b      	ldrb	r3, [r3, #0]
    1e0a:	0018      	movs	r0, r3
    1e0c:	f7ff fada 	bl	13c4 <uart_tx_byte>
    1e10:	697b      	ldr	r3, [r7, #20]
    1e12:	3301      	adds	r3, #1
    1e14:	617b      	str	r3, [r7, #20]
    1e16:	697a      	ldr	r2, [r7, #20]
    1e18:	687b      	ldr	r3, [r7, #4]
    1e1a:	429a      	cmp	r2, r3
    1e1c:	d3f1      	bcc.n	1e02 <_write+0x16>
    1e1e:	687b      	ldr	r3, [r7, #4]
    1e20:	0018      	movs	r0, r3
    1e22:	46bd      	mov	sp, r7
    1e24:	b006      	add	sp, #24
    1e26:	bd80      	pop	{r7, pc}

00001e28 <_read>:
    1e28:	b5b0      	push	{r4, r5, r7, lr}
    1e2a:	b086      	sub	sp, #24
    1e2c:	af00      	add	r7, sp, #0
    1e2e:	60f8      	str	r0, [r7, #12]
    1e30:	60b9      	str	r1, [r7, #8]
    1e32:	607a      	str	r2, [r7, #4]
    1e34:	2300      	movs	r3, #0
    1e36:	617b      	str	r3, [r7, #20]
    1e38:	2313      	movs	r3, #19
    1e3a:	18fb      	adds	r3, r7, r3
    1e3c:	2200      	movs	r2, #0
    1e3e:	701a      	strb	r2, [r3, #0]
    1e40:	2300      	movs	r3, #0
    1e42:	617b      	str	r3, [r7, #20]
    1e44:	e016      	b.n	1e74 <_read+0x4c>
    1e46:	2513      	movs	r5, #19
    1e48:	197c      	adds	r4, r7, r5
    1e4a:	f7ff faeb 	bl	1424 <uart_rx_byte>
    1e4e:	0003      	movs	r3, r0
    1e50:	7023      	strb	r3, [r4, #0]
    1e52:	697b      	ldr	r3, [r7, #20]
    1e54:	1c5a      	adds	r2, r3, #1
    1e56:	617a      	str	r2, [r7, #20]
    1e58:	68ba      	ldr	r2, [r7, #8]
    1e5a:	18d3      	adds	r3, r2, r3
    1e5c:	197a      	adds	r2, r7, r5
    1e5e:	7812      	ldrb	r2, [r2, #0]
    1e60:	701a      	strb	r2, [r3, #0]
    1e62:	197b      	adds	r3, r7, r5
    1e64:	781b      	ldrb	r3, [r3, #0]
    1e66:	2b0d      	cmp	r3, #13
    1e68:	d009      	beq.n	1e7e <_read+0x56>
    1e6a:	197b      	adds	r3, r7, r5
    1e6c:	781b      	ldrb	r3, [r3, #0]
    1e6e:	0018      	movs	r0, r3
    1e70:	f7ff faa8 	bl	13c4 <uart_tx_byte>
    1e74:	697a      	ldr	r2, [r7, #20]
    1e76:	687b      	ldr	r3, [r7, #4]
    1e78:	429a      	cmp	r2, r3
    1e7a:	d3e4      	bcc.n	1e46 <_read+0x1e>
    1e7c:	e000      	b.n	1e80 <_read+0x58>
    1e7e:	46c0      	nop			; (mov r8, r8)
    1e80:	697b      	ldr	r3, [r7, #20]
    1e82:	0018      	movs	r0, r3
    1e84:	46bd      	mov	sp, r7
    1e86:	b006      	add	sp, #24
    1e88:	bdb0      	pop	{r4, r5, r7, pc}

00001e8a <get_line_state>:
    1e8a:	b580      	push	{r7, lr}
    1e8c:	b084      	sub	sp, #16
    1e8e:	af00      	add	r7, sp, #0
    1e90:	0002      	movs	r2, r0
    1e92:	1dfb      	adds	r3, r7, #7
    1e94:	701a      	strb	r2, [r3, #0]
    1e96:	1dbb      	adds	r3, r7, #6
    1e98:	1c0a      	adds	r2, r1, #0
    1e9a:	701a      	strb	r2, [r3, #0]
    1e9c:	1dfb      	adds	r3, r7, #7
    1e9e:	781b      	ldrb	r3, [r3, #0]
    1ea0:	2201      	movs	r2, #1
    1ea2:	4053      	eors	r3, r2
    1ea4:	b2db      	uxtb	r3, r3
    1ea6:	2b00      	cmp	r3, #0
    1ea8:	d00b      	beq.n	1ec2 <get_line_state+0x38>
    1eaa:	1dbb      	adds	r3, r7, #6
    1eac:	781b      	ldrb	r3, [r3, #0]
    1eae:	2201      	movs	r2, #1
    1eb0:	4053      	eors	r3, r2
    1eb2:	b2db      	uxtb	r3, r3
    1eb4:	2b00      	cmp	r3, #0
    1eb6:	d004      	beq.n	1ec2 <get_line_state+0x38>
    1eb8:	230f      	movs	r3, #15
    1eba:	18fb      	adds	r3, r7, r3
    1ebc:	2200      	movs	r2, #0
    1ebe:	701a      	strb	r2, [r3, #0]
    1ec0:	e019      	b.n	1ef6 <get_line_state+0x6c>
    1ec2:	1dfb      	adds	r3, r7, #7
    1ec4:	781b      	ldrb	r3, [r3, #0]
    1ec6:	2b00      	cmp	r3, #0
    1ec8:	d008      	beq.n	1edc <get_line_state+0x52>
    1eca:	1dbb      	adds	r3, r7, #6
    1ecc:	781b      	ldrb	r3, [r3, #0]
    1ece:	2b00      	cmp	r3, #0
    1ed0:	d004      	beq.n	1edc <get_line_state+0x52>
    1ed2:	230f      	movs	r3, #15
    1ed4:	18fb      	adds	r3, r7, r3
    1ed6:	2202      	movs	r2, #2
    1ed8:	701a      	strb	r2, [r3, #0]
    1eda:	e00c      	b.n	1ef6 <get_line_state+0x6c>
    1edc:	1dfb      	adds	r3, r7, #7
    1ede:	781b      	ldrb	r3, [r3, #0]
    1ee0:	2b00      	cmp	r3, #0
    1ee2:	d004      	beq.n	1eee <get_line_state+0x64>
    1ee4:	230f      	movs	r3, #15
    1ee6:	18fb      	adds	r3, r7, r3
    1ee8:	2201      	movs	r2, #1
    1eea:	701a      	strb	r2, [r3, #0]
    1eec:	e003      	b.n	1ef6 <get_line_state+0x6c>
    1eee:	230f      	movs	r3, #15
    1ef0:	18fb      	adds	r3, r7, r3
    1ef2:	22ff      	movs	r2, #255	; 0xff
    1ef4:	701a      	strb	r2, [r3, #0]
    1ef6:	230f      	movs	r3, #15
    1ef8:	18fb      	adds	r3, r7, r3
    1efa:	781b      	ldrb	r3, [r3, #0]
    1efc:	b25b      	sxtb	r3, r3
    1efe:	0018      	movs	r0, r3
    1f00:	46bd      	mov	sp, r7
    1f02:	b004      	add	sp, #16
    1f04:	bd80      	pop	{r7, pc}
	...

00001f08 <line_following>:
    1f08:	b5b0      	push	{r4, r5, r7, lr}
    1f0a:	b082      	sub	sp, #8
    1f0c:	af00      	add	r7, sp, #0
    1f0e:	0002      	movs	r2, r0
    1f10:	1dfb      	adds	r3, r7, #7
    1f12:	701a      	strb	r2, [r3, #0]
    1f14:	1dfb      	adds	r3, r7, #7
    1f16:	781b      	ldrb	r3, [r3, #0]
    1f18:	b25b      	sxtb	r3, r3
    1f1a:	2b02      	cmp	r3, #2
    1f1c:	d108      	bne.n	1f30 <line_following+0x28>
    1f1e:	2100      	movs	r1, #0
    1f20:	2000      	movs	r0, #0
    1f22:	f000 fdc1 	bl	2aa8 <motor_set_percent>
    1f26:	2100      	movs	r1, #0
    1f28:	2001      	movs	r0, #1
    1f2a:	f000 fdbd 	bl	2aa8 <motor_set_percent>
    1f2e:	e03c      	b.n	1faa <line_following+0xa2>
    1f30:	1dfb      	adds	r3, r7, #7
    1f32:	2200      	movs	r2, #0
    1f34:	569a      	ldrsb	r2, [r3, r2]
    1f36:	0013      	movs	r3, r2
    1f38:	011b      	lsls	r3, r3, #4
    1f3a:	1a9b      	subs	r3, r3, r2
    1f3c:	009b      	lsls	r3, r3, #2
    1f3e:	0018      	movs	r0, r3
    1f40:	f003 fd50 	bl	59e4 <__aeabi_i2d>
    1f44:	0004      	movs	r4, r0
    1f46:	000d      	movs	r5, r1
    1f48:	4b1a      	ldr	r3, [pc, #104]	; (1fb4 <line_following+0xac>)
    1f4a:	681b      	ldr	r3, [r3, #0]
    1f4c:	0018      	movs	r0, r3
    1f4e:	f003 fd49 	bl	59e4 <__aeabi_i2d>
    1f52:	4a19      	ldr	r2, [pc, #100]	; (1fb8 <line_following+0xb0>)
    1f54:	4b19      	ldr	r3, [pc, #100]	; (1fbc <line_following+0xb4>)
    1f56:	f002 ff11 	bl	4d7c <__aeabi_dmul>
    1f5a:	0002      	movs	r2, r0
    1f5c:	000b      	movs	r3, r1
    1f5e:	0020      	movs	r0, r4
    1f60:	0029      	movs	r1, r5
    1f62:	f003 f977 	bl	5254 <__aeabi_dsub>
    1f66:	0002      	movs	r2, r0
    1f68:	000b      	movs	r3, r1
    1f6a:	0010      	movs	r0, r2
    1f6c:	0019      	movs	r1, r3
    1f6e:	f003 fd03 	bl	5978 <__aeabi_d2iz>
    1f72:	0002      	movs	r2, r0
    1f74:	4b12      	ldr	r3, [pc, #72]	; (1fc0 <line_following+0xb8>)
    1f76:	601a      	str	r2, [r3, #0]
    1f78:	4b11      	ldr	r3, [pc, #68]	; (1fc0 <line_following+0xb8>)
    1f7a:	681b      	ldr	r3, [r3, #0]
    1f7c:	2b64      	cmp	r3, #100	; 0x64
    1f7e:	dd03      	ble.n	1f88 <line_following+0x80>
    1f80:	4b0f      	ldr	r3, [pc, #60]	; (1fc0 <line_following+0xb8>)
    1f82:	2264      	movs	r2, #100	; 0x64
    1f84:	601a      	str	r2, [r3, #0]
    1f86:	e007      	b.n	1f98 <line_following+0x90>
    1f88:	4b0d      	ldr	r3, [pc, #52]	; (1fc0 <line_following+0xb8>)
    1f8a:	681b      	ldr	r3, [r3, #0]
    1f8c:	3364      	adds	r3, #100	; 0x64
    1f8e:	da03      	bge.n	1f98 <line_following+0x90>
    1f90:	4b0b      	ldr	r3, [pc, #44]	; (1fc0 <line_following+0xb8>)
    1f92:	2264      	movs	r2, #100	; 0x64
    1f94:	4252      	negs	r2, r2
    1f96:	601a      	str	r2, [r3, #0]
    1f98:	4b09      	ldr	r3, [pc, #36]	; (1fc0 <line_following+0xb8>)
    1f9a:	681b      	ldr	r3, [r3, #0]
    1f9c:	0018      	movs	r0, r3
    1f9e:	f000 f811 	bl	1fc4 <set_motor_diff>
    1fa2:	4b07      	ldr	r3, [pc, #28]	; (1fc0 <line_following+0xb8>)
    1fa4:	681a      	ldr	r2, [r3, #0]
    1fa6:	4b03      	ldr	r3, [pc, #12]	; (1fb4 <line_following+0xac>)
    1fa8:	601a      	str	r2, [r3, #0]
    1faa:	46c0      	nop			; (mov r8, r8)
    1fac:	46bd      	mov	sp, r7
    1fae:	b002      	add	sp, #8
    1fb0:	bdb0      	pop	{r4, r5, r7, pc}
    1fb2:	46c0      	nop			; (mov r8, r8)
    1fb4:	200000e4 	.word	0x200000e4
    1fb8:	9999999a 	.word	0x9999999a
    1fbc:	3fb99999 	.word	0x3fb99999
    1fc0:	200000e0 	.word	0x200000e0

00001fc4 <set_motor_diff>:
    1fc4:	b580      	push	{r7, lr}
    1fc6:	b082      	sub	sp, #8
    1fc8:	af00      	add	r7, sp, #0
    1fca:	6078      	str	r0, [r7, #4]
    1fcc:	687b      	ldr	r3, [r7, #4]
    1fce:	2b64      	cmp	r3, #100	; 0x64
    1fd0:	dd02      	ble.n	1fd8 <set_motor_diff+0x14>
    1fd2:	2364      	movs	r3, #100	; 0x64
    1fd4:	607b      	str	r3, [r7, #4]
    1fd6:	e005      	b.n	1fe4 <set_motor_diff+0x20>
    1fd8:	687b      	ldr	r3, [r7, #4]
    1fda:	3364      	adds	r3, #100	; 0x64
    1fdc:	da02      	bge.n	1fe4 <set_motor_diff+0x20>
    1fde:	2364      	movs	r3, #100	; 0x64
    1fe0:	425b      	negs	r3, r3
    1fe2:	607b      	str	r3, [r7, #4]
    1fe4:	4b2a      	ldr	r3, [pc, #168]	; (2090 <set_motor_diff+0xcc>)
    1fe6:	681a      	ldr	r2, [r3, #0]
    1fe8:	687b      	ldr	r3, [r7, #4]
    1fea:	1ad2      	subs	r2, r2, r3
    1fec:	4b29      	ldr	r3, [pc, #164]	; (2094 <set_motor_diff+0xd0>)
    1fee:	601a      	str	r2, [r3, #0]
    1ff0:	4b27      	ldr	r3, [pc, #156]	; (2090 <set_motor_diff+0xcc>)
    1ff2:	681a      	ldr	r2, [r3, #0]
    1ff4:	687b      	ldr	r3, [r7, #4]
    1ff6:	18d2      	adds	r2, r2, r3
    1ff8:	4b27      	ldr	r3, [pc, #156]	; (2098 <set_motor_diff+0xd4>)
    1ffa:	601a      	str	r2, [r3, #0]
    1ffc:	4b25      	ldr	r3, [pc, #148]	; (2094 <set_motor_diff+0xd0>)
    1ffe:	681b      	ldr	r3, [r3, #0]
    2000:	2b64      	cmp	r3, #100	; 0x64
    2002:	dd08      	ble.n	2016 <set_motor_diff+0x52>
    2004:	4b23      	ldr	r3, [pc, #140]	; (2094 <set_motor_diff+0xd0>)
    2006:	2264      	movs	r2, #100	; 0x64
    2008:	601a      	str	r2, [r3, #0]
    200a:	687b      	ldr	r3, [r7, #4]
    200c:	3332      	adds	r3, #50	; 0x32
    200e:	005a      	lsls	r2, r3, #1
    2010:	4b21      	ldr	r3, [pc, #132]	; (2098 <set_motor_diff+0xd4>)
    2012:	601a      	str	r2, [r3, #0]
    2014:	e02a      	b.n	206c <set_motor_diff+0xa8>
    2016:	4b1f      	ldr	r3, [pc, #124]	; (2094 <set_motor_diff+0xd0>)
    2018:	681b      	ldr	r3, [r3, #0]
    201a:	3364      	adds	r3, #100	; 0x64
    201c:	da09      	bge.n	2032 <set_motor_diff+0x6e>
    201e:	4b1d      	ldr	r3, [pc, #116]	; (2094 <set_motor_diff+0xd0>)
    2020:	2264      	movs	r2, #100	; 0x64
    2022:	4252      	negs	r2, r2
    2024:	601a      	str	r2, [r3, #0]
    2026:	687b      	ldr	r3, [r7, #4]
    2028:	3b32      	subs	r3, #50	; 0x32
    202a:	005a      	lsls	r2, r3, #1
    202c:	4b1a      	ldr	r3, [pc, #104]	; (2098 <set_motor_diff+0xd4>)
    202e:	601a      	str	r2, [r3, #0]
    2030:	e01c      	b.n	206c <set_motor_diff+0xa8>
    2032:	4b19      	ldr	r3, [pc, #100]	; (2098 <set_motor_diff+0xd4>)
    2034:	681b      	ldr	r3, [r3, #0]
    2036:	2b64      	cmp	r3, #100	; 0x64
    2038:	dd09      	ble.n	204e <set_motor_diff+0x8a>
    203a:	4b17      	ldr	r3, [pc, #92]	; (2098 <set_motor_diff+0xd4>)
    203c:	2264      	movs	r2, #100	; 0x64
    203e:	601a      	str	r2, [r3, #0]
    2040:	687b      	ldr	r3, [r7, #4]
    2042:	2232      	movs	r2, #50	; 0x32
    2044:	1ad3      	subs	r3, r2, r3
    2046:	005a      	lsls	r2, r3, #1
    2048:	4b12      	ldr	r3, [pc, #72]	; (2094 <set_motor_diff+0xd0>)
    204a:	601a      	str	r2, [r3, #0]
    204c:	e00e      	b.n	206c <set_motor_diff+0xa8>
    204e:	4b12      	ldr	r3, [pc, #72]	; (2098 <set_motor_diff+0xd4>)
    2050:	681b      	ldr	r3, [r3, #0]
    2052:	3364      	adds	r3, #100	; 0x64
    2054:	da0a      	bge.n	206c <set_motor_diff+0xa8>
    2056:	4b10      	ldr	r3, [pc, #64]	; (2098 <set_motor_diff+0xd4>)
    2058:	2264      	movs	r2, #100	; 0x64
    205a:	4252      	negs	r2, r2
    205c:	601a      	str	r2, [r3, #0]
    205e:	687b      	ldr	r3, [r7, #4]
    2060:	2232      	movs	r2, #50	; 0x32
    2062:	4252      	negs	r2, r2
    2064:	1ad3      	subs	r3, r2, r3
    2066:	005a      	lsls	r2, r3, #1
    2068:	4b0a      	ldr	r3, [pc, #40]	; (2094 <set_motor_diff+0xd0>)
    206a:	601a      	str	r2, [r3, #0]
    206c:	4b09      	ldr	r3, [pc, #36]	; (2094 <set_motor_diff+0xd0>)
    206e:	681b      	ldr	r3, [r3, #0]
    2070:	b25b      	sxtb	r3, r3
    2072:	0019      	movs	r1, r3
    2074:	2000      	movs	r0, #0
    2076:	f000 fd17 	bl	2aa8 <motor_set_percent>
    207a:	4b07      	ldr	r3, [pc, #28]	; (2098 <set_motor_diff+0xd4>)
    207c:	681b      	ldr	r3, [r3, #0]
    207e:	b25b      	sxtb	r3, r3
    2080:	0019      	movs	r1, r3
    2082:	2001      	movs	r0, #1
    2084:	f000 fd10 	bl	2aa8 <motor_set_percent>
    2088:	46c0      	nop			; (mov r8, r8)
    208a:	46bd      	mov	sp, r7
    208c:	b002      	add	sp, #8
    208e:	bd80      	pop	{r7, pc}
    2090:	20000008 	.word	0x20000008
    2094:	20000108 	.word	0x20000108
    2098:	2000010c 	.word	0x2000010c

0000209c <reverse_bitbot>:
    209c:	b590      	push	{r4, r7, lr}
    209e:	b083      	sub	sp, #12
    20a0:	af00      	add	r7, sp, #0
    20a2:	1dfc      	adds	r4, r7, #7
    20a4:	2000      	movs	r0, #0
    20a6:	f000 fedb 	bl	2e60 <line_sensor_is_line_present>
    20aa:	0003      	movs	r3, r0
    20ac:	7023      	strb	r3, [r4, #0]
    20ae:	1dbc      	adds	r4, r7, #6
    20b0:	2001      	movs	r0, #1
    20b2:	f000 fed5 	bl	2e60 <line_sensor_is_line_present>
    20b6:	0003      	movs	r3, r0
    20b8:	7023      	strb	r3, [r4, #0]
    20ba:	1d7c      	adds	r4, r7, #5
    20bc:	1dbb      	adds	r3, r7, #6
    20be:	781a      	ldrb	r2, [r3, #0]
    20c0:	1dfb      	adds	r3, r7, #7
    20c2:	781b      	ldrb	r3, [r3, #0]
    20c4:	0011      	movs	r1, r2
    20c6:	0018      	movs	r0, r3
    20c8:	f7ff fedf 	bl	1e8a <get_line_state>
    20cc:	0003      	movs	r3, r0
    20ce:	7023      	strb	r3, [r4, #0]
    20d0:	4b1f      	ldr	r3, [pc, #124]	; (2150 <reverse_bitbot+0xb4>)
    20d2:	781b      	ldrb	r3, [r3, #0]
    20d4:	2b00      	cmp	r3, #0
    20d6:	d11a      	bne.n	210e <reverse_bitbot+0x72>
    20d8:	211e      	movs	r1, #30
    20da:	2000      	movs	r0, #0
    20dc:	f000 fce4 	bl	2aa8 <motor_set_percent>
    20e0:	231e      	movs	r3, #30
    20e2:	425b      	negs	r3, r3
    20e4:	0019      	movs	r1, r3
    20e6:	2001      	movs	r0, #1
    20e8:	f000 fcde 	bl	2aa8 <motor_set_percent>
    20ec:	20c8      	movs	r0, #200	; 0xc8
    20ee:	f7fe fc71 	bl	9d4 <timer_wait_ms>
    20f2:	1d7b      	adds	r3, r7, #5
    20f4:	781b      	ldrb	r3, [r3, #0]
    20f6:	b25b      	sxtb	r3, r3
    20f8:	2b00      	cmp	r3, #0
    20fa:	d124      	bne.n	2146 <reverse_bitbot+0xaa>
    20fc:	f7fe fc46 	bl	98c <timer_get_time_ms>
    2100:	0002      	movs	r2, r0
    2102:	4b14      	ldr	r3, [pc, #80]	; (2154 <reverse_bitbot+0xb8>)
    2104:	601a      	str	r2, [r3, #0]
    2106:	4b12      	ldr	r3, [pc, #72]	; (2150 <reverse_bitbot+0xb4>)
    2108:	2201      	movs	r2, #1
    210a:	701a      	strb	r2, [r3, #0]
    210c:	e01b      	b.n	2146 <reverse_bitbot+0xaa>
    210e:	211e      	movs	r1, #30
    2110:	2000      	movs	r0, #0
    2112:	f000 fcc9 	bl	2aa8 <motor_set_percent>
    2116:	231e      	movs	r3, #30
    2118:	425b      	negs	r3, r3
    211a:	0019      	movs	r1, r3
    211c:	2001      	movs	r0, #1
    211e:	f000 fcc3 	bl	2aa8 <motor_set_percent>
    2122:	2032      	movs	r0, #50	; 0x32
    2124:	f7fe fc56 	bl	9d4 <timer_wait_ms>
    2128:	1d7b      	adds	r3, r7, #5
    212a:	781b      	ldrb	r3, [r3, #0]
    212c:	b25b      	sxtb	r3, r3
    212e:	2b01      	cmp	r3, #1
    2130:	d004      	beq.n	213c <reverse_bitbot+0xa0>
    2132:	1d7b      	adds	r3, r7, #5
    2134:	781b      	ldrb	r3, [r3, #0]
    2136:	b25b      	sxtb	r3, r3
    2138:	3301      	adds	r3, #1
    213a:	d104      	bne.n	2146 <reverse_bitbot+0xaa>
    213c:	4b04      	ldr	r3, [pc, #16]	; (2150 <reverse_bitbot+0xb4>)
    213e:	2200      	movs	r2, #0
    2140:	701a      	strb	r2, [r3, #0]
    2142:	2301      	movs	r3, #1
    2144:	e000      	b.n	2148 <reverse_bitbot+0xac>
    2146:	2300      	movs	r3, #0
    2148:	0018      	movs	r0, r3
    214a:	46bd      	mov	sp, r7
    214c:	b003      	add	sp, #12
    214e:	bd90      	pop	{r4, r7, pc}
    2150:	200000df 	.word	0x200000df
    2154:	200000e8 	.word	0x200000e8

00002158 <main>:
    2158:	b580      	push	{r7, lr}
    215a:	af00      	add	r7, sp, #0
    215c:	f7ff f90c 	bl	1378 <uart_init>
    2160:	f7fe fbcc 	bl	8fc <timer_init>
    2164:	f7fe f9f2 	bl	54c <i2c_init>
    2168:	f000 fe6c 	bl	2e44 <line_sensor_init>
    216c:	f000 fc80 	bl	2a70 <motor_init>
    2170:	f000 fb98 	bl	28a4 <light_sensor_init>
    2174:	f000 fd84 	bl	2c80 <ultrasonic_sensor_init>
    2178:	f7ff fac6 	bl	1708 <led_matrix_init>
    217c:	f7ff fc67 	bl	1a4e <compass_init>
    2180:	23fa      	movs	r3, #250	; 0xfa
    2182:	009b      	lsls	r3, r3, #2
    2184:	0018      	movs	r0, r3
    2186:	f7fe fc25 	bl	9d4 <timer_wait_ms>
    218a:	4b4c      	ldr	r3, [pc, #304]	; (22bc <main+0x164>)
    218c:	781b      	ldrb	r3, [r3, #0]
    218e:	2b09      	cmp	r3, #9
    2190:	d900      	bls.n	2194 <main+0x3c>
    2192:	e084      	b.n	229e <main+0x146>
    2194:	009a      	lsls	r2, r3, #2
    2196:	4b4a      	ldr	r3, [pc, #296]	; (22c0 <main+0x168>)
    2198:	18d3      	adds	r3, r2, r3
    219a:	681b      	ldr	r3, [r3, #0]
    219c:	469f      	mov	pc, r3
    219e:	f000 fa2b 	bl	25f8 <goto_barrier>
    21a2:	0003      	movs	r3, r0
    21a4:	001a      	movs	r2, r3
    21a6:	4b47      	ldr	r3, [pc, #284]	; (22c4 <main+0x16c>)
    21a8:	701a      	strb	r2, [r3, #0]
    21aa:	4b46      	ldr	r3, [pc, #280]	; (22c4 <main+0x16c>)
    21ac:	781b      	ldrb	r3, [r3, #0]
    21ae:	2b00      	cmp	r3, #0
    21b0:	d100      	bne.n	21b4 <main+0x5c>
    21b2:	e076      	b.n	22a2 <main+0x14a>
    21b4:	4b41      	ldr	r3, [pc, #260]	; (22bc <main+0x164>)
    21b6:	2201      	movs	r2, #1
    21b8:	701a      	strb	r2, [r3, #0]
    21ba:	4b40      	ldr	r3, [pc, #256]	; (22bc <main+0x164>)
    21bc:	781b      	ldrb	r3, [r3, #0]
    21be:	001a      	movs	r2, r3
    21c0:	4b41      	ldr	r3, [pc, #260]	; (22c8 <main+0x170>)
    21c2:	0011      	movs	r1, r2
    21c4:	0018      	movs	r0, r3
    21c6:	f001 fbbd 	bl	3944 <iprintf>
    21ca:	e06a      	b.n	22a2 <main+0x14a>
    21cc:	f000 fa60 	bl	2690 <barrier_lifted>
    21d0:	1e03      	subs	r3, r0, #0
    21d2:	d068      	beq.n	22a6 <main+0x14e>
    21d4:	4b39      	ldr	r3, [pc, #228]	; (22bc <main+0x164>)
    21d6:	2202      	movs	r2, #2
    21d8:	701a      	strb	r2, [r3, #0]
    21da:	4b38      	ldr	r3, [pc, #224]	; (22bc <main+0x164>)
    21dc:	781b      	ldrb	r3, [r3, #0]
    21de:	001a      	movs	r2, r3
    21e0:	4b39      	ldr	r3, [pc, #228]	; (22c8 <main+0x170>)
    21e2:	0011      	movs	r1, r2
    21e4:	0018      	movs	r0, r3
    21e6:	f001 fbad 	bl	3944 <iprintf>
    21ea:	e05c      	b.n	22a6 <main+0x14e>
    21ec:	f000 fa5e 	bl	26ac <goto_lamp>
    21f0:	0003      	movs	r3, r0
    21f2:	001a      	movs	r2, r3
    21f4:	4b33      	ldr	r3, [pc, #204]	; (22c4 <main+0x16c>)
    21f6:	701a      	strb	r2, [r3, #0]
    21f8:	4b32      	ldr	r3, [pc, #200]	; (22c4 <main+0x16c>)
    21fa:	781b      	ldrb	r3, [r3, #0]
    21fc:	2b00      	cmp	r3, #0
    21fe:	d054      	beq.n	22aa <main+0x152>
    2200:	4b2e      	ldr	r3, [pc, #184]	; (22bc <main+0x164>)
    2202:	2203      	movs	r2, #3
    2204:	701a      	strb	r2, [r3, #0]
    2206:	4b2d      	ldr	r3, [pc, #180]	; (22bc <main+0x164>)
    2208:	781b      	ldrb	r3, [r3, #0]
    220a:	001a      	movs	r2, r3
    220c:	4b2e      	ldr	r3, [pc, #184]	; (22c8 <main+0x170>)
    220e:	0011      	movs	r1, r2
    2210:	0018      	movs	r0, r3
    2212:	f001 fb97 	bl	3944 <iprintf>
    2216:	e048      	b.n	22aa <main+0x152>
    2218:	f7ff fce2 	bl	1be0 <morse_communication>
    221c:	4b2b      	ldr	r3, [pc, #172]	; (22cc <main+0x174>)
    221e:	781b      	ldrb	r3, [r3, #0]
    2220:	2b06      	cmp	r3, #6
    2222:	d144      	bne.n	22ae <main+0x156>
    2224:	4b25      	ldr	r3, [pc, #148]	; (22bc <main+0x164>)
    2226:	2205      	movs	r2, #5
    2228:	701a      	strb	r2, [r3, #0]
    222a:	4b24      	ldr	r3, [pc, #144]	; (22bc <main+0x164>)
    222c:	781b      	ldrb	r3, [r3, #0]
    222e:	001a      	movs	r2, r3
    2230:	4b25      	ldr	r3, [pc, #148]	; (22c8 <main+0x170>)
    2232:	0011      	movs	r1, r2
    2234:	0018      	movs	r0, r3
    2236:	f001 fb85 	bl	3944 <iprintf>
    223a:	e038      	b.n	22ae <main+0x156>
    223c:	f000 f85e 	bl	22fc <routing_state_machine>
    2240:	e038      	b.n	22b4 <main+0x15c>
    2242:	f7ff fc91 	bl	1b68 <get_orientation>
    2246:	0003      	movs	r3, r0
    2248:	001a      	movs	r2, r3
    224a:	4b21      	ldr	r3, [pc, #132]	; (22d0 <main+0x178>)
    224c:	801a      	strh	r2, [r3, #0]
    224e:	4b20      	ldr	r3, [pc, #128]	; (22d0 <main+0x178>)
    2250:	2200      	movs	r2, #0
    2252:	5e9b      	ldrsh	r3, [r3, r2]
    2254:	001a      	movs	r2, r3
    2256:	4b1f      	ldr	r3, [pc, #124]	; (22d4 <main+0x17c>)
    2258:	0011      	movs	r1, r2
    225a:	0018      	movs	r0, r3
    225c:	f001 fb72 	bl	3944 <iprintf>
    2260:	f7ff fc06 	bl	1a70 <read_magnetometer_y>
    2264:	0003      	movs	r3, r0
    2266:	001a      	movs	r2, r3
    2268:	4b1b      	ldr	r3, [pc, #108]	; (22d8 <main+0x180>)
    226a:	0011      	movs	r1, r2
    226c:	0018      	movs	r0, r3
    226e:	f001 fb69 	bl	3944 <iprintf>
    2272:	4b12      	ldr	r3, [pc, #72]	; (22bc <main+0x164>)
    2274:	2207      	movs	r2, #7
    2276:	701a      	strb	r2, [r3, #0]
    2278:	e01c      	b.n	22b4 <main+0x15c>
    227a:	f7ff ff0f 	bl	209c <reverse_bitbot>
    227e:	1e03      	subs	r3, r0, #0
    2280:	d017      	beq.n	22b2 <main+0x15a>
    2282:	4b0e      	ldr	r3, [pc, #56]	; (22bc <main+0x164>)
    2284:	2208      	movs	r2, #8
    2286:	701a      	strb	r2, [r3, #0]
    2288:	e013      	b.n	22b2 <main+0x15a>
    228a:	4b11      	ldr	r3, [pc, #68]	; (22d0 <main+0x178>)
    228c:	2200      	movs	r2, #0
    228e:	5e9b      	ldrsh	r3, [r3, r2]
    2290:	0018      	movs	r0, r3
    2292:	f000 f8ff 	bl	2494 <navigate_home>
    2296:	e00d      	b.n	22b4 <main+0x15c>
    2298:	f7ff fab6 	bl	1808 <led_matrix_update>
    229c:	e00a      	b.n	22b4 <main+0x15c>
    229e:	46c0      	nop			; (mov r8, r8)
    22a0:	e008      	b.n	22b4 <main+0x15c>
    22a2:	46c0      	nop			; (mov r8, r8)
    22a4:	e006      	b.n	22b4 <main+0x15c>
    22a6:	46c0      	nop			; (mov r8, r8)
    22a8:	e004      	b.n	22b4 <main+0x15c>
    22aa:	46c0      	nop			; (mov r8, r8)
    22ac:	e002      	b.n	22b4 <main+0x15c>
    22ae:	46c0      	nop			; (mov r8, r8)
    22b0:	e000      	b.n	22b4 <main+0x15c>
    22b2:	46c0      	nop			; (mov r8, r8)
    22b4:	f7ff faa8 	bl	1808 <led_matrix_update>
    22b8:	e767      	b.n	218a <main+0x32>
    22ba:	46c0      	nop			; (mov r8, r8)
    22bc:	200000ec 	.word	0x200000ec
    22c0:	00005dd4 	.word	0x00005dd4
    22c4:	200000ed 	.word	0x200000ed
    22c8:	00005d9c 	.word	0x00005d9c
    22cc:	200000ce 	.word	0x200000ce
    22d0:	200000ee 	.word	0x200000ee
    22d4:	00005da8 	.word	0x00005da8
    22d8:	00005dc0 	.word	0x00005dc0

000022dc <init_edges>:
    22dc:	b580      	push	{r7, lr}
    22de:	af00      	add	r7, sp, #0
    22e0:	4b04      	ldr	r3, [pc, #16]	; (22f4 <init_edges+0x18>)
    22e2:	2201      	movs	r2, #1
    22e4:	801a      	strh	r2, [r3, #0]
    22e6:	4b04      	ldr	r3, [pc, #16]	; (22f8 <init_edges+0x1c>)
    22e8:	2201      	movs	r2, #1
    22ea:	701a      	strb	r2, [r3, #0]
    22ec:	46c0      	nop			; (mov r8, r8)
    22ee:	46bd      	mov	sp, r7
    22f0:	bd80      	pop	{r7, pc}
    22f2:	46c0      	nop			; (mov r8, r8)
    22f4:	200000da 	.word	0x200000da
    22f8:	200000d0 	.word	0x200000d0

000022fc <routing_state_machine>:
    22fc:	b580      	push	{r7, lr}
    22fe:	b082      	sub	sp, #8
    2300:	af00      	add	r7, sp, #0
    2302:	2000      	movs	r0, #0
    2304:	f000 fdac 	bl	2e60 <line_sensor_is_line_present>
    2308:	0003      	movs	r3, r0
    230a:	001a      	movs	r2, r3
    230c:	4b58      	ldr	r3, [pc, #352]	; (2470 <routing_state_machine+0x174>)
    230e:	701a      	strb	r2, [r3, #0]
    2310:	2001      	movs	r0, #1
    2312:	f000 fda5 	bl	2e60 <line_sensor_is_line_present>
    2316:	0003      	movs	r3, r0
    2318:	001a      	movs	r2, r3
    231a:	4b56      	ldr	r3, [pc, #344]	; (2474 <routing_state_machine+0x178>)
    231c:	701a      	strb	r2, [r3, #0]
    231e:	4b54      	ldr	r3, [pc, #336]	; (2470 <routing_state_machine+0x174>)
    2320:	781a      	ldrb	r2, [r3, #0]
    2322:	4b54      	ldr	r3, [pc, #336]	; (2474 <routing_state_machine+0x178>)
    2324:	781b      	ldrb	r3, [r3, #0]
    2326:	0019      	movs	r1, r3
    2328:	0010      	movs	r0, r2
    232a:	f7ff fdae 	bl	1e8a <get_line_state>
    232e:	0003      	movs	r3, r0
    2330:	001a      	movs	r2, r3
    2332:	4b51      	ldr	r3, [pc, #324]	; (2478 <routing_state_machine+0x17c>)
    2334:	701a      	strb	r2, [r3, #0]
    2336:	4b51      	ldr	r3, [pc, #324]	; (247c <routing_state_machine+0x180>)
    2338:	781b      	ldrb	r3, [r3, #0]
    233a:	2b02      	cmp	r3, #2
    233c:	d05a      	beq.n	23f4 <routing_state_machine+0xf8>
    233e:	dd00      	ble.n	2342 <routing_state_machine+0x46>
    2340:	e091      	b.n	2466 <routing_state_machine+0x16a>
    2342:	2b00      	cmp	r3, #0
    2344:	d002      	beq.n	234c <routing_state_machine+0x50>
    2346:	2b01      	cmp	r3, #1
    2348:	d01f      	beq.n	238a <routing_state_machine+0x8e>
    234a:	e08c      	b.n	2466 <routing_state_machine+0x16a>
    234c:	4b4a      	ldr	r3, [pc, #296]	; (2478 <routing_state_machine+0x17c>)
    234e:	781b      	ldrb	r3, [r3, #0]
    2350:	b25b      	sxtb	r3, r3
    2352:	2b02      	cmp	r3, #2
    2354:	d111      	bne.n	237a <routing_state_machine+0x7e>
    2356:	4b49      	ldr	r3, [pc, #292]	; (247c <routing_state_machine+0x180>)
    2358:	2201      	movs	r2, #1
    235a:	701a      	strb	r2, [r3, #0]
    235c:	f7fe fb16 	bl	98c <timer_get_time_ms>
    2360:	0002      	movs	r2, r0
    2362:	4b47      	ldr	r3, [pc, #284]	; (2480 <routing_state_machine+0x184>)
    2364:	601a      	str	r2, [r3, #0]
    2366:	4b47      	ldr	r3, [pc, #284]	; (2484 <routing_state_machine+0x188>)
    2368:	781b      	ldrb	r3, [r3, #0]
    236a:	2b09      	cmp	r3, #9
    236c:	d805      	bhi.n	237a <routing_state_machine+0x7e>
    236e:	4b45      	ldr	r3, [pc, #276]	; (2484 <routing_state_machine+0x188>)
    2370:	781b      	ldrb	r3, [r3, #0]
    2372:	3301      	adds	r3, #1
    2374:	b2da      	uxtb	r2, r3
    2376:	4b43      	ldr	r3, [pc, #268]	; (2484 <routing_state_machine+0x188>)
    2378:	701a      	strb	r2, [r3, #0]
    237a:	4b3f      	ldr	r3, [pc, #252]	; (2478 <routing_state_machine+0x17c>)
    237c:	781b      	ldrb	r3, [r3, #0]
    237e:	b25b      	sxtb	r3, r3
    2380:	0019      	movs	r1, r3
    2382:	2032      	movs	r0, #50	; 0x32
    2384:	f000 f9e4 	bl	2750 <drive>
    2388:	e06d      	b.n	2466 <routing_state_machine+0x16a>
    238a:	4b3e      	ldr	r3, [pc, #248]	; (2484 <routing_state_machine+0x188>)
    238c:	781b      	ldrb	r3, [r3, #0]
    238e:	b29a      	uxth	r2, r3
    2390:	4b3d      	ldr	r3, [pc, #244]	; (2488 <routing_state_machine+0x18c>)
    2392:	881b      	ldrh	r3, [r3, #0]
    2394:	429a      	cmp	r2, r3
    2396:	d816      	bhi.n	23c6 <routing_state_machine+0xca>
    2398:	4b37      	ldr	r3, [pc, #220]	; (2478 <routing_state_machine+0x17c>)
    239a:	781b      	ldrb	r3, [r3, #0]
    239c:	b25b      	sxtb	r3, r3
    239e:	2b02      	cmp	r3, #2
    23a0:	d109      	bne.n	23b6 <routing_state_machine+0xba>
    23a2:	4b38      	ldr	r3, [pc, #224]	; (2484 <routing_state_machine+0x188>)
    23a4:	781b      	ldrb	r3, [r3, #0]
    23a6:	3b01      	subs	r3, #1
    23a8:	4a38      	ldr	r2, [pc, #224]	; (248c <routing_state_machine+0x190>)
    23aa:	56d3      	ldrsb	r3, [r2, r3]
    23ac:	0019      	movs	r1, r3
    23ae:	2032      	movs	r0, #50	; 0x32
    23b0:	f000 f9ce 	bl	2750 <drive>
    23b4:	e00b      	b.n	23ce <routing_state_machine+0xd2>
    23b6:	4b30      	ldr	r3, [pc, #192]	; (2478 <routing_state_machine+0x17c>)
    23b8:	781b      	ldrb	r3, [r3, #0]
    23ba:	b25b      	sxtb	r3, r3
    23bc:	0019      	movs	r1, r3
    23be:	2032      	movs	r0, #50	; 0x32
    23c0:	f000 f9c6 	bl	2750 <drive>
    23c4:	e003      	b.n	23ce <routing_state_machine+0xd2>
    23c6:	4b2d      	ldr	r3, [pc, #180]	; (247c <routing_state_machine+0x180>)
    23c8:	2202      	movs	r2, #2
    23ca:	701a      	strb	r2, [r3, #0]
    23cc:	e04b      	b.n	2466 <routing_state_machine+0x16a>
    23ce:	4b2a      	ldr	r3, [pc, #168]	; (2478 <routing_state_machine+0x17c>)
    23d0:	781b      	ldrb	r3, [r3, #0]
    23d2:	b25b      	sxtb	r3, r3
    23d4:	2b02      	cmp	r3, #2
    23d6:	d045      	beq.n	2464 <routing_state_machine+0x168>
    23d8:	f7fe fad8 	bl	98c <timer_get_time_ms>
    23dc:	0002      	movs	r2, r0
    23de:	4b28      	ldr	r3, [pc, #160]	; (2480 <routing_state_machine+0x184>)
    23e0:	681b      	ldr	r3, [r3, #0]
    23e2:	1ad2      	subs	r2, r2, r3
    23e4:	23fa      	movs	r3, #250	; 0xfa
    23e6:	005b      	lsls	r3, r3, #1
    23e8:	429a      	cmp	r2, r3
    23ea:	d93b      	bls.n	2464 <routing_state_machine+0x168>
    23ec:	4b23      	ldr	r3, [pc, #140]	; (247c <routing_state_machine+0x180>)
    23ee:	2200      	movs	r2, #0
    23f0:	701a      	strb	r2, [r3, #0]
    23f2:	e037      	b.n	2464 <routing_state_machine+0x168>
    23f4:	4b20      	ldr	r3, [pc, #128]	; (2478 <routing_state_machine+0x17c>)
    23f6:	781b      	ldrb	r3, [r3, #0]
    23f8:	b25b      	sxtb	r3, r3
    23fa:	0019      	movs	r1, r3
    23fc:	2000      	movs	r0, #0
    23fe:	f000 f9a7 	bl	2750 <drive>
    2402:	4b1e      	ldr	r3, [pc, #120]	; (247c <routing_state_machine+0x180>)
    2404:	2200      	movs	r2, #0
    2406:	701a      	strb	r2, [r3, #0]
    2408:	4b1e      	ldr	r3, [pc, #120]	; (2484 <routing_state_machine+0x188>)
    240a:	2200      	movs	r2, #0
    240c:	701a      	strb	r2, [r3, #0]
    240e:	1dfb      	adds	r3, r7, #7
    2410:	2200      	movs	r2, #0
    2412:	701a      	strb	r2, [r3, #0]
    2414:	e01b      	b.n	244e <routing_state_machine+0x152>
    2416:	1dfb      	adds	r3, r7, #7
    2418:	781b      	ldrb	r3, [r3, #0]
    241a:	4a1c      	ldr	r2, [pc, #112]	; (248c <routing_state_machine+0x190>)
    241c:	56d3      	ldrsb	r3, [r2, r3]
    241e:	3301      	adds	r3, #1
    2420:	d105      	bne.n	242e <routing_state_machine+0x132>
    2422:	1dfb      	adds	r3, r7, #7
    2424:	781b      	ldrb	r3, [r3, #0]
    2426:	4a19      	ldr	r2, [pc, #100]	; (248c <routing_state_machine+0x190>)
    2428:	2101      	movs	r1, #1
    242a:	54d1      	strb	r1, [r2, r3]
    242c:	e00a      	b.n	2444 <routing_state_machine+0x148>
    242e:	1dfb      	adds	r3, r7, #7
    2430:	781b      	ldrb	r3, [r3, #0]
    2432:	4a16      	ldr	r2, [pc, #88]	; (248c <routing_state_machine+0x190>)
    2434:	56d3      	ldrsb	r3, [r2, r3]
    2436:	2b01      	cmp	r3, #1
    2438:	d104      	bne.n	2444 <routing_state_machine+0x148>
    243a:	1dfb      	adds	r3, r7, #7
    243c:	781b      	ldrb	r3, [r3, #0]
    243e:	4a13      	ldr	r2, [pc, #76]	; (248c <routing_state_machine+0x190>)
    2440:	21ff      	movs	r1, #255	; 0xff
    2442:	54d1      	strb	r1, [r2, r3]
    2444:	1dfb      	adds	r3, r7, #7
    2446:	781a      	ldrb	r2, [r3, #0]
    2448:	1dfb      	adds	r3, r7, #7
    244a:	3201      	adds	r2, #1
    244c:	701a      	strb	r2, [r3, #0]
    244e:	1dfb      	adds	r3, r7, #7
    2450:	781b      	ldrb	r3, [r3, #0]
    2452:	b29a      	uxth	r2, r3
    2454:	4b0c      	ldr	r3, [pc, #48]	; (2488 <routing_state_machine+0x18c>)
    2456:	881b      	ldrh	r3, [r3, #0]
    2458:	429a      	cmp	r2, r3
    245a:	d3dc      	bcc.n	2416 <routing_state_machine+0x11a>
    245c:	4b0c      	ldr	r3, [pc, #48]	; (2490 <routing_state_machine+0x194>)
    245e:	2206      	movs	r2, #6
    2460:	701a      	strb	r2, [r3, #0]
    2462:	e000      	b.n	2466 <routing_state_machine+0x16a>
    2464:	46c0      	nop			; (mov r8, r8)
    2466:	46c0      	nop			; (mov r8, r8)
    2468:	46bd      	mov	sp, r7
    246a:	b002      	add	sp, #8
    246c:	bd80      	pop	{r7, pc}
    246e:	46c0      	nop			; (mov r8, r8)
    2470:	200000f0 	.word	0x200000f0
    2474:	200000f1 	.word	0x200000f1
    2478:	200000f3 	.word	0x200000f3
    247c:	200000f2 	.word	0x200000f2
    2480:	200000f4 	.word	0x200000f4
    2484:	200000f8 	.word	0x200000f8
    2488:	200000da 	.word	0x200000da
    248c:	200000d0 	.word	0x200000d0
    2490:	200000ec 	.word	0x200000ec

00002494 <navigate_home>:
    2494:	b580      	push	{r7, lr}
    2496:	b082      	sub	sp, #8
    2498:	af00      	add	r7, sp, #0
    249a:	0002      	movs	r2, r0
    249c:	1dbb      	adds	r3, r7, #6
    249e:	801a      	strh	r2, [r3, #0]
    24a0:	2000      	movs	r0, #0
    24a2:	f000 fcdd 	bl	2e60 <line_sensor_is_line_present>
    24a6:	0003      	movs	r3, r0
    24a8:	001a      	movs	r2, r3
    24aa:	4b4a      	ldr	r3, [pc, #296]	; (25d4 <navigate_home+0x140>)
    24ac:	701a      	strb	r2, [r3, #0]
    24ae:	2001      	movs	r0, #1
    24b0:	f000 fcd6 	bl	2e60 <line_sensor_is_line_present>
    24b4:	0003      	movs	r3, r0
    24b6:	001a      	movs	r2, r3
    24b8:	4b47      	ldr	r3, [pc, #284]	; (25d8 <navigate_home+0x144>)
    24ba:	701a      	strb	r2, [r3, #0]
    24bc:	4b45      	ldr	r3, [pc, #276]	; (25d4 <navigate_home+0x140>)
    24be:	781a      	ldrb	r2, [r3, #0]
    24c0:	4b45      	ldr	r3, [pc, #276]	; (25d8 <navigate_home+0x144>)
    24c2:	781b      	ldrb	r3, [r3, #0]
    24c4:	0019      	movs	r1, r3
    24c6:	0010      	movs	r0, r2
    24c8:	f7ff fcdf 	bl	1e8a <get_line_state>
    24cc:	0003      	movs	r3, r0
    24ce:	001a      	movs	r2, r3
    24d0:	4b42      	ldr	r3, [pc, #264]	; (25dc <navigate_home+0x148>)
    24d2:	701a      	strb	r2, [r3, #0]
    24d4:	4b42      	ldr	r3, [pc, #264]	; (25e0 <navigate_home+0x14c>)
    24d6:	781b      	ldrb	r3, [r3, #0]
    24d8:	2b02      	cmp	r3, #2
    24da:	d05d      	beq.n	2598 <navigate_home+0x104>
    24dc:	dd00      	ble.n	24e0 <navigate_home+0x4c>
    24de:	e075      	b.n	25cc <navigate_home+0x138>
    24e0:	2b00      	cmp	r3, #0
    24e2:	d002      	beq.n	24ea <navigate_home+0x56>
    24e4:	2b01      	cmp	r3, #1
    24e6:	d01f      	beq.n	2528 <navigate_home+0x94>
    24e8:	e070      	b.n	25cc <navigate_home+0x138>
    24ea:	4b3c      	ldr	r3, [pc, #240]	; (25dc <navigate_home+0x148>)
    24ec:	781b      	ldrb	r3, [r3, #0]
    24ee:	b25b      	sxtb	r3, r3
    24f0:	2b02      	cmp	r3, #2
    24f2:	d111      	bne.n	2518 <navigate_home+0x84>
    24f4:	4b3a      	ldr	r3, [pc, #232]	; (25e0 <navigate_home+0x14c>)
    24f6:	2201      	movs	r2, #1
    24f8:	701a      	strb	r2, [r3, #0]
    24fa:	f7fe fa47 	bl	98c <timer_get_time_ms>
    24fe:	0002      	movs	r2, r0
    2500:	4b38      	ldr	r3, [pc, #224]	; (25e4 <navigate_home+0x150>)
    2502:	601a      	str	r2, [r3, #0]
    2504:	4b38      	ldr	r3, [pc, #224]	; (25e8 <navigate_home+0x154>)
    2506:	781b      	ldrb	r3, [r3, #0]
    2508:	2b09      	cmp	r3, #9
    250a:	d805      	bhi.n	2518 <navigate_home+0x84>
    250c:	4b36      	ldr	r3, [pc, #216]	; (25e8 <navigate_home+0x154>)
    250e:	781b      	ldrb	r3, [r3, #0]
    2510:	3301      	adds	r3, #1
    2512:	b2da      	uxtb	r2, r3
    2514:	4b34      	ldr	r3, [pc, #208]	; (25e8 <navigate_home+0x154>)
    2516:	701a      	strb	r2, [r3, #0]
    2518:	4b30      	ldr	r3, [pc, #192]	; (25dc <navigate_home+0x148>)
    251a:	781b      	ldrb	r3, [r3, #0]
    251c:	b25b      	sxtb	r3, r3
    251e:	0019      	movs	r1, r3
    2520:	2032      	movs	r0, #50	; 0x32
    2522:	f000 f915 	bl	2750 <drive>
    2526:	e051      	b.n	25cc <navigate_home+0x138>
    2528:	4b2f      	ldr	r3, [pc, #188]	; (25e8 <navigate_home+0x154>)
    252a:	781b      	ldrb	r3, [r3, #0]
    252c:	b29a      	uxth	r2, r3
    252e:	4b2f      	ldr	r3, [pc, #188]	; (25ec <navigate_home+0x158>)
    2530:	881b      	ldrh	r3, [r3, #0]
    2532:	429a      	cmp	r2, r3
    2534:	d819      	bhi.n	256a <navigate_home+0xd6>
    2536:	4b29      	ldr	r3, [pc, #164]	; (25dc <navigate_home+0x148>)
    2538:	781b      	ldrb	r3, [r3, #0]
    253a:	b25b      	sxtb	r3, r3
    253c:	2b02      	cmp	r3, #2
    253e:	d10c      	bne.n	255a <navigate_home+0xc6>
    2540:	4b2a      	ldr	r3, [pc, #168]	; (25ec <navigate_home+0x158>)
    2542:	881b      	ldrh	r3, [r3, #0]
    2544:	001a      	movs	r2, r3
    2546:	4b28      	ldr	r3, [pc, #160]	; (25e8 <navigate_home+0x154>)
    2548:	781b      	ldrb	r3, [r3, #0]
    254a:	1ad3      	subs	r3, r2, r3
    254c:	4a28      	ldr	r2, [pc, #160]	; (25f0 <navigate_home+0x15c>)
    254e:	56d3      	ldrsb	r3, [r2, r3]
    2550:	0019      	movs	r1, r3
    2552:	2032      	movs	r0, #50	; 0x32
    2554:	f000 f8fc 	bl	2750 <drive>
    2558:	e00b      	b.n	2572 <navigate_home+0xde>
    255a:	4b20      	ldr	r3, [pc, #128]	; (25dc <navigate_home+0x148>)
    255c:	781b      	ldrb	r3, [r3, #0]
    255e:	b25b      	sxtb	r3, r3
    2560:	0019      	movs	r1, r3
    2562:	2032      	movs	r0, #50	; 0x32
    2564:	f000 f8f4 	bl	2750 <drive>
    2568:	e003      	b.n	2572 <navigate_home+0xde>
    256a:	4b1d      	ldr	r3, [pc, #116]	; (25e0 <navigate_home+0x14c>)
    256c:	2202      	movs	r2, #2
    256e:	701a      	strb	r2, [r3, #0]
    2570:	e02c      	b.n	25cc <navigate_home+0x138>
    2572:	4b1a      	ldr	r3, [pc, #104]	; (25dc <navigate_home+0x148>)
    2574:	781b      	ldrb	r3, [r3, #0]
    2576:	b25b      	sxtb	r3, r3
    2578:	2b02      	cmp	r3, #2
    257a:	d026      	beq.n	25ca <navigate_home+0x136>
    257c:	f7fe fa06 	bl	98c <timer_get_time_ms>
    2580:	0002      	movs	r2, r0
    2582:	4b18      	ldr	r3, [pc, #96]	; (25e4 <navigate_home+0x150>)
    2584:	681b      	ldr	r3, [r3, #0]
    2586:	1ad2      	subs	r2, r2, r3
    2588:	23fa      	movs	r3, #250	; 0xfa
    258a:	005b      	lsls	r3, r3, #1
    258c:	429a      	cmp	r2, r3
    258e:	d91c      	bls.n	25ca <navigate_home+0x136>
    2590:	4b13      	ldr	r3, [pc, #76]	; (25e0 <navigate_home+0x14c>)
    2592:	2200      	movs	r2, #0
    2594:	701a      	strb	r2, [r3, #0]
    2596:	e018      	b.n	25ca <navigate_home+0x136>
    2598:	4b10      	ldr	r3, [pc, #64]	; (25dc <navigate_home+0x148>)
    259a:	781b      	ldrb	r3, [r3, #0]
    259c:	b25b      	sxtb	r3, r3
    259e:	0019      	movs	r1, r3
    25a0:	2000      	movs	r0, #0
    25a2:	f000 f8d5 	bl	2750 <drive>
    25a6:	1dbb      	adds	r3, r7, #6
    25a8:	2200      	movs	r2, #0
    25aa:	5e9b      	ldrsh	r3, [r3, r2]
    25ac:	2b00      	cmp	r3, #0
    25ae:	dd03      	ble.n	25b8 <navigate_home+0x124>
    25b0:	2001      	movs	r0, #1
    25b2:	f7ff f9b9 	bl	1928 <led_matrix_display_symbol>
    25b6:	e004      	b.n	25c2 <navigate_home+0x12e>
    25b8:	2301      	movs	r3, #1
    25ba:	425b      	negs	r3, r3
    25bc:	0018      	movs	r0, r3
    25be:	f7ff f9b3 	bl	1928 <led_matrix_display_symbol>
    25c2:	4b0c      	ldr	r3, [pc, #48]	; (25f4 <navigate_home+0x160>)
    25c4:	2209      	movs	r2, #9
    25c6:	701a      	strb	r2, [r3, #0]
    25c8:	e000      	b.n	25cc <navigate_home+0x138>
    25ca:	46c0      	nop			; (mov r8, r8)
    25cc:	46c0      	nop			; (mov r8, r8)
    25ce:	46bd      	mov	sp, r7
    25d0:	b002      	add	sp, #8
    25d2:	bd80      	pop	{r7, pc}
    25d4:	200000f0 	.word	0x200000f0
    25d8:	200000f1 	.word	0x200000f1
    25dc:	200000f3 	.word	0x200000f3
    25e0:	200000f2 	.word	0x200000f2
    25e4:	200000f4 	.word	0x200000f4
    25e8:	200000f8 	.word	0x200000f8
    25ec:	200000da 	.word	0x200000da
    25f0:	200000d0 	.word	0x200000d0
    25f4:	200000ec 	.word	0x200000ec

000025f8 <goto_barrier>:
    25f8:	b5b0      	push	{r4, r5, r7, lr}
    25fa:	b082      	sub	sp, #8
    25fc:	af00      	add	r7, sp, #0
    25fe:	f000 fb47 	bl	2c90 <ultrasonic_sensor_get_distance_cm>
    2602:	0003      	movs	r3, r0
    2604:	603b      	str	r3, [r7, #0]
    2606:	683a      	ldr	r2, [r7, #0]
    2608:	4b1f      	ldr	r3, [pc, #124]	; (2688 <goto_barrier+0x90>)
    260a:	0011      	movs	r1, r2
    260c:	0018      	movs	r0, r3
    260e:	f001 f999 	bl	3944 <iprintf>
    2612:	2000      	movs	r0, #0
    2614:	f000 f986 	bl	2924 <light_sensor_get_value>
    2618:	0002      	movs	r2, r0
    261a:	4b1c      	ldr	r3, [pc, #112]	; (268c <goto_barrier+0x94>)
    261c:	0011      	movs	r1, r2
    261e:	0018      	movs	r0, r3
    2620:	f001 f990 	bl	3944 <iprintf>
    2624:	683b      	ldr	r3, [r7, #0]
    2626:	2b05      	cmp	r3, #5
    2628:	d109      	bne.n	263e <goto_barrier+0x46>
    262a:	2100      	movs	r1, #0
    262c:	2000      	movs	r0, #0
    262e:	f000 fa3b 	bl	2aa8 <motor_set_percent>
    2632:	2100      	movs	r1, #0
    2634:	2001      	movs	r0, #1
    2636:	f000 fa37 	bl	2aa8 <motor_set_percent>
    263a:	2301      	movs	r3, #1
    263c:	e01f      	b.n	267e <goto_barrier+0x86>
    263e:	2000      	movs	r0, #0
    2640:	f000 fc0e 	bl	2e60 <line_sensor_is_line_present>
    2644:	0003      	movs	r3, r0
    2646:	001d      	movs	r5, r3
    2648:	2001      	movs	r0, #1
    264a:	f000 fc09 	bl	2e60 <line_sensor_is_line_present>
    264e:	0003      	movs	r3, r0
    2650:	1dfc      	adds	r4, r7, #7
    2652:	0019      	movs	r1, r3
    2654:	0028      	movs	r0, r5
    2656:	f7ff fc18 	bl	1e8a <get_line_state>
    265a:	0003      	movs	r3, r0
    265c:	7023      	strb	r3, [r4, #0]
    265e:	1dfb      	adds	r3, r7, #7
    2660:	781b      	ldrb	r3, [r3, #0]
    2662:	b25b      	sxtb	r3, r3
    2664:	2b02      	cmp	r3, #2
    2666:	d102      	bne.n	266e <goto_barrier+0x76>
    2668:	1dfb      	adds	r3, r7, #7
    266a:	2200      	movs	r2, #0
    266c:	701a      	strb	r2, [r3, #0]
    266e:	1dfb      	adds	r3, r7, #7
    2670:	781b      	ldrb	r3, [r3, #0]
    2672:	b25b      	sxtb	r3, r3
    2674:	0019      	movs	r1, r3
    2676:	201e      	movs	r0, #30
    2678:	f000 f86a 	bl	2750 <drive>
    267c:	2300      	movs	r3, #0
    267e:	0018      	movs	r0, r3
    2680:	46bd      	mov	sp, r7
    2682:	b002      	add	sp, #8
    2684:	bdb0      	pop	{r4, r5, r7, pc}
    2686:	46c0      	nop			; (mov r8, r8)
    2688:	00005dfc 	.word	0x00005dfc
    268c:	00005e14 	.word	0x00005e14

00002690 <barrier_lifted>:
    2690:	b580      	push	{r7, lr}
    2692:	af00      	add	r7, sp, #0
    2694:	f000 fafc 	bl	2c90 <ultrasonic_sensor_get_distance_cm>
    2698:	0003      	movs	r3, r0
    269a:	2b0f      	cmp	r3, #15
    269c:	d901      	bls.n	26a2 <barrier_lifted+0x12>
    269e:	2301      	movs	r3, #1
    26a0:	e000      	b.n	26a4 <barrier_lifted+0x14>
    26a2:	2300      	movs	r3, #0
    26a4:	0018      	movs	r0, r3
    26a6:	46bd      	mov	sp, r7
    26a8:	bd80      	pop	{r7, pc}
	...

000026ac <goto_lamp>:
    26ac:	b5b0      	push	{r4, r5, r7, lr}
    26ae:	b082      	sub	sp, #8
    26b0:	af00      	add	r7, sp, #0
    26b2:	2000      	movs	r0, #0
    26b4:	f000 f936 	bl	2924 <light_sensor_get_value>
    26b8:	0002      	movs	r2, r0
    26ba:	4b23      	ldr	r3, [pc, #140]	; (2748 <goto_lamp+0x9c>)
    26bc:	0011      	movs	r1, r2
    26be:	0018      	movs	r0, r3
    26c0:	f001 f940 	bl	3944 <iprintf>
    26c4:	2000      	movs	r0, #0
    26c6:	f000 f92d 	bl	2924 <light_sensor_get_value>
    26ca:	0004      	movs	r4, r0
    26cc:	4b1f      	ldr	r3, [pc, #124]	; (274c <goto_lamp+0xa0>)
    26ce:	881b      	ldrh	r3, [r3, #0]
    26d0:	2103      	movs	r1, #3
    26d2:	0018      	movs	r0, r3
    26d4:	f002 f9dc 	bl	4a90 <__udivsi3>
    26d8:	0003      	movs	r3, r0
    26da:	b29b      	uxth	r3, r3
    26dc:	429c      	cmp	r4, r3
    26de:	da17      	bge.n	2710 <goto_lamp+0x64>
    26e0:	2001      	movs	r0, #1
    26e2:	f000 f91f 	bl	2924 <light_sensor_get_value>
    26e6:	0004      	movs	r4, r0
    26e8:	4b18      	ldr	r3, [pc, #96]	; (274c <goto_lamp+0xa0>)
    26ea:	881b      	ldrh	r3, [r3, #0]
    26ec:	2103      	movs	r1, #3
    26ee:	0018      	movs	r0, r3
    26f0:	f002 f9ce 	bl	4a90 <__udivsi3>
    26f4:	0003      	movs	r3, r0
    26f6:	b29b      	uxth	r3, r3
    26f8:	429c      	cmp	r4, r3
    26fa:	da09      	bge.n	2710 <goto_lamp+0x64>
    26fc:	2100      	movs	r1, #0
    26fe:	2000      	movs	r0, #0
    2700:	f000 f9d2 	bl	2aa8 <motor_set_percent>
    2704:	2100      	movs	r1, #0
    2706:	2001      	movs	r0, #1
    2708:	f000 f9ce 	bl	2aa8 <motor_set_percent>
    270c:	2301      	movs	r3, #1
    270e:	e017      	b.n	2740 <goto_lamp+0x94>
    2710:	2000      	movs	r0, #0
    2712:	f000 fba5 	bl	2e60 <line_sensor_is_line_present>
    2716:	0003      	movs	r3, r0
    2718:	001d      	movs	r5, r3
    271a:	2001      	movs	r0, #1
    271c:	f000 fba0 	bl	2e60 <line_sensor_is_line_present>
    2720:	0003      	movs	r3, r0
    2722:	1dfc      	adds	r4, r7, #7
    2724:	0019      	movs	r1, r3
    2726:	0028      	movs	r0, r5
    2728:	f7ff fbaf 	bl	1e8a <get_line_state>
    272c:	0003      	movs	r3, r0
    272e:	7023      	strb	r3, [r4, #0]
    2730:	1dfb      	adds	r3, r7, #7
    2732:	781b      	ldrb	r3, [r3, #0]
    2734:	b25b      	sxtb	r3, r3
    2736:	0019      	movs	r1, r3
    2738:	2032      	movs	r0, #50	; 0x32
    273a:	f000 f809 	bl	2750 <drive>
    273e:	2300      	movs	r3, #0
    2740:	0018      	movs	r0, r3
    2742:	46bd      	mov	sp, r7
    2744:	b002      	add	sp, #8
    2746:	bdb0      	pop	{r4, r5, r7, pc}
    2748:	00005e24 	.word	0x00005e24
    274c:	200000fa 	.word	0x200000fa

00002750 <drive>:
    2750:	b580      	push	{r7, lr}
    2752:	b082      	sub	sp, #8
    2754:	af00      	add	r7, sp, #0
    2756:	0002      	movs	r2, r0
    2758:	1dbb      	adds	r3, r7, #6
    275a:	801a      	strh	r2, [r3, #0]
    275c:	1d7b      	adds	r3, r7, #5
    275e:	1c0a      	adds	r2, r1, #0
    2760:	701a      	strb	r2, [r3, #0]
    2762:	1dbb      	adds	r3, r7, #6
    2764:	2200      	movs	r2, #0
    2766:	5e9a      	ldrsh	r2, [r3, r2]
    2768:	4b05      	ldr	r3, [pc, #20]	; (2780 <drive+0x30>)
    276a:	601a      	str	r2, [r3, #0]
    276c:	1d7b      	adds	r3, r7, #5
    276e:	781b      	ldrb	r3, [r3, #0]
    2770:	b25b      	sxtb	r3, r3
    2772:	0018      	movs	r0, r3
    2774:	f7ff fbc8 	bl	1f08 <line_following>
    2778:	46c0      	nop			; (mov r8, r8)
    277a:	46bd      	mov	sp, r7
    277c:	b002      	add	sp, #8
    277e:	bd80      	pop	{r7, pc}
    2780:	20000008 	.word	0x20000008

00002784 <nrf_gpio_cfg>:
    2784:	b590      	push	{r4, r7, lr}
    2786:	b083      	sub	sp, #12
    2788:	af00      	add	r7, sp, #0
    278a:	6078      	str	r0, [r7, #4]
    278c:	000c      	movs	r4, r1
    278e:	0010      	movs	r0, r2
    2790:	0019      	movs	r1, r3
    2792:	1cfb      	adds	r3, r7, #3
    2794:	1c22      	adds	r2, r4, #0
    2796:	701a      	strb	r2, [r3, #0]
    2798:	1cbb      	adds	r3, r7, #2
    279a:	1c02      	adds	r2, r0, #0
    279c:	701a      	strb	r2, [r3, #0]
    279e:	1c7b      	adds	r3, r7, #1
    27a0:	1c0a      	adds	r2, r1, #0
    27a2:	701a      	strb	r2, [r3, #0]
    27a4:	1cfb      	adds	r3, r7, #3
    27a6:	781a      	ldrb	r2, [r3, #0]
    27a8:	1cbb      	adds	r3, r7, #2
    27aa:	781b      	ldrb	r3, [r3, #0]
    27ac:	005b      	lsls	r3, r3, #1
    27ae:	431a      	orrs	r2, r3
    27b0:	1c7b      	adds	r3, r7, #1
    27b2:	781b      	ldrb	r3, [r3, #0]
    27b4:	009b      	lsls	r3, r3, #2
    27b6:	431a      	orrs	r2, r3
    27b8:	2318      	movs	r3, #24
    27ba:	18fb      	adds	r3, r7, r3
    27bc:	781b      	ldrb	r3, [r3, #0]
    27be:	021b      	lsls	r3, r3, #8
    27c0:	431a      	orrs	r2, r3
    27c2:	0011      	movs	r1, r2
    27c4:	231c      	movs	r3, #28
    27c6:	18fb      	adds	r3, r7, r3
    27c8:	781b      	ldrb	r3, [r3, #0]
    27ca:	041a      	lsls	r2, r3, #16
    27cc:	23a0      	movs	r3, #160	; 0xa0
    27ce:	05db      	lsls	r3, r3, #23
    27d0:	4311      	orrs	r1, r2
    27d2:	687a      	ldr	r2, [r7, #4]
    27d4:	32c1      	adds	r2, #193	; 0xc1
    27d6:	32ff      	adds	r2, #255	; 0xff
    27d8:	0092      	lsls	r2, r2, #2
    27da:	50d1      	str	r1, [r2, r3]
    27dc:	46c0      	nop			; (mov r8, r8)
    27de:	46bd      	mov	sp, r7
    27e0:	b003      	add	sp, #12
    27e2:	bd90      	pop	{r4, r7, pc}

000027e4 <nrf_gpio_cfg_output>:
    27e4:	b580      	push	{r7, lr}
    27e6:	b084      	sub	sp, #16
    27e8:	af02      	add	r7, sp, #8
    27ea:	6078      	str	r0, [r7, #4]
    27ec:	6878      	ldr	r0, [r7, #4]
    27ee:	2300      	movs	r3, #0
    27f0:	9301      	str	r3, [sp, #4]
    27f2:	2300      	movs	r3, #0
    27f4:	9300      	str	r3, [sp, #0]
    27f6:	2300      	movs	r3, #0
    27f8:	2201      	movs	r2, #1
    27fa:	2101      	movs	r1, #1
    27fc:	f7ff ffc2 	bl	2784 <nrf_gpio_cfg>
    2800:	46c0      	nop			; (mov r8, r8)
    2802:	46bd      	mov	sp, r7
    2804:	b002      	add	sp, #8
    2806:	bd80      	pop	{r7, pc}

00002808 <nrf_gpio_cfg_input>:
    2808:	b580      	push	{r7, lr}
    280a:	b084      	sub	sp, #16
    280c:	af02      	add	r7, sp, #8
    280e:	6078      	str	r0, [r7, #4]
    2810:	000a      	movs	r2, r1
    2812:	1cfb      	adds	r3, r7, #3
    2814:	701a      	strb	r2, [r3, #0]
    2816:	1cfb      	adds	r3, r7, #3
    2818:	781b      	ldrb	r3, [r3, #0]
    281a:	6878      	ldr	r0, [r7, #4]
    281c:	2200      	movs	r2, #0
    281e:	9201      	str	r2, [sp, #4]
    2820:	2200      	movs	r2, #0
    2822:	9200      	str	r2, [sp, #0]
    2824:	2200      	movs	r2, #0
    2826:	2100      	movs	r1, #0
    2828:	f7ff ffac 	bl	2784 <nrf_gpio_cfg>
    282c:	46c0      	nop			; (mov r8, r8)
    282e:	46bd      	mov	sp, r7
    2830:	b002      	add	sp, #8
    2832:	bd80      	pop	{r7, pc}

00002834 <nrf_gpio_pin_set>:
    2834:	b580      	push	{r7, lr}
    2836:	b082      	sub	sp, #8
    2838:	af00      	add	r7, sp, #0
    283a:	6078      	str	r0, [r7, #4]
    283c:	23a0      	movs	r3, #160	; 0xa0
    283e:	05da      	lsls	r2, r3, #23
    2840:	2101      	movs	r1, #1
    2842:	687b      	ldr	r3, [r7, #4]
    2844:	4099      	lsls	r1, r3
    2846:	23a1      	movs	r3, #161	; 0xa1
    2848:	00db      	lsls	r3, r3, #3
    284a:	50d1      	str	r1, [r2, r3]
    284c:	46c0      	nop			; (mov r8, r8)
    284e:	46bd      	mov	sp, r7
    2850:	b002      	add	sp, #8
    2852:	bd80      	pop	{r7, pc}

00002854 <nrf_gpio_pin_clear>:
    2854:	b580      	push	{r7, lr}
    2856:	b082      	sub	sp, #8
    2858:	af00      	add	r7, sp, #0
    285a:	6078      	str	r0, [r7, #4]
    285c:	23a0      	movs	r3, #160	; 0xa0
    285e:	05db      	lsls	r3, r3, #23
    2860:	2101      	movs	r1, #1
    2862:	687a      	ldr	r2, [r7, #4]
    2864:	4091      	lsls	r1, r2
    2866:	000a      	movs	r2, r1
    2868:	4902      	ldr	r1, [pc, #8]	; (2874 <nrf_gpio_pin_clear+0x20>)
    286a:	505a      	str	r2, [r3, r1]
    286c:	46c0      	nop			; (mov r8, r8)
    286e:	46bd      	mov	sp, r7
    2870:	b002      	add	sp, #8
    2872:	bd80      	pop	{r7, pc}
    2874:	0000050c 	.word	0x0000050c

00002878 <nrf_gpio_pin_write>:
    2878:	b580      	push	{r7, lr}
    287a:	b082      	sub	sp, #8
    287c:	af00      	add	r7, sp, #0
    287e:	6078      	str	r0, [r7, #4]
    2880:	6039      	str	r1, [r7, #0]
    2882:	683b      	ldr	r3, [r7, #0]
    2884:	2b00      	cmp	r3, #0
    2886:	d104      	bne.n	2892 <nrf_gpio_pin_write+0x1a>
    2888:	687b      	ldr	r3, [r7, #4]
    288a:	0018      	movs	r0, r3
    288c:	f7ff ffe2 	bl	2854 <nrf_gpio_pin_clear>
    2890:	e003      	b.n	289a <nrf_gpio_pin_write+0x22>
    2892:	687b      	ldr	r3, [r7, #4]
    2894:	0018      	movs	r0, r3
    2896:	f7ff ffcd 	bl	2834 <nrf_gpio_pin_set>
    289a:	46c0      	nop			; (mov r8, r8)
    289c:	46bd      	mov	sp, r7
    289e:	b002      	add	sp, #8
    28a0:	bd80      	pop	{r7, pc}
	...

000028a4 <light_sensor_init>:
    28a4:	b580      	push	{r7, lr}
    28a6:	b082      	sub	sp, #8
    28a8:	af00      	add	r7, sp, #0
    28aa:	f7fe fde3 	bl	1474 <adc_init>
    28ae:	2010      	movs	r0, #16
    28b0:	f7ff ff98 	bl	27e4 <nrf_gpio_cfg_output>
    28b4:	2100      	movs	r1, #0
    28b6:	2002      	movs	r0, #2
    28b8:	f7ff ffa6 	bl	2808 <nrf_gpio_cfg_input>
    28bc:	23fa      	movs	r3, #250	; 0xfa
    28be:	00db      	lsls	r3, r3, #3
    28c0:	0018      	movs	r0, r3
    28c2:	f7fe f887 	bl	9d4 <timer_wait_ms>
    28c6:	2300      	movs	r3, #0
    28c8:	607b      	str	r3, [r7, #4]
    28ca:	e018      	b.n	28fe <light_sensor_init+0x5a>
    28cc:	2000      	movs	r0, #0
    28ce:	f000 f829 	bl	2924 <light_sensor_get_value>
    28d2:	0003      	movs	r3, r0
    28d4:	b29a      	uxth	r2, r3
    28d6:	4b12      	ldr	r3, [pc, #72]	; (2920 <light_sensor_init+0x7c>)
    28d8:	881b      	ldrh	r3, [r3, #0]
    28da:	18d3      	adds	r3, r2, r3
    28dc:	b29a      	uxth	r2, r3
    28de:	4b10      	ldr	r3, [pc, #64]	; (2920 <light_sensor_init+0x7c>)
    28e0:	801a      	strh	r2, [r3, #0]
    28e2:	2001      	movs	r0, #1
    28e4:	f000 f81e 	bl	2924 <light_sensor_get_value>
    28e8:	0003      	movs	r3, r0
    28ea:	b29a      	uxth	r2, r3
    28ec:	4b0c      	ldr	r3, [pc, #48]	; (2920 <light_sensor_init+0x7c>)
    28ee:	881b      	ldrh	r3, [r3, #0]
    28f0:	18d3      	adds	r3, r2, r3
    28f2:	b29a      	uxth	r2, r3
    28f4:	4b0a      	ldr	r3, [pc, #40]	; (2920 <light_sensor_init+0x7c>)
    28f6:	801a      	strh	r2, [r3, #0]
    28f8:	687b      	ldr	r3, [r7, #4]
    28fa:	3301      	adds	r3, #1
    28fc:	607b      	str	r3, [r7, #4]
    28fe:	687b      	ldr	r3, [r7, #4]
    2900:	2b04      	cmp	r3, #4
    2902:	dde3      	ble.n	28cc <light_sensor_init+0x28>
    2904:	4b06      	ldr	r3, [pc, #24]	; (2920 <light_sensor_init+0x7c>)
    2906:	881b      	ldrh	r3, [r3, #0]
    2908:	210a      	movs	r1, #10
    290a:	0018      	movs	r0, r3
    290c:	f002 f8c0 	bl	4a90 <__udivsi3>
    2910:	0003      	movs	r3, r0
    2912:	b29a      	uxth	r2, r3
    2914:	4b02      	ldr	r3, [pc, #8]	; (2920 <light_sensor_init+0x7c>)
    2916:	801a      	strh	r2, [r3, #0]
    2918:	46c0      	nop			; (mov r8, r8)
    291a:	46bd      	mov	sp, r7
    291c:	b002      	add	sp, #8
    291e:	bd80      	pop	{r7, pc}
    2920:	200000fa 	.word	0x200000fa

00002924 <light_sensor_get_value>:
    2924:	b580      	push	{r7, lr}
    2926:	b082      	sub	sp, #8
    2928:	af00      	add	r7, sp, #0
    292a:	0002      	movs	r2, r0
    292c:	1dfb      	adds	r3, r7, #7
    292e:	701a      	strb	r2, [r3, #0]
    2930:	1dfb      	adds	r3, r7, #7
    2932:	781b      	ldrb	r3, [r3, #0]
    2934:	2b00      	cmp	r3, #0
    2936:	d009      	beq.n	294c <light_sensor_get_value+0x28>
    2938:	1dfb      	adds	r3, r7, #7
    293a:	781b      	ldrb	r3, [r3, #0]
    293c:	2b01      	cmp	r3, #1
    293e:	d005      	beq.n	294c <light_sensor_get_value+0x28>
    2940:	4b0b      	ldr	r3, [pc, #44]	; (2970 <light_sensor_get_value+0x4c>)
    2942:	4a0c      	ldr	r2, [pc, #48]	; (2974 <light_sensor_get_value+0x50>)
    2944:	480c      	ldr	r0, [pc, #48]	; (2978 <light_sensor_get_value+0x54>)
    2946:	2123      	movs	r1, #35	; 0x23
    2948:	f000 fc68 	bl	321c <__assert_func>
    294c:	1dfb      	adds	r3, r7, #7
    294e:	781b      	ldrb	r3, [r3, #0]
    2950:	3b01      	subs	r3, #1
    2952:	425a      	negs	r2, r3
    2954:	4153      	adcs	r3, r2
    2956:	b2db      	uxtb	r3, r3
    2958:	0019      	movs	r1, r3
    295a:	2010      	movs	r0, #16
    295c:	f7ff ff8c 	bl	2878 <nrf_gpio_pin_write>
    2960:	2002      	movs	r0, #2
    2962:	f7fe fd99 	bl	1498 <adc_get_value>
    2966:	0003      	movs	r3, r0
    2968:	0018      	movs	r0, r3
    296a:	46bd      	mov	sp, r7
    296c:	b002      	add	sp, #8
    296e:	bd80      	pop	{r7, pc}
    2970:	00005e34 	.word	0x00005e34
    2974:	00005e88 	.word	0x00005e88
    2978:	00005e70 	.word	0x00005e70

0000297c <nrf_gpio_cfg>:
    297c:	b590      	push	{r4, r7, lr}
    297e:	b083      	sub	sp, #12
    2980:	af00      	add	r7, sp, #0
    2982:	6078      	str	r0, [r7, #4]
    2984:	000c      	movs	r4, r1
    2986:	0010      	movs	r0, r2
    2988:	0019      	movs	r1, r3
    298a:	1cfb      	adds	r3, r7, #3
    298c:	1c22      	adds	r2, r4, #0
    298e:	701a      	strb	r2, [r3, #0]
    2990:	1cbb      	adds	r3, r7, #2
    2992:	1c02      	adds	r2, r0, #0
    2994:	701a      	strb	r2, [r3, #0]
    2996:	1c7b      	adds	r3, r7, #1
    2998:	1c0a      	adds	r2, r1, #0
    299a:	701a      	strb	r2, [r3, #0]
    299c:	1cfb      	adds	r3, r7, #3
    299e:	781a      	ldrb	r2, [r3, #0]
    29a0:	1cbb      	adds	r3, r7, #2
    29a2:	781b      	ldrb	r3, [r3, #0]
    29a4:	005b      	lsls	r3, r3, #1
    29a6:	431a      	orrs	r2, r3
    29a8:	1c7b      	adds	r3, r7, #1
    29aa:	781b      	ldrb	r3, [r3, #0]
    29ac:	009b      	lsls	r3, r3, #2
    29ae:	431a      	orrs	r2, r3
    29b0:	2318      	movs	r3, #24
    29b2:	18fb      	adds	r3, r7, r3
    29b4:	781b      	ldrb	r3, [r3, #0]
    29b6:	021b      	lsls	r3, r3, #8
    29b8:	431a      	orrs	r2, r3
    29ba:	0011      	movs	r1, r2
    29bc:	231c      	movs	r3, #28
    29be:	18fb      	adds	r3, r7, r3
    29c0:	781b      	ldrb	r3, [r3, #0]
    29c2:	041a      	lsls	r2, r3, #16
    29c4:	23a0      	movs	r3, #160	; 0xa0
    29c6:	05db      	lsls	r3, r3, #23
    29c8:	4311      	orrs	r1, r2
    29ca:	687a      	ldr	r2, [r7, #4]
    29cc:	32c1      	adds	r2, #193	; 0xc1
    29ce:	32ff      	adds	r2, #255	; 0xff
    29d0:	0092      	lsls	r2, r2, #2
    29d2:	50d1      	str	r1, [r2, r3]
    29d4:	46c0      	nop			; (mov r8, r8)
    29d6:	46bd      	mov	sp, r7
    29d8:	b003      	add	sp, #12
    29da:	bd90      	pop	{r4, r7, pc}

000029dc <nrf_gpio_cfg_output>:
    29dc:	b580      	push	{r7, lr}
    29de:	b084      	sub	sp, #16
    29e0:	af02      	add	r7, sp, #8
    29e2:	6078      	str	r0, [r7, #4]
    29e4:	6878      	ldr	r0, [r7, #4]
    29e6:	2300      	movs	r3, #0
    29e8:	9301      	str	r3, [sp, #4]
    29ea:	2300      	movs	r3, #0
    29ec:	9300      	str	r3, [sp, #0]
    29ee:	2300      	movs	r3, #0
    29f0:	2201      	movs	r2, #1
    29f2:	2101      	movs	r1, #1
    29f4:	f7ff ffc2 	bl	297c <nrf_gpio_cfg>
    29f8:	46c0      	nop			; (mov r8, r8)
    29fa:	46bd      	mov	sp, r7
    29fc:	b002      	add	sp, #8
    29fe:	bd80      	pop	{r7, pc}

00002a00 <nrf_gpio_pin_set>:
    2a00:	b580      	push	{r7, lr}
    2a02:	b082      	sub	sp, #8
    2a04:	af00      	add	r7, sp, #0
    2a06:	6078      	str	r0, [r7, #4]
    2a08:	23a0      	movs	r3, #160	; 0xa0
    2a0a:	05da      	lsls	r2, r3, #23
    2a0c:	2101      	movs	r1, #1
    2a0e:	687b      	ldr	r3, [r7, #4]
    2a10:	4099      	lsls	r1, r3
    2a12:	23a1      	movs	r3, #161	; 0xa1
    2a14:	00db      	lsls	r3, r3, #3
    2a16:	50d1      	str	r1, [r2, r3]
    2a18:	46c0      	nop			; (mov r8, r8)
    2a1a:	46bd      	mov	sp, r7
    2a1c:	b002      	add	sp, #8
    2a1e:	bd80      	pop	{r7, pc}

00002a20 <nrf_gpio_pin_clear>:
    2a20:	b580      	push	{r7, lr}
    2a22:	b082      	sub	sp, #8
    2a24:	af00      	add	r7, sp, #0
    2a26:	6078      	str	r0, [r7, #4]
    2a28:	23a0      	movs	r3, #160	; 0xa0
    2a2a:	05db      	lsls	r3, r3, #23
    2a2c:	2101      	movs	r1, #1
    2a2e:	687a      	ldr	r2, [r7, #4]
    2a30:	4091      	lsls	r1, r2
    2a32:	000a      	movs	r2, r1
    2a34:	4902      	ldr	r1, [pc, #8]	; (2a40 <nrf_gpio_pin_clear+0x20>)
    2a36:	505a      	str	r2, [r3, r1]
    2a38:	46c0      	nop			; (mov r8, r8)
    2a3a:	46bd      	mov	sp, r7
    2a3c:	b002      	add	sp, #8
    2a3e:	bd80      	pop	{r7, pc}
    2a40:	0000050c 	.word	0x0000050c

00002a44 <nrf_gpio_pin_write>:
    2a44:	b580      	push	{r7, lr}
    2a46:	b082      	sub	sp, #8
    2a48:	af00      	add	r7, sp, #0
    2a4a:	6078      	str	r0, [r7, #4]
    2a4c:	6039      	str	r1, [r7, #0]
    2a4e:	683b      	ldr	r3, [r7, #0]
    2a50:	2b00      	cmp	r3, #0
    2a52:	d104      	bne.n	2a5e <nrf_gpio_pin_write+0x1a>
    2a54:	687b      	ldr	r3, [r7, #4]
    2a56:	0018      	movs	r0, r3
    2a58:	f7ff ffe2 	bl	2a20 <nrf_gpio_pin_clear>
    2a5c:	e003      	b.n	2a66 <nrf_gpio_pin_write+0x22>
    2a5e:	687b      	ldr	r3, [r7, #4]
    2a60:	0018      	movs	r0, r3
    2a62:	f7ff ffcd 	bl	2a00 <nrf_gpio_pin_set>
    2a66:	46c0      	nop			; (mov r8, r8)
    2a68:	46bd      	mov	sp, r7
    2a6a:	b002      	add	sp, #8
    2a6c:	bd80      	pop	{r7, pc}
	...

00002a70 <motor_init>:
    2a70:	b580      	push	{r7, lr}
    2a72:	af00      	add	r7, sp, #0
    2a74:	4b0b      	ldr	r3, [pc, #44]	; (2aa4 <motor_init+0x34>)
    2a76:	0018      	movs	r0, r3
    2a78:	f7fe fa26 	bl	ec8 <pwm_init>
    2a7c:	2200      	movs	r2, #0
    2a7e:	2103      	movs	r1, #3
    2a80:	2000      	movs	r0, #0
    2a82:	f7fe fabd 	bl	1000 <pwm_channel_init>
    2a86:	2200      	movs	r2, #0
    2a88:	2102      	movs	r1, #2
    2a8a:	2001      	movs	r0, #1
    2a8c:	f7fe fab8 	bl	1000 <pwm_channel_init>
    2a90:	2012      	movs	r0, #18
    2a92:	f7ff ffa3 	bl	29dc <nrf_gpio_cfg_output>
    2a96:	2014      	movs	r0, #20
    2a98:	f7ff ffa0 	bl	29dc <nrf_gpio_cfg_output>
    2a9c:	46c0      	nop			; (mov r8, r8)
    2a9e:	46bd      	mov	sp, r7
    2aa0:	bd80      	pop	{r7, pc}
    2aa2:	46c0      	nop			; (mov r8, r8)
    2aa4:	00004e20 	.word	0x00004e20

00002aa8 <motor_set_percent>:
    2aa8:	b580      	push	{r7, lr}
    2aaa:	b084      	sub	sp, #16
    2aac:	af00      	add	r7, sp, #0
    2aae:	0002      	movs	r2, r0
    2ab0:	1dfb      	adds	r3, r7, #7
    2ab2:	701a      	strb	r2, [r3, #0]
    2ab4:	1dbb      	adds	r3, r7, #6
    2ab6:	1c0a      	adds	r2, r1, #0
    2ab8:	701a      	strb	r2, [r3, #0]
    2aba:	2300      	movs	r3, #0
    2abc:	60fb      	str	r3, [r7, #12]
    2abe:	2300      	movs	r3, #0
    2ac0:	60bb      	str	r3, [r7, #8]
    2ac2:	1dfb      	adds	r3, r7, #7
    2ac4:	781b      	ldrb	r3, [r3, #0]
    2ac6:	2b00      	cmp	r3, #0
    2ac8:	d009      	beq.n	2ade <motor_set_percent+0x36>
    2aca:	1dfb      	adds	r3, r7, #7
    2acc:	781b      	ldrb	r3, [r3, #0]
    2ace:	2b01      	cmp	r3, #1
    2ad0:	d005      	beq.n	2ade <motor_set_percent+0x36>
    2ad2:	4b22      	ldr	r3, [pc, #136]	; (2b5c <motor_set_percent+0xb4>)
    2ad4:	4a22      	ldr	r2, [pc, #136]	; (2b60 <motor_set_percent+0xb8>)
    2ad6:	4823      	ldr	r0, [pc, #140]	; (2b64 <motor_set_percent+0xbc>)
    2ad8:	2122      	movs	r1, #34	; 0x22
    2ada:	f000 fb9f 	bl	321c <__assert_func>
    2ade:	1dfb      	adds	r3, r7, #7
    2ae0:	781b      	ldrb	r3, [r3, #0]
    2ae2:	2b00      	cmp	r3, #0
    2ae4:	d101      	bne.n	2aea <motor_set_percent+0x42>
    2ae6:	2312      	movs	r3, #18
    2ae8:	e000      	b.n	2aec <motor_set_percent+0x44>
    2aea:	2314      	movs	r3, #20
    2aec:	60bb      	str	r3, [r7, #8]
    2aee:	1dbb      	adds	r3, r7, #6
    2af0:	781b      	ldrb	r3, [r3, #0]
    2af2:	09db      	lsrs	r3, r3, #7
    2af4:	b2db      	uxtb	r3, r3
    2af6:	001a      	movs	r2, r3
    2af8:	68bb      	ldr	r3, [r7, #8]
    2afa:	0011      	movs	r1, r2
    2afc:	0018      	movs	r0, r3
    2afe:	f7ff ffa1 	bl	2a44 <nrf_gpio_pin_write>
    2b02:	1dbb      	adds	r3, r7, #6
    2b04:	781b      	ldrb	r3, [r3, #0]
    2b06:	b25b      	sxtb	r3, r3
    2b08:	3364      	adds	r3, #100	; 0x64
    2b0a:	da03      	bge.n	2b14 <motor_set_percent+0x6c>
    2b0c:	1dbb      	adds	r3, r7, #6
    2b0e:	229c      	movs	r2, #156	; 0x9c
    2b10:	701a      	strb	r2, [r3, #0]
    2b12:	e007      	b.n	2b24 <motor_set_percent+0x7c>
    2b14:	1dbb      	adds	r3, r7, #6
    2b16:	781b      	ldrb	r3, [r3, #0]
    2b18:	b25b      	sxtb	r3, r3
    2b1a:	2b64      	cmp	r3, #100	; 0x64
    2b1c:	dd02      	ble.n	2b24 <motor_set_percent+0x7c>
    2b1e:	1dbb      	adds	r3, r7, #6
    2b20:	2264      	movs	r2, #100	; 0x64
    2b22:	701a      	strb	r2, [r3, #0]
    2b24:	1dbb      	adds	r3, r7, #6
    2b26:	781b      	ldrb	r3, [r3, #0]
    2b28:	2b7f      	cmp	r3, #127	; 0x7f
    2b2a:	d905      	bls.n	2b38 <motor_set_percent+0x90>
    2b2c:	1dbb      	adds	r3, r7, #6
    2b2e:	781b      	ldrb	r3, [r3, #0]
    2b30:	3364      	adds	r3, #100	; 0x64
    2b32:	b2da      	uxtb	r2, r3
    2b34:	1dbb      	adds	r3, r7, #6
    2b36:	701a      	strb	r2, [r3, #0]
    2b38:	1dbb      	adds	r3, r7, #6
    2b3a:	781b      	ldrb	r3, [r3, #0]
    2b3c:	b25b      	sxtb	r3, r3
    2b3e:	22c8      	movs	r2, #200	; 0xc8
    2b40:	4353      	muls	r3, r2
    2b42:	60fb      	str	r3, [r7, #12]
    2b44:	68fb      	ldr	r3, [r7, #12]
    2b46:	b29a      	uxth	r2, r3
    2b48:	1dfb      	adds	r3, r7, #7
    2b4a:	781b      	ldrb	r3, [r3, #0]
    2b4c:	0011      	movs	r1, r2
    2b4e:	0018      	movs	r0, r3
    2b50:	f7fe fad8 	bl	1104 <pwm_set_pulse_width>
    2b54:	46c0      	nop			; (mov r8, r8)
    2b56:	46bd      	mov	sp, r7
    2b58:	b004      	add	sp, #16
    2b5a:	bd80      	pop	{r7, pc}
    2b5c:	00005ea0 	.word	0x00005ea0
    2b60:	00005edc 	.word	0x00005edc
    2b64:	00005ecc 	.word	0x00005ecc

00002b68 <nrf_gpio_cfg>:
    2b68:	b590      	push	{r4, r7, lr}
    2b6a:	b083      	sub	sp, #12
    2b6c:	af00      	add	r7, sp, #0
    2b6e:	6078      	str	r0, [r7, #4]
    2b70:	000c      	movs	r4, r1
    2b72:	0010      	movs	r0, r2
    2b74:	0019      	movs	r1, r3
    2b76:	1cfb      	adds	r3, r7, #3
    2b78:	1c22      	adds	r2, r4, #0
    2b7a:	701a      	strb	r2, [r3, #0]
    2b7c:	1cbb      	adds	r3, r7, #2
    2b7e:	1c02      	adds	r2, r0, #0
    2b80:	701a      	strb	r2, [r3, #0]
    2b82:	1c7b      	adds	r3, r7, #1
    2b84:	1c0a      	adds	r2, r1, #0
    2b86:	701a      	strb	r2, [r3, #0]
    2b88:	1cfb      	adds	r3, r7, #3
    2b8a:	781a      	ldrb	r2, [r3, #0]
    2b8c:	1cbb      	adds	r3, r7, #2
    2b8e:	781b      	ldrb	r3, [r3, #0]
    2b90:	005b      	lsls	r3, r3, #1
    2b92:	431a      	orrs	r2, r3
    2b94:	1c7b      	adds	r3, r7, #1
    2b96:	781b      	ldrb	r3, [r3, #0]
    2b98:	009b      	lsls	r3, r3, #2
    2b9a:	431a      	orrs	r2, r3
    2b9c:	2318      	movs	r3, #24
    2b9e:	18fb      	adds	r3, r7, r3
    2ba0:	781b      	ldrb	r3, [r3, #0]
    2ba2:	021b      	lsls	r3, r3, #8
    2ba4:	431a      	orrs	r2, r3
    2ba6:	0011      	movs	r1, r2
    2ba8:	231c      	movs	r3, #28
    2baa:	18fb      	adds	r3, r7, r3
    2bac:	781b      	ldrb	r3, [r3, #0]
    2bae:	041a      	lsls	r2, r3, #16
    2bb0:	23a0      	movs	r3, #160	; 0xa0
    2bb2:	05db      	lsls	r3, r3, #23
    2bb4:	4311      	orrs	r1, r2
    2bb6:	687a      	ldr	r2, [r7, #4]
    2bb8:	32c1      	adds	r2, #193	; 0xc1
    2bba:	32ff      	adds	r2, #255	; 0xff
    2bbc:	0092      	lsls	r2, r2, #2
    2bbe:	50d1      	str	r1, [r2, r3]
    2bc0:	46c0      	nop			; (mov r8, r8)
    2bc2:	46bd      	mov	sp, r7
    2bc4:	b003      	add	sp, #12
    2bc6:	bd90      	pop	{r4, r7, pc}

00002bc8 <nrf_gpio_cfg_output>:
    2bc8:	b580      	push	{r7, lr}
    2bca:	b084      	sub	sp, #16
    2bcc:	af02      	add	r7, sp, #8
    2bce:	6078      	str	r0, [r7, #4]
    2bd0:	6878      	ldr	r0, [r7, #4]
    2bd2:	2300      	movs	r3, #0
    2bd4:	9301      	str	r3, [sp, #4]
    2bd6:	2300      	movs	r3, #0
    2bd8:	9300      	str	r3, [sp, #0]
    2bda:	2300      	movs	r3, #0
    2bdc:	2201      	movs	r2, #1
    2bde:	2101      	movs	r1, #1
    2be0:	f7ff ffc2 	bl	2b68 <nrf_gpio_cfg>
    2be4:	46c0      	nop			; (mov r8, r8)
    2be6:	46bd      	mov	sp, r7
    2be8:	b002      	add	sp, #8
    2bea:	bd80      	pop	{r7, pc}

00002bec <nrf_gpio_cfg_input>:
    2bec:	b580      	push	{r7, lr}
    2bee:	b084      	sub	sp, #16
    2bf0:	af02      	add	r7, sp, #8
    2bf2:	6078      	str	r0, [r7, #4]
    2bf4:	000a      	movs	r2, r1
    2bf6:	1cfb      	adds	r3, r7, #3
    2bf8:	701a      	strb	r2, [r3, #0]
    2bfa:	1cfb      	adds	r3, r7, #3
    2bfc:	781b      	ldrb	r3, [r3, #0]
    2bfe:	6878      	ldr	r0, [r7, #4]
    2c00:	2200      	movs	r2, #0
    2c02:	9201      	str	r2, [sp, #4]
    2c04:	2200      	movs	r2, #0
    2c06:	9200      	str	r2, [sp, #0]
    2c08:	2200      	movs	r2, #0
    2c0a:	2100      	movs	r1, #0
    2c0c:	f7ff ffac 	bl	2b68 <nrf_gpio_cfg>
    2c10:	46c0      	nop			; (mov r8, r8)
    2c12:	46bd      	mov	sp, r7
    2c14:	b002      	add	sp, #8
    2c16:	bd80      	pop	{r7, pc}

00002c18 <nrf_gpio_pin_set>:
    2c18:	b580      	push	{r7, lr}
    2c1a:	b082      	sub	sp, #8
    2c1c:	af00      	add	r7, sp, #0
    2c1e:	6078      	str	r0, [r7, #4]
    2c20:	23a0      	movs	r3, #160	; 0xa0
    2c22:	05da      	lsls	r2, r3, #23
    2c24:	2101      	movs	r1, #1
    2c26:	687b      	ldr	r3, [r7, #4]
    2c28:	4099      	lsls	r1, r3
    2c2a:	23a1      	movs	r3, #161	; 0xa1
    2c2c:	00db      	lsls	r3, r3, #3
    2c2e:	50d1      	str	r1, [r2, r3]
    2c30:	46c0      	nop			; (mov r8, r8)
    2c32:	46bd      	mov	sp, r7
    2c34:	b002      	add	sp, #8
    2c36:	bd80      	pop	{r7, pc}

00002c38 <nrf_gpio_pin_clear>:
    2c38:	b580      	push	{r7, lr}
    2c3a:	b082      	sub	sp, #8
    2c3c:	af00      	add	r7, sp, #0
    2c3e:	6078      	str	r0, [r7, #4]
    2c40:	23a0      	movs	r3, #160	; 0xa0
    2c42:	05db      	lsls	r3, r3, #23
    2c44:	2101      	movs	r1, #1
    2c46:	687a      	ldr	r2, [r7, #4]
    2c48:	4091      	lsls	r1, r2
    2c4a:	000a      	movs	r2, r1
    2c4c:	4902      	ldr	r1, [pc, #8]	; (2c58 <nrf_gpio_pin_clear+0x20>)
    2c4e:	505a      	str	r2, [r3, r1]
    2c50:	46c0      	nop			; (mov r8, r8)
    2c52:	46bd      	mov	sp, r7
    2c54:	b002      	add	sp, #8
    2c56:	bd80      	pop	{r7, pc}
    2c58:	0000050c 	.word	0x0000050c

00002c5c <nrf_gpio_pin_read>:
    2c5c:	b580      	push	{r7, lr}
    2c5e:	b082      	sub	sp, #8
    2c60:	af00      	add	r7, sp, #0
    2c62:	6078      	str	r0, [r7, #4]
    2c64:	23a0      	movs	r3, #160	; 0xa0
    2c66:	05da      	lsls	r2, r3, #23
    2c68:	23a2      	movs	r3, #162	; 0xa2
    2c6a:	00db      	lsls	r3, r3, #3
    2c6c:	58d2      	ldr	r2, [r2, r3]
    2c6e:	687b      	ldr	r3, [r7, #4]
    2c70:	40da      	lsrs	r2, r3
    2c72:	0013      	movs	r3, r2
    2c74:	2201      	movs	r2, #1
    2c76:	4013      	ands	r3, r2
    2c78:	0018      	movs	r0, r3
    2c7a:	46bd      	mov	sp, r7
    2c7c:	b002      	add	sp, #8
    2c7e:	bd80      	pop	{r7, pc}

00002c80 <ultrasonic_sensor_init>:
    2c80:	b580      	push	{r7, lr}
    2c82:	af00      	add	r7, sp, #0
    2c84:	f7fd fe3a 	bl	8fc <timer_init>
    2c88:	46c0      	nop			; (mov r8, r8)
    2c8a:	46bd      	mov	sp, r7
    2c8c:	bd80      	pop	{r7, pc}
	...

00002c90 <ultrasonic_sensor_get_distance_cm>:
    2c90:	b580      	push	{r7, lr}
    2c92:	b084      	sub	sp, #16
    2c94:	af00      	add	r7, sp, #0
    2c96:	2300      	movs	r3, #0
    2c98:	60fb      	str	r3, [r7, #12]
    2c9a:	2300      	movs	r3, #0
    2c9c:	60bb      	str	r3, [r7, #8]
    2c9e:	2015      	movs	r0, #21
    2ca0:	f7ff ff92 	bl	2bc8 <nrf_gpio_cfg_output>
    2ca4:	2015      	movs	r0, #21
    2ca6:	f7ff ffc7 	bl	2c38 <nrf_gpio_pin_clear>
    2caa:	2302      	movs	r3, #2
    2cac:	607b      	str	r3, [r7, #4]
    2cae:	687b      	ldr	r3, [r7, #4]
    2cb0:	0018      	movs	r0, r3
    2cb2:	3801      	subs	r0, #1
    2cb4:	46c0      	nop			; (mov r8, r8)
    2cb6:	46c0      	nop			; (mov r8, r8)
    2cb8:	46c0      	nop			; (mov r8, r8)
    2cba:	46c0      	nop			; (mov r8, r8)
    2cbc:	46c0      	nop			; (mov r8, r8)
    2cbe:	46c0      	nop			; (mov r8, r8)
    2cc0:	46c0      	nop			; (mov r8, r8)
    2cc2:	46c0      	nop			; (mov r8, r8)
    2cc4:	46c0      	nop			; (mov r8, r8)
    2cc6:	46c0      	nop			; (mov r8, r8)
    2cc8:	46c0      	nop			; (mov r8, r8)
    2cca:	46c0      	nop			; (mov r8, r8)
    2ccc:	d1f1      	bne.n	2cb2 <ultrasonic_sensor_get_distance_cm+0x22>
    2cce:	46c0      	nop			; (mov r8, r8)
    2cd0:	2015      	movs	r0, #21
    2cd2:	f7ff ffa1 	bl	2c18 <nrf_gpio_pin_set>
    2cd6:	230a      	movs	r3, #10
    2cd8:	603b      	str	r3, [r7, #0]
    2cda:	683b      	ldr	r3, [r7, #0]
    2cdc:	0018      	movs	r0, r3
    2cde:	3801      	subs	r0, #1
    2ce0:	46c0      	nop			; (mov r8, r8)
    2ce2:	46c0      	nop			; (mov r8, r8)
    2ce4:	46c0      	nop			; (mov r8, r8)
    2ce6:	46c0      	nop			; (mov r8, r8)
    2ce8:	46c0      	nop			; (mov r8, r8)
    2cea:	46c0      	nop			; (mov r8, r8)
    2cec:	46c0      	nop			; (mov r8, r8)
    2cee:	46c0      	nop			; (mov r8, r8)
    2cf0:	46c0      	nop			; (mov r8, r8)
    2cf2:	46c0      	nop			; (mov r8, r8)
    2cf4:	46c0      	nop			; (mov r8, r8)
    2cf6:	46c0      	nop			; (mov r8, r8)
    2cf8:	d1f1      	bne.n	2cde <ultrasonic_sensor_get_distance_cm+0x4e>
    2cfa:	46c0      	nop			; (mov r8, r8)
    2cfc:	2015      	movs	r0, #21
    2cfe:	f7ff ff9b 	bl	2c38 <nrf_gpio_pin_clear>
    2d02:	2100      	movs	r1, #0
    2d04:	2015      	movs	r0, #21
    2d06:	f7ff ff71 	bl	2bec <nrf_gpio_cfg_input>
    2d0a:	f7fd fe2d 	bl	968 <timer_get_time_us>
    2d0e:	0003      	movs	r3, r0
    2d10:	60fb      	str	r3, [r7, #12]
    2d12:	e00b      	b.n	2d2c <ultrasonic_sensor_get_distance_cm+0x9c>
    2d14:	f7fd fe28 	bl	968 <timer_get_time_us>
    2d18:	0002      	movs	r2, r0
    2d1a:	68fb      	ldr	r3, [r7, #12]
    2d1c:	1ad2      	subs	r2, r2, r3
    2d1e:	4b1a      	ldr	r3, [pc, #104]	; (2d88 <ultrasonic_sensor_get_distance_cm+0xf8>)
    2d20:	681b      	ldr	r3, [r3, #0]
    2d22:	429a      	cmp	r2, r3
    2d24:	d902      	bls.n	2d2c <ultrasonic_sensor_get_distance_cm+0x9c>
    2d26:	2301      	movs	r3, #1
    2d28:	425b      	negs	r3, r3
    2d2a:	e028      	b.n	2d7e <ultrasonic_sensor_get_distance_cm+0xee>
    2d2c:	2015      	movs	r0, #21
    2d2e:	f7ff ff95 	bl	2c5c <nrf_gpio_pin_read>
    2d32:	1e03      	subs	r3, r0, #0
    2d34:	d0ee      	beq.n	2d14 <ultrasonic_sensor_get_distance_cm+0x84>
    2d36:	f7fd fe17 	bl	968 <timer_get_time_us>
    2d3a:	0003      	movs	r3, r0
    2d3c:	60fb      	str	r3, [r7, #12]
    2d3e:	e00b      	b.n	2d58 <ultrasonic_sensor_get_distance_cm+0xc8>
    2d40:	f7fd fe12 	bl	968 <timer_get_time_us>
    2d44:	0002      	movs	r2, r0
    2d46:	68fb      	ldr	r3, [r7, #12]
    2d48:	1ad2      	subs	r2, r2, r3
    2d4a:	4b10      	ldr	r3, [pc, #64]	; (2d8c <ultrasonic_sensor_get_distance_cm+0xfc>)
    2d4c:	681b      	ldr	r3, [r3, #0]
    2d4e:	429a      	cmp	r2, r3
    2d50:	d902      	bls.n	2d58 <ultrasonic_sensor_get_distance_cm+0xc8>
    2d52:	2301      	movs	r3, #1
    2d54:	425b      	negs	r3, r3
    2d56:	e012      	b.n	2d7e <ultrasonic_sensor_get_distance_cm+0xee>
    2d58:	2015      	movs	r0, #21
    2d5a:	f7ff ff7f 	bl	2c5c <nrf_gpio_pin_read>
    2d5e:	1e03      	subs	r3, r0, #0
    2d60:	d1ee      	bne.n	2d40 <ultrasonic_sensor_get_distance_cm+0xb0>
    2d62:	f7fd fe01 	bl	968 <timer_get_time_us>
    2d66:	0003      	movs	r3, r0
    2d68:	60bb      	str	r3, [r7, #8]
    2d6a:	68ba      	ldr	r2, [r7, #8]
    2d6c:	68fb      	ldr	r3, [r7, #12]
    2d6e:	1ad2      	subs	r2, r2, r3
    2d70:	4b07      	ldr	r3, [pc, #28]	; (2d90 <ultrasonic_sensor_get_distance_cm+0x100>)
    2d72:	681b      	ldr	r3, [r3, #0]
    2d74:	0019      	movs	r1, r3
    2d76:	0010      	movs	r0, r2
    2d78:	f001 fe8a 	bl	4a90 <__udivsi3>
    2d7c:	0003      	movs	r3, r0
    2d7e:	0018      	movs	r0, r3
    2d80:	46bd      	mov	sp, r7
    2d82:	b004      	add	sp, #16
    2d84:	bd80      	pop	{r7, pc}
    2d86:	46c0      	nop			; (mov r8, r8)
    2d88:	00005ef0 	.word	0x00005ef0
    2d8c:	00005ef4 	.word	0x00005ef4
    2d90:	00005ef8 	.word	0x00005ef8

00002d94 <nrf_gpio_cfg>:
    2d94:	b590      	push	{r4, r7, lr}
    2d96:	b083      	sub	sp, #12
    2d98:	af00      	add	r7, sp, #0
    2d9a:	6078      	str	r0, [r7, #4]
    2d9c:	000c      	movs	r4, r1
    2d9e:	0010      	movs	r0, r2
    2da0:	0019      	movs	r1, r3
    2da2:	1cfb      	adds	r3, r7, #3
    2da4:	1c22      	adds	r2, r4, #0
    2da6:	701a      	strb	r2, [r3, #0]
    2da8:	1cbb      	adds	r3, r7, #2
    2daa:	1c02      	adds	r2, r0, #0
    2dac:	701a      	strb	r2, [r3, #0]
    2dae:	1c7b      	adds	r3, r7, #1
    2db0:	1c0a      	adds	r2, r1, #0
    2db2:	701a      	strb	r2, [r3, #0]
    2db4:	1cfb      	adds	r3, r7, #3
    2db6:	781a      	ldrb	r2, [r3, #0]
    2db8:	1cbb      	adds	r3, r7, #2
    2dba:	781b      	ldrb	r3, [r3, #0]
    2dbc:	005b      	lsls	r3, r3, #1
    2dbe:	431a      	orrs	r2, r3
    2dc0:	1c7b      	adds	r3, r7, #1
    2dc2:	781b      	ldrb	r3, [r3, #0]
    2dc4:	009b      	lsls	r3, r3, #2
    2dc6:	431a      	orrs	r2, r3
    2dc8:	2318      	movs	r3, #24
    2dca:	18fb      	adds	r3, r7, r3
    2dcc:	781b      	ldrb	r3, [r3, #0]
    2dce:	021b      	lsls	r3, r3, #8
    2dd0:	431a      	orrs	r2, r3
    2dd2:	0011      	movs	r1, r2
    2dd4:	231c      	movs	r3, #28
    2dd6:	18fb      	adds	r3, r7, r3
    2dd8:	781b      	ldrb	r3, [r3, #0]
    2dda:	041a      	lsls	r2, r3, #16
    2ddc:	23a0      	movs	r3, #160	; 0xa0
    2dde:	05db      	lsls	r3, r3, #23
    2de0:	4311      	orrs	r1, r2
    2de2:	687a      	ldr	r2, [r7, #4]
    2de4:	32c1      	adds	r2, #193	; 0xc1
    2de6:	32ff      	adds	r2, #255	; 0xff
    2de8:	0092      	lsls	r2, r2, #2
    2dea:	50d1      	str	r1, [r2, r3]
    2dec:	46c0      	nop			; (mov r8, r8)
    2dee:	46bd      	mov	sp, r7
    2df0:	b003      	add	sp, #12
    2df2:	bd90      	pop	{r4, r7, pc}

00002df4 <nrf_gpio_cfg_input>:
    2df4:	b580      	push	{r7, lr}
    2df6:	b084      	sub	sp, #16
    2df8:	af02      	add	r7, sp, #8
    2dfa:	6078      	str	r0, [r7, #4]
    2dfc:	000a      	movs	r2, r1
    2dfe:	1cfb      	adds	r3, r7, #3
    2e00:	701a      	strb	r2, [r3, #0]
    2e02:	1cfb      	adds	r3, r7, #3
    2e04:	781b      	ldrb	r3, [r3, #0]
    2e06:	6878      	ldr	r0, [r7, #4]
    2e08:	2200      	movs	r2, #0
    2e0a:	9201      	str	r2, [sp, #4]
    2e0c:	2200      	movs	r2, #0
    2e0e:	9200      	str	r2, [sp, #0]
    2e10:	2200      	movs	r2, #0
    2e12:	2100      	movs	r1, #0
    2e14:	f7ff ffbe 	bl	2d94 <nrf_gpio_cfg>
    2e18:	46c0      	nop			; (mov r8, r8)
    2e1a:	46bd      	mov	sp, r7
    2e1c:	b002      	add	sp, #8
    2e1e:	bd80      	pop	{r7, pc}

00002e20 <nrf_gpio_pin_read>:
    2e20:	b580      	push	{r7, lr}
    2e22:	b082      	sub	sp, #8
    2e24:	af00      	add	r7, sp, #0
    2e26:	6078      	str	r0, [r7, #4]
    2e28:	23a0      	movs	r3, #160	; 0xa0
    2e2a:	05da      	lsls	r2, r3, #23
    2e2c:	23a2      	movs	r3, #162	; 0xa2
    2e2e:	00db      	lsls	r3, r3, #3
    2e30:	58d2      	ldr	r2, [r2, r3]
    2e32:	687b      	ldr	r3, [r7, #4]
    2e34:	40da      	lsrs	r2, r3
    2e36:	0013      	movs	r3, r2
    2e38:	2201      	movs	r2, #1
    2e3a:	4013      	ands	r3, r2
    2e3c:	0018      	movs	r0, r3
    2e3e:	46bd      	mov	sp, r7
    2e40:	b002      	add	sp, #8
    2e42:	bd80      	pop	{r7, pc}

00002e44 <line_sensor_init>:
    2e44:	b580      	push	{r7, lr}
    2e46:	af00      	add	r7, sp, #0
    2e48:	2100      	movs	r1, #0
    2e4a:	201a      	movs	r0, #26
    2e4c:	f7ff ffd2 	bl	2df4 <nrf_gpio_cfg_input>
    2e50:	2100      	movs	r1, #0
    2e52:	2011      	movs	r0, #17
    2e54:	f7ff ffce 	bl	2df4 <nrf_gpio_cfg_input>
    2e58:	46c0      	nop			; (mov r8, r8)
    2e5a:	46bd      	mov	sp, r7
    2e5c:	bd80      	pop	{r7, pc}
	...

00002e60 <line_sensor_is_line_present>:
    2e60:	b580      	push	{r7, lr}
    2e62:	b084      	sub	sp, #16
    2e64:	af00      	add	r7, sp, #0
    2e66:	0002      	movs	r2, r0
    2e68:	1dfb      	adds	r3, r7, #7
    2e6a:	701a      	strb	r2, [r3, #0]
    2e6c:	2300      	movs	r3, #0
    2e6e:	60fb      	str	r3, [r7, #12]
    2e70:	1dfb      	adds	r3, r7, #7
    2e72:	781b      	ldrb	r3, [r3, #0]
    2e74:	2b00      	cmp	r3, #0
    2e76:	d009      	beq.n	2e8c <line_sensor_is_line_present+0x2c>
    2e78:	1dfb      	adds	r3, r7, #7
    2e7a:	781b      	ldrb	r3, [r3, #0]
    2e7c:	2b01      	cmp	r3, #1
    2e7e:	d005      	beq.n	2e8c <line_sensor_is_line_present+0x2c>
    2e80:	4b0c      	ldr	r3, [pc, #48]	; (2eb4 <line_sensor_is_line_present+0x54>)
    2e82:	4a0d      	ldr	r2, [pc, #52]	; (2eb8 <line_sensor_is_line_present+0x58>)
    2e84:	480d      	ldr	r0, [pc, #52]	; (2ebc <line_sensor_is_line_present+0x5c>)
    2e86:	2116      	movs	r1, #22
    2e88:	f000 f9c8 	bl	321c <__assert_func>
    2e8c:	1dfb      	adds	r3, r7, #7
    2e8e:	781b      	ldrb	r3, [r3, #0]
    2e90:	2b00      	cmp	r3, #0
    2e92:	d101      	bne.n	2e98 <line_sensor_is_line_present+0x38>
    2e94:	231a      	movs	r3, #26
    2e96:	e000      	b.n	2e9a <line_sensor_is_line_present+0x3a>
    2e98:	2311      	movs	r3, #17
    2e9a:	60fb      	str	r3, [r7, #12]
    2e9c:	68fb      	ldr	r3, [r7, #12]
    2e9e:	0018      	movs	r0, r3
    2ea0:	f7ff ffbe 	bl	2e20 <nrf_gpio_pin_read>
    2ea4:	0003      	movs	r3, r0
    2ea6:	1e5a      	subs	r2, r3, #1
    2ea8:	4193      	sbcs	r3, r2
    2eaa:	b2db      	uxtb	r3, r3
    2eac:	0018      	movs	r0, r3
    2eae:	46bd      	mov	sp, r7
    2eb0:	b004      	add	sp, #16
    2eb2:	bd80      	pop	{r7, pc}
    2eb4:	00005f00 	.word	0x00005f00
    2eb8:	00005f54 	.word	0x00005f54
    2ebc:	00005f3c 	.word	0x00005f3c

00002ec0 <SystemCoreClockUpdate>:
    2ec0:	b580      	push	{r7, lr}
    2ec2:	af00      	add	r7, sp, #0
    2ec4:	4b02      	ldr	r3, [pc, #8]	; (2ed0 <SystemCoreClockUpdate+0x10>)
    2ec6:	4a03      	ldr	r2, [pc, #12]	; (2ed4 <SystemCoreClockUpdate+0x14>)
    2ec8:	601a      	str	r2, [r3, #0]
    2eca:	46c0      	nop			; (mov r8, r8)
    2ecc:	46bd      	mov	sp, r7
    2ece:	bd80      	pop	{r7, pc}
    2ed0:	2000000c 	.word	0x2000000c
    2ed4:	00f42400 	.word	0x00f42400

00002ed8 <SystemInit>:
    2ed8:	b580      	push	{r7, lr}
    2eda:	af00      	add	r7, sp, #0
    2edc:	f000 f81c 	bl	2f18 <is_manual_peripheral_setup_needed>
    2ee0:	1e03      	subs	r3, r0, #0
    2ee2:	d006      	beq.n	2ef2 <SystemInit+0x1a>
    2ee4:	4b09      	ldr	r3, [pc, #36]	; (2f0c <SystemInit+0x34>)
    2ee6:	4a0a      	ldr	r2, [pc, #40]	; (2f10 <SystemInit+0x38>)
    2ee8:	601a      	str	r2, [r3, #0]
    2eea:	4b0a      	ldr	r3, [pc, #40]	; (2f14 <SystemInit+0x3c>)
    2eec:	2280      	movs	r2, #128	; 0x80
    2eee:	0212      	lsls	r2, r2, #8
    2ef0:	601a      	str	r2, [r3, #0]
    2ef2:	f000 f851 	bl	2f98 <is_disabled_in_debug_needed>
    2ef6:	1e03      	subs	r3, r0, #0
    2ef8:	d005      	beq.n	2f06 <SystemInit+0x2e>
    2efa:	2380      	movs	r3, #128	; 0x80
    2efc:	05da      	lsls	r2, r3, #23
    2efe:	23c1      	movs	r3, #193	; 0xc1
    2f00:	00db      	lsls	r3, r3, #3
    2f02:	2101      	movs	r1, #1
    2f04:	50d1      	str	r1, [r2, r3]
    2f06:	46c0      	nop			; (mov r8, r8)
    2f08:	46bd      	mov	sp, r7
    2f0a:	bd80      	pop	{r7, pc}
    2f0c:	40000504 	.word	0x40000504
    2f10:	c007ffdf 	.word	0xc007ffdf
    2f14:	40006c18 	.word	0x40006c18

00002f18 <is_manual_peripheral_setup_needed>:
    2f18:	b580      	push	{r7, lr}
    2f1a:	af00      	add	r7, sp, #0
    2f1c:	4b1a      	ldr	r3, [pc, #104]	; (2f88 <is_manual_peripheral_setup_needed+0x70>)
    2f1e:	681b      	ldr	r3, [r3, #0]
    2f20:	22ff      	movs	r2, #255	; 0xff
    2f22:	4013      	ands	r3, r2
    2f24:	2b01      	cmp	r3, #1
    2f26:	d12a      	bne.n	2f7e <is_manual_peripheral_setup_needed+0x66>
    2f28:	4b18      	ldr	r3, [pc, #96]	; (2f8c <is_manual_peripheral_setup_needed+0x74>)
    2f2a:	681b      	ldr	r3, [r3, #0]
    2f2c:	220f      	movs	r2, #15
    2f2e:	4013      	ands	r3, r2
    2f30:	d125      	bne.n	2f7e <is_manual_peripheral_setup_needed+0x66>
    2f32:	4b17      	ldr	r3, [pc, #92]	; (2f90 <is_manual_peripheral_setup_needed+0x78>)
    2f34:	681b      	ldr	r3, [r3, #0]
    2f36:	22f0      	movs	r2, #240	; 0xf0
    2f38:	4013      	ands	r3, r2
    2f3a:	d106      	bne.n	2f4a <is_manual_peripheral_setup_needed+0x32>
    2f3c:	4b15      	ldr	r3, [pc, #84]	; (2f94 <is_manual_peripheral_setup_needed+0x7c>)
    2f3e:	681b      	ldr	r3, [r3, #0]
    2f40:	22f0      	movs	r2, #240	; 0xf0
    2f42:	4013      	ands	r3, r2
    2f44:	d101      	bne.n	2f4a <is_manual_peripheral_setup_needed+0x32>
    2f46:	2301      	movs	r3, #1
    2f48:	e01a      	b.n	2f80 <is_manual_peripheral_setup_needed+0x68>
    2f4a:	4b11      	ldr	r3, [pc, #68]	; (2f90 <is_manual_peripheral_setup_needed+0x78>)
    2f4c:	681b      	ldr	r3, [r3, #0]
    2f4e:	22f0      	movs	r2, #240	; 0xf0
    2f50:	4013      	ands	r3, r2
    2f52:	2b10      	cmp	r3, #16
    2f54:	d106      	bne.n	2f64 <is_manual_peripheral_setup_needed+0x4c>
    2f56:	4b0f      	ldr	r3, [pc, #60]	; (2f94 <is_manual_peripheral_setup_needed+0x7c>)
    2f58:	681b      	ldr	r3, [r3, #0]
    2f5a:	22f0      	movs	r2, #240	; 0xf0
    2f5c:	4013      	ands	r3, r2
    2f5e:	d101      	bne.n	2f64 <is_manual_peripheral_setup_needed+0x4c>
    2f60:	2301      	movs	r3, #1
    2f62:	e00d      	b.n	2f80 <is_manual_peripheral_setup_needed+0x68>
    2f64:	4b0a      	ldr	r3, [pc, #40]	; (2f90 <is_manual_peripheral_setup_needed+0x78>)
    2f66:	681b      	ldr	r3, [r3, #0]
    2f68:	22f0      	movs	r2, #240	; 0xf0
    2f6a:	4013      	ands	r3, r2
    2f6c:	2b30      	cmp	r3, #48	; 0x30
    2f6e:	d106      	bne.n	2f7e <is_manual_peripheral_setup_needed+0x66>
    2f70:	4b08      	ldr	r3, [pc, #32]	; (2f94 <is_manual_peripheral_setup_needed+0x7c>)
    2f72:	681b      	ldr	r3, [r3, #0]
    2f74:	22f0      	movs	r2, #240	; 0xf0
    2f76:	4013      	ands	r3, r2
    2f78:	d101      	bne.n	2f7e <is_manual_peripheral_setup_needed+0x66>
    2f7a:	2301      	movs	r3, #1
    2f7c:	e000      	b.n	2f80 <is_manual_peripheral_setup_needed+0x68>
    2f7e:	2300      	movs	r3, #0
    2f80:	0018      	movs	r0, r3
    2f82:	46bd      	mov	sp, r7
    2f84:	bd80      	pop	{r7, pc}
    2f86:	46c0      	nop			; (mov r8, r8)
    2f88:	f0000fe0 	.word	0xf0000fe0
    2f8c:	f0000fe4 	.word	0xf0000fe4
    2f90:	f0000fe8 	.word	0xf0000fe8
    2f94:	f0000fec 	.word	0xf0000fec

00002f98 <is_disabled_in_debug_needed>:
    2f98:	b580      	push	{r7, lr}
    2f9a:	af00      	add	r7, sp, #0
    2f9c:	4b0d      	ldr	r3, [pc, #52]	; (2fd4 <is_disabled_in_debug_needed+0x3c>)
    2f9e:	681b      	ldr	r3, [r3, #0]
    2fa0:	22ff      	movs	r2, #255	; 0xff
    2fa2:	4013      	ands	r3, r2
    2fa4:	2b01      	cmp	r3, #1
    2fa6:	d111      	bne.n	2fcc <is_disabled_in_debug_needed+0x34>
    2fa8:	4b0b      	ldr	r3, [pc, #44]	; (2fd8 <is_disabled_in_debug_needed+0x40>)
    2faa:	681b      	ldr	r3, [r3, #0]
    2fac:	220f      	movs	r2, #15
    2fae:	4013      	ands	r3, r2
    2fb0:	d10c      	bne.n	2fcc <is_disabled_in_debug_needed+0x34>
    2fb2:	4b0a      	ldr	r3, [pc, #40]	; (2fdc <is_disabled_in_debug_needed+0x44>)
    2fb4:	681b      	ldr	r3, [r3, #0]
    2fb6:	22f0      	movs	r2, #240	; 0xf0
    2fb8:	4013      	ands	r3, r2
    2fba:	2b40      	cmp	r3, #64	; 0x40
    2fbc:	d106      	bne.n	2fcc <is_disabled_in_debug_needed+0x34>
    2fbe:	4b08      	ldr	r3, [pc, #32]	; (2fe0 <is_disabled_in_debug_needed+0x48>)
    2fc0:	681b      	ldr	r3, [r3, #0]
    2fc2:	22f0      	movs	r2, #240	; 0xf0
    2fc4:	4013      	ands	r3, r2
    2fc6:	d101      	bne.n	2fcc <is_disabled_in_debug_needed+0x34>
    2fc8:	2301      	movs	r3, #1
    2fca:	e000      	b.n	2fce <is_disabled_in_debug_needed+0x36>
    2fcc:	2300      	movs	r3, #0
    2fce:	0018      	movs	r0, r3
    2fd0:	46bd      	mov	sp, r7
    2fd2:	bd80      	pop	{r7, pc}
    2fd4:	f0000fe0 	.word	0xf0000fe0
    2fd8:	f0000fe4 	.word	0xf0000fe4
    2fdc:	f0000fe8 	.word	0xf0000fe8
    2fe0:	f0000fec 	.word	0xf0000fec

00002fe4 <nrf_delay_ms>:
    2fe4:	b580      	push	{r7, lr}
    2fe6:	b084      	sub	sp, #16
    2fe8:	af00      	add	r7, sp, #0
    2fea:	6078      	str	r0, [r7, #4]
    2fec:	e015      	b.n	301a <nrf_delay_ms+0x36>
    2fee:	687b      	ldr	r3, [r7, #4]
    2ff0:	3b01      	subs	r3, #1
    2ff2:	607b      	str	r3, [r7, #4]
    2ff4:	4b0d      	ldr	r3, [pc, #52]	; (302c <nrf_delay_ms+0x48>)
    2ff6:	60fb      	str	r3, [r7, #12]
    2ff8:	68fb      	ldr	r3, [r7, #12]
    2ffa:	0018      	movs	r0, r3
    2ffc:	3801      	subs	r0, #1
    2ffe:	46c0      	nop			; (mov r8, r8)
    3000:	46c0      	nop			; (mov r8, r8)
    3002:	46c0      	nop			; (mov r8, r8)
    3004:	46c0      	nop			; (mov r8, r8)
    3006:	46c0      	nop			; (mov r8, r8)
    3008:	46c0      	nop			; (mov r8, r8)
    300a:	46c0      	nop			; (mov r8, r8)
    300c:	46c0      	nop			; (mov r8, r8)
    300e:	46c0      	nop			; (mov r8, r8)
    3010:	46c0      	nop			; (mov r8, r8)
    3012:	46c0      	nop			; (mov r8, r8)
    3014:	46c0      	nop			; (mov r8, r8)
    3016:	d1f1      	bne.n	2ffc <nrf_delay_ms+0x18>
    3018:	46c0      	nop			; (mov r8, r8)
    301a:	687b      	ldr	r3, [r7, #4]
    301c:	2b00      	cmp	r3, #0
    301e:	d1e6      	bne.n	2fee <nrf_delay_ms+0xa>
    3020:	46c0      	nop			; (mov r8, r8)
    3022:	46c0      	nop			; (mov r8, r8)
    3024:	46bd      	mov	sp, r7
    3026:	b004      	add	sp, #16
    3028:	bd80      	pop	{r7, pc}
    302a:	46c0      	nop			; (mov r8, r8)
    302c:	000003e7 	.word	0x000003e7

00003030 <nrf_adc_input_select>:
    3030:	b580      	push	{r7, lr}
    3032:	b082      	sub	sp, #8
    3034:	af00      	add	r7, sp, #0
    3036:	0002      	movs	r2, r0
    3038:	1dfb      	adds	r3, r7, #7
    303a:	701a      	strb	r2, [r3, #0]
    303c:	1dfb      	adds	r3, r7, #7
    303e:	781b      	ldrb	r3, [r3, #0]
    3040:	021a      	lsls	r2, r3, #8
    3042:	490e      	ldr	r1, [pc, #56]	; (307c <nrf_adc_input_select+0x4c>)
    3044:	4b0e      	ldr	r3, [pc, #56]	; (3080 <nrf_adc_input_select+0x50>)
    3046:	58cb      	ldr	r3, [r1, r3]
    3048:	490e      	ldr	r1, [pc, #56]	; (3084 <nrf_adc_input_select+0x54>)
    304a:	400b      	ands	r3, r1
    304c:	490b      	ldr	r1, [pc, #44]	; (307c <nrf_adc_input_select+0x4c>)
    304e:	4313      	orrs	r3, r2
    3050:	4a0b      	ldr	r2, [pc, #44]	; (3080 <nrf_adc_input_select+0x50>)
    3052:	508b      	str	r3, [r1, r2]
    3054:	1dfb      	adds	r3, r7, #7
    3056:	781b      	ldrb	r3, [r3, #0]
    3058:	2b00      	cmp	r3, #0
    305a:	d005      	beq.n	3068 <nrf_adc_input_select+0x38>
    305c:	4a07      	ldr	r2, [pc, #28]	; (307c <nrf_adc_input_select+0x4c>)
    305e:	23a0      	movs	r3, #160	; 0xa0
    3060:	00db      	lsls	r3, r3, #3
    3062:	2101      	movs	r1, #1
    3064:	50d1      	str	r1, [r2, r3]
    3066:	e004      	b.n	3072 <nrf_adc_input_select+0x42>
    3068:	4a04      	ldr	r2, [pc, #16]	; (307c <nrf_adc_input_select+0x4c>)
    306a:	23a0      	movs	r3, #160	; 0xa0
    306c:	00db      	lsls	r3, r3, #3
    306e:	2100      	movs	r1, #0
    3070:	50d1      	str	r1, [r2, r3]
    3072:	46c0      	nop			; (mov r8, r8)
    3074:	46bd      	mov	sp, r7
    3076:	b002      	add	sp, #8
    3078:	bd80      	pop	{r7, pc}
    307a:	46c0      	nop			; (mov r8, r8)
    307c:	40007000 	.word	0x40007000
    3080:	00000504 	.word	0x00000504
    3084:	ffff00ff 	.word	0xffff00ff

00003088 <nrf_adc_result_get>:
    3088:	b580      	push	{r7, lr}
    308a:	af00      	add	r7, sp, #0
    308c:	4a03      	ldr	r2, [pc, #12]	; (309c <nrf_adc_result_get+0x14>)
    308e:	23a1      	movs	r3, #161	; 0xa1
    3090:	00db      	lsls	r3, r3, #3
    3092:	58d3      	ldr	r3, [r2, r3]
    3094:	0018      	movs	r0, r3
    3096:	46bd      	mov	sp, r7
    3098:	bd80      	pop	{r7, pc}
    309a:	46c0      	nop			; (mov r8, r8)
    309c:	40007000 	.word	0x40007000

000030a0 <nrf_adc_start>:
    30a0:	b580      	push	{r7, lr}
    30a2:	af00      	add	r7, sp, #0
    30a4:	4b02      	ldr	r3, [pc, #8]	; (30b0 <nrf_adc_start+0x10>)
    30a6:	2201      	movs	r2, #1
    30a8:	601a      	str	r2, [r3, #0]
    30aa:	46c0      	nop			; (mov r8, r8)
    30ac:	46bd      	mov	sp, r7
    30ae:	bd80      	pop	{r7, pc}
    30b0:	40007000 	.word	0x40007000

000030b4 <nrf_adc_stop>:
    30b4:	b580      	push	{r7, lr}
    30b6:	af00      	add	r7, sp, #0
    30b8:	4b02      	ldr	r3, [pc, #8]	; (30c4 <nrf_adc_stop+0x10>)
    30ba:	2201      	movs	r2, #1
    30bc:	605a      	str	r2, [r3, #4]
    30be:	46c0      	nop			; (mov r8, r8)
    30c0:	46bd      	mov	sp, r7
    30c2:	bd80      	pop	{r7, pc}
    30c4:	40007000 	.word	0x40007000

000030c8 <nrf_adc_conversion_finished>:
    30c8:	b580      	push	{r7, lr}
    30ca:	af00      	add	r7, sp, #0
    30cc:	4a04      	ldr	r2, [pc, #16]	; (30e0 <nrf_adc_conversion_finished+0x18>)
    30ce:	2380      	movs	r3, #128	; 0x80
    30d0:	005b      	lsls	r3, r3, #1
    30d2:	58d3      	ldr	r3, [r2, r3]
    30d4:	1e5a      	subs	r2, r3, #1
    30d6:	4193      	sbcs	r3, r2
    30d8:	b2db      	uxtb	r3, r3
    30da:	0018      	movs	r0, r3
    30dc:	46bd      	mov	sp, r7
    30de:	bd80      	pop	{r7, pc}
    30e0:	40007000 	.word	0x40007000

000030e4 <nrf_adc_conversion_event_clean>:
    30e4:	b580      	push	{r7, lr}
    30e6:	af00      	add	r7, sp, #0
    30e8:	4a03      	ldr	r2, [pc, #12]	; (30f8 <nrf_adc_conversion_event_clean+0x14>)
    30ea:	2380      	movs	r3, #128	; 0x80
    30ec:	005b      	lsls	r3, r3, #1
    30ee:	2100      	movs	r1, #0
    30f0:	50d1      	str	r1, [r2, r3]
    30f2:	46c0      	nop			; (mov r8, r8)
    30f4:	46bd      	mov	sp, r7
    30f6:	bd80      	pop	{r7, pc}
    30f8:	40007000 	.word	0x40007000

000030fc <nrf_adc_configure>:
    30fc:	b580      	push	{r7, lr}
    30fe:	b084      	sub	sp, #16
    3100:	af00      	add	r7, sp, #0
    3102:	6078      	str	r0, [r7, #4]
    3104:	2300      	movs	r3, #0
    3106:	60fb      	str	r3, [r7, #12]
    3108:	687b      	ldr	r3, [r7, #4]
    310a:	781b      	ldrb	r3, [r3, #0]
    310c:	001a      	movs	r2, r3
    310e:	2303      	movs	r3, #3
    3110:	4013      	ands	r3, r2
    3112:	68fa      	ldr	r2, [r7, #12]
    3114:	4313      	orrs	r3, r2
    3116:	60fb      	str	r3, [r7, #12]
    3118:	687b      	ldr	r3, [r7, #4]
    311a:	785b      	ldrb	r3, [r3, #1]
    311c:	009b      	lsls	r3, r3, #2
    311e:	221c      	movs	r2, #28
    3120:	4013      	ands	r3, r2
    3122:	68fa      	ldr	r2, [r7, #12]
    3124:	4313      	orrs	r3, r2
    3126:	60fb      	str	r3, [r7, #12]
    3128:	687b      	ldr	r3, [r7, #4]
    312a:	685b      	ldr	r3, [r3, #4]
    312c:	015b      	lsls	r3, r3, #5
    312e:	2260      	movs	r2, #96	; 0x60
    3130:	4013      	ands	r3, r2
    3132:	68fa      	ldr	r2, [r7, #12]
    3134:	4313      	orrs	r3, r2
    3136:	60fb      	str	r3, [r7, #12]
    3138:	687b      	ldr	r3, [r7, #4]
    313a:	685a      	ldr	r2, [r3, #4]
    313c:	23c0      	movs	r3, #192	; 0xc0
    313e:	029b      	lsls	r3, r3, #10
    3140:	4013      	ands	r3, r2
    3142:	d007      	beq.n	3154 <nrf_adc_configure+0x58>
    3144:	687b      	ldr	r3, [r7, #4]
    3146:	685a      	ldr	r2, [r3, #4]
    3148:	23c0      	movs	r3, #192	; 0xc0
    314a:	029b      	lsls	r3, r3, #10
    314c:	4013      	ands	r3, r2
    314e:	68fa      	ldr	r2, [r7, #12]
    3150:	4313      	orrs	r3, r2
    3152:	60fb      	str	r3, [r7, #12]
    3154:	2000      	movs	r0, #0
    3156:	f7ff ff6b 	bl	3030 <nrf_adc_input_select>
    315a:	4a07      	ldr	r2, [pc, #28]	; (3178 <nrf_adc_configure+0x7c>)
    315c:	4b07      	ldr	r3, [pc, #28]	; (317c <nrf_adc_configure+0x80>)
    315e:	58d2      	ldr	r2, [r2, r3]
    3160:	23ff      	movs	r3, #255	; 0xff
    3162:	021b      	lsls	r3, r3, #8
    3164:	401a      	ands	r2, r3
    3166:	4904      	ldr	r1, [pc, #16]	; (3178 <nrf_adc_configure+0x7c>)
    3168:	68fb      	ldr	r3, [r7, #12]
    316a:	4313      	orrs	r3, r2
    316c:	4a03      	ldr	r2, [pc, #12]	; (317c <nrf_adc_configure+0x80>)
    316e:	508b      	str	r3, [r1, r2]
    3170:	46c0      	nop			; (mov r8, r8)
    3172:	46bd      	mov	sp, r7
    3174:	b004      	add	sp, #16
    3176:	bd80      	pop	{r7, pc}
    3178:	40007000 	.word	0x40007000
    317c:	00000504 	.word	0x00000504

00003180 <nrf_adc_convert_single>:
    3180:	b580      	push	{r7, lr}
    3182:	b084      	sub	sp, #16
    3184:	af00      	add	r7, sp, #0
    3186:	0002      	movs	r2, r0
    3188:	1dfb      	adds	r3, r7, #7
    318a:	701a      	strb	r2, [r3, #0]
    318c:	1dfb      	adds	r3, r7, #7
    318e:	781b      	ldrb	r3, [r3, #0]
    3190:	0018      	movs	r0, r3
    3192:	f7ff ff4d 	bl	3030 <nrf_adc_input_select>
    3196:	f7ff ff83 	bl	30a0 <nrf_adc_start>
    319a:	46c0      	nop			; (mov r8, r8)
    319c:	f7ff ff94 	bl	30c8 <nrf_adc_conversion_finished>
    31a0:	0003      	movs	r3, r0
    31a2:	001a      	movs	r2, r3
    31a4:	2301      	movs	r3, #1
    31a6:	4053      	eors	r3, r2
    31a8:	b2db      	uxtb	r3, r3
    31aa:	2b00      	cmp	r3, #0
    31ac:	d1f6      	bne.n	319c <nrf_adc_convert_single+0x1c>
    31ae:	f7ff ff99 	bl	30e4 <nrf_adc_conversion_event_clean>
    31b2:	f7ff ff69 	bl	3088 <nrf_adc_result_get>
    31b6:	0003      	movs	r3, r0
    31b8:	60fb      	str	r3, [r7, #12]
    31ba:	f7ff ff7b 	bl	30b4 <nrf_adc_stop>
    31be:	68fb      	ldr	r3, [r7, #12]
    31c0:	0018      	movs	r0, r3
    31c2:	46bd      	mov	sp, r7
    31c4:	b004      	add	sp, #16
    31c6:	bd80      	pop	{r7, pc}

000031c8 <Reset_Handler>:
    31c8:	2103      	movs	r1, #3
    31ca:	480a      	ldr	r0, [pc, #40]	; (31f4 <Reset_Handler+0x2c>)
    31cc:	6802      	ldr	r2, [r0, #0]
    31ce:	430a      	orrs	r2, r1
    31d0:	6002      	str	r2, [r0, #0]
    31d2:	4809      	ldr	r0, [pc, #36]	; (31f8 <Reset_Handler+0x30>)
    31d4:	6802      	ldr	r2, [r0, #0]
    31d6:	430a      	orrs	r2, r1
    31d8:	6002      	str	r2, [r0, #0]
    31da:	4908      	ldr	r1, [pc, #32]	; (31fc <Reset_Handler+0x34>)
    31dc:	4a08      	ldr	r2, [pc, #32]	; (3200 <Reset_Handler+0x38>)
    31de:	4b09      	ldr	r3, [pc, #36]	; (3204 <Reset_Handler+0x3c>)
    31e0:	1a9b      	subs	r3, r3, r2
    31e2:	dd03      	ble.n	31ec <Reset_Handler+0x24>
    31e4:	3b04      	subs	r3, #4
    31e6:	58c8      	ldr	r0, [r1, r3]
    31e8:	50d0      	str	r0, [r2, r3]
    31ea:	dcfb      	bgt.n	31e4 <Reset_Handler+0x1c>
    31ec:	4806      	ldr	r0, [pc, #24]	; (3208 <Reset_Handler+0x40>)
    31ee:	4780      	blx	r0
    31f0:	4806      	ldr	r0, [pc, #24]	; (320c <Reset_Handler+0x44>)
    31f2:	4700      	bx	r0
    31f4:	40000524 	.word	0x40000524
    31f8:	40000554 	.word	0x40000554
    31fc:	00006090 	.word	0x00006090
    3200:	20000000 	.word	0x20000000
    3204:	2000007c 	.word	0x2000007c
    3208:	00002ed9 	.word	0x00002ed9
    320c:	00000109 	.word	0x00000109

00003210 <NMI_Handler>:
    3210:	e7fe      	b.n	3210 <NMI_Handler>

00003212 <HardFault_Handler>:
    3212:	e7fe      	b.n	3212 <HardFault_Handler>

00003214 <SVC_Handler>:
    3214:	e7fe      	b.n	3214 <SVC_Handler>

00003216 <PendSV_Handler>:
    3216:	e7fe      	b.n	3216 <PendSV_Handler>

00003218 <SysTick_Handler>:
    3218:	e7fe      	b.n	3218 <SysTick_Handler>

0000321a <Default_Handler>:
    321a:	e7fe      	b.n	321a <Default_Handler>

0000321c <__assert_func>:
    321c:	b530      	push	{r4, r5, lr}
    321e:	0014      	movs	r4, r2
    3220:	001a      	movs	r2, r3
    3222:	4b09      	ldr	r3, [pc, #36]	; (3248 <__assert_func+0x2c>)
    3224:	0005      	movs	r5, r0
    3226:	681b      	ldr	r3, [r3, #0]
    3228:	b085      	sub	sp, #20
    322a:	68d8      	ldr	r0, [r3, #12]
    322c:	4b07      	ldr	r3, [pc, #28]	; (324c <__assert_func+0x30>)
    322e:	2c00      	cmp	r4, #0
    3230:	d101      	bne.n	3236 <__assert_func+0x1a>
    3232:	4b07      	ldr	r3, [pc, #28]	; (3250 <__assert_func+0x34>)
    3234:	001c      	movs	r4, r3
    3236:	9301      	str	r3, [sp, #4]
    3238:	9100      	str	r1, [sp, #0]
    323a:	002b      	movs	r3, r5
    323c:	4905      	ldr	r1, [pc, #20]	; (3254 <__assert_func+0x38>)
    323e:	9402      	str	r4, [sp, #8]
    3240:	f000 f832 	bl	32a8 <fiprintf>
    3244:	f000 fcec 	bl	3c20 <abort>
    3248:	20000010 	.word	0x20000010
    324c:	00005f70 	.word	0x00005f70
    3250:	00005fab 	.word	0x00005fab
    3254:	00005f7d 	.word	0x00005f7d

00003258 <__assert>:
    3258:	0013      	movs	r3, r2
    325a:	b510      	push	{r4, lr}
    325c:	2200      	movs	r2, #0
    325e:	f7ff ffdd 	bl	321c <__assert_func>
	...

00003264 <exit>:
    3264:	4b08      	ldr	r3, [pc, #32]	; (3288 <exit+0x24>)
    3266:	b510      	push	{r4, lr}
    3268:	0004      	movs	r4, r0
    326a:	2b00      	cmp	r3, #0
    326c:	d002      	beq.n	3274 <exit+0x10>
    326e:	2100      	movs	r1, #0
    3270:	e000      	b.n	3274 <exit+0x10>
    3272:	bf00      	nop
    3274:	4b05      	ldr	r3, [pc, #20]	; (328c <exit+0x28>)
    3276:	6818      	ldr	r0, [r3, #0]
    3278:	6a83      	ldr	r3, [r0, #40]	; 0x28
    327a:	2b00      	cmp	r3, #0
    327c:	d000      	beq.n	3280 <exit+0x1c>
    327e:	4798      	blx	r3
    3280:	0020      	movs	r0, r4
    3282:	f002 fc3b 	bl	5afc <_exit>
    3286:	46c0      	nop			; (mov r8, r8)
    3288:	00000000 	.word	0x00000000
    328c:	00005fac 	.word	0x00005fac

00003290 <_fiprintf_r>:
    3290:	b40c      	push	{r2, r3}
    3292:	b507      	push	{r0, r1, r2, lr}
    3294:	ab04      	add	r3, sp, #16
    3296:	cb04      	ldmia	r3!, {r2}
    3298:	9301      	str	r3, [sp, #4]
    329a:	f000 f877 	bl	338c <_vfiprintf_r>
    329e:	b003      	add	sp, #12
    32a0:	bc08      	pop	{r3}
    32a2:	b002      	add	sp, #8
    32a4:	4718      	bx	r3
	...

000032a8 <fiprintf>:
    32a8:	b40e      	push	{r1, r2, r3}
    32aa:	b503      	push	{r0, r1, lr}
    32ac:	0001      	movs	r1, r0
    32ae:	ab03      	add	r3, sp, #12
    32b0:	4804      	ldr	r0, [pc, #16]	; (32c4 <fiprintf+0x1c>)
    32b2:	cb04      	ldmia	r3!, {r2}
    32b4:	6800      	ldr	r0, [r0, #0]
    32b6:	9301      	str	r3, [sp, #4]
    32b8:	f000 f868 	bl	338c <_vfiprintf_r>
    32bc:	b002      	add	sp, #8
    32be:	bc08      	pop	{r3}
    32c0:	b003      	add	sp, #12
    32c2:	4718      	bx	r3
    32c4:	20000010 	.word	0x20000010

000032c8 <__libc_init_array>:
    32c8:	b570      	push	{r4, r5, r6, lr}
    32ca:	2600      	movs	r6, #0
    32cc:	4d0c      	ldr	r5, [pc, #48]	; (3300 <__libc_init_array+0x38>)
    32ce:	4c0d      	ldr	r4, [pc, #52]	; (3304 <__libc_init_array+0x3c>)
    32d0:	1b64      	subs	r4, r4, r5
    32d2:	10a4      	asrs	r4, r4, #2
    32d4:	42a6      	cmp	r6, r4
    32d6:	d109      	bne.n	32ec <__libc_init_array+0x24>
    32d8:	2600      	movs	r6, #0
    32da:	f002 fc11 	bl	5b00 <_init>
    32de:	4d0a      	ldr	r5, [pc, #40]	; (3308 <__libc_init_array+0x40>)
    32e0:	4c0a      	ldr	r4, [pc, #40]	; (330c <__libc_init_array+0x44>)
    32e2:	1b64      	subs	r4, r4, r5
    32e4:	10a4      	asrs	r4, r4, #2
    32e6:	42a6      	cmp	r6, r4
    32e8:	d105      	bne.n	32f6 <__libc_init_array+0x2e>
    32ea:	bd70      	pop	{r4, r5, r6, pc}
    32ec:	00b3      	lsls	r3, r6, #2
    32ee:	58eb      	ldr	r3, [r5, r3]
    32f0:	4798      	blx	r3
    32f2:	3601      	adds	r6, #1
    32f4:	e7ee      	b.n	32d4 <__libc_init_array+0xc>
    32f6:	00b3      	lsls	r3, r6, #2
    32f8:	58eb      	ldr	r3, [r5, r3]
    32fa:	4798      	blx	r3
    32fc:	3601      	adds	r6, #1
    32fe:	e7f2      	b.n	32e6 <__libc_init_array+0x1e>
    3300:	20000074 	.word	0x20000074
    3304:	20000074 	.word	0x20000074
    3308:	20000074 	.word	0x20000074
    330c:	20000078 	.word	0x20000078

00003310 <memset>:
    3310:	0003      	movs	r3, r0
    3312:	1882      	adds	r2, r0, r2
    3314:	4293      	cmp	r3, r2
    3316:	d100      	bne.n	331a <memset+0xa>
    3318:	4770      	bx	lr
    331a:	7019      	strb	r1, [r3, #0]
    331c:	3301      	adds	r3, #1
    331e:	e7f9      	b.n	3314 <memset+0x4>

00003320 <__sfputc_r>:
    3320:	6893      	ldr	r3, [r2, #8]
    3322:	b510      	push	{r4, lr}
    3324:	3b01      	subs	r3, #1
    3326:	6093      	str	r3, [r2, #8]
    3328:	2b00      	cmp	r3, #0
    332a:	da04      	bge.n	3336 <__sfputc_r+0x16>
    332c:	6994      	ldr	r4, [r2, #24]
    332e:	42a3      	cmp	r3, r4
    3330:	db07      	blt.n	3342 <__sfputc_r+0x22>
    3332:	290a      	cmp	r1, #10
    3334:	d005      	beq.n	3342 <__sfputc_r+0x22>
    3336:	6813      	ldr	r3, [r2, #0]
    3338:	1c58      	adds	r0, r3, #1
    333a:	6010      	str	r0, [r2, #0]
    333c:	7019      	strb	r1, [r3, #0]
    333e:	0008      	movs	r0, r1
    3340:	bd10      	pop	{r4, pc}
    3342:	f000 fb95 	bl	3a70 <__swbuf_r>
    3346:	0001      	movs	r1, r0
    3348:	e7f9      	b.n	333e <__sfputc_r+0x1e>

0000334a <__sfputs_r>:
    334a:	b5f8      	push	{r3, r4, r5, r6, r7, lr}
    334c:	0006      	movs	r6, r0
    334e:	000f      	movs	r7, r1
    3350:	0014      	movs	r4, r2
    3352:	18d5      	adds	r5, r2, r3
    3354:	42ac      	cmp	r4, r5
    3356:	d101      	bne.n	335c <__sfputs_r+0x12>
    3358:	2000      	movs	r0, #0
    335a:	e007      	b.n	336c <__sfputs_r+0x22>
    335c:	7821      	ldrb	r1, [r4, #0]
    335e:	003a      	movs	r2, r7
    3360:	0030      	movs	r0, r6
    3362:	f7ff ffdd 	bl	3320 <__sfputc_r>
    3366:	3401      	adds	r4, #1
    3368:	1c43      	adds	r3, r0, #1
    336a:	d1f3      	bne.n	3354 <__sfputs_r+0xa>
    336c:	bdf8      	pop	{r3, r4, r5, r6, r7, pc}

0000336e <__sprint_r>:
    336e:	6893      	ldr	r3, [r2, #8]
    3370:	b510      	push	{r4, lr}
    3372:	0014      	movs	r4, r2
    3374:	2b00      	cmp	r3, #0
    3376:	d102      	bne.n	337e <__sprint_r+0x10>
    3378:	0018      	movs	r0, r3
    337a:	6053      	str	r3, [r2, #4]
    337c:	bd10      	pop	{r4, pc}
    337e:	f000 fe57 	bl	4030 <__sfvwrite_r>
    3382:	2300      	movs	r3, #0
    3384:	60a3      	str	r3, [r4, #8]
    3386:	6063      	str	r3, [r4, #4]
    3388:	e7f8      	b.n	337c <__sprint_r+0xe>
	...

0000338c <_vfiprintf_r>:
    338c:	b5f0      	push	{r4, r5, r6, r7, lr}
    338e:	b0a1      	sub	sp, #132	; 0x84
    3390:	0006      	movs	r6, r0
    3392:	000c      	movs	r4, r1
    3394:	001f      	movs	r7, r3
    3396:	9203      	str	r2, [sp, #12]
    3398:	2800      	cmp	r0, #0
    339a:	d004      	beq.n	33a6 <_vfiprintf_r+0x1a>
    339c:	6983      	ldr	r3, [r0, #24]
    339e:	2b00      	cmp	r3, #0
    33a0:	d101      	bne.n	33a6 <_vfiprintf_r+0x1a>
    33a2:	f000 fda9 	bl	3ef8 <__sinit>
    33a6:	4b8e      	ldr	r3, [pc, #568]	; (35e0 <_vfiprintf_r+0x254>)
    33a8:	429c      	cmp	r4, r3
    33aa:	d11c      	bne.n	33e6 <_vfiprintf_r+0x5a>
    33ac:	6874      	ldr	r4, [r6, #4]
    33ae:	6e63      	ldr	r3, [r4, #100]	; 0x64
    33b0:	07db      	lsls	r3, r3, #31
    33b2:	d405      	bmi.n	33c0 <_vfiprintf_r+0x34>
    33b4:	89a3      	ldrh	r3, [r4, #12]
    33b6:	059b      	lsls	r3, r3, #22
    33b8:	d402      	bmi.n	33c0 <_vfiprintf_r+0x34>
    33ba:	6da0      	ldr	r0, [r4, #88]	; 0x58
    33bc:	f000 ffde 	bl	437c <__retarget_lock_acquire_recursive>
    33c0:	89a3      	ldrh	r3, [r4, #12]
    33c2:	071b      	lsls	r3, r3, #28
    33c4:	d502      	bpl.n	33cc <_vfiprintf_r+0x40>
    33c6:	6923      	ldr	r3, [r4, #16]
    33c8:	2b00      	cmp	r3, #0
    33ca:	d11d      	bne.n	3408 <_vfiprintf_r+0x7c>
    33cc:	0021      	movs	r1, r4
    33ce:	0030      	movs	r0, r6
    33d0:	f000 fbae 	bl	3b30 <__swsetup_r>
    33d4:	2800      	cmp	r0, #0
    33d6:	d017      	beq.n	3408 <_vfiprintf_r+0x7c>
    33d8:	6e63      	ldr	r3, [r4, #100]	; 0x64
    33da:	07db      	lsls	r3, r3, #31
    33dc:	d50d      	bpl.n	33fa <_vfiprintf_r+0x6e>
    33de:	2001      	movs	r0, #1
    33e0:	4240      	negs	r0, r0
    33e2:	b021      	add	sp, #132	; 0x84
    33e4:	bdf0      	pop	{r4, r5, r6, r7, pc}
    33e6:	4b7f      	ldr	r3, [pc, #508]	; (35e4 <_vfiprintf_r+0x258>)
    33e8:	429c      	cmp	r4, r3
    33ea:	d101      	bne.n	33f0 <_vfiprintf_r+0x64>
    33ec:	68b4      	ldr	r4, [r6, #8]
    33ee:	e7de      	b.n	33ae <_vfiprintf_r+0x22>
    33f0:	4b7d      	ldr	r3, [pc, #500]	; (35e8 <_vfiprintf_r+0x25c>)
    33f2:	429c      	cmp	r4, r3
    33f4:	d1db      	bne.n	33ae <_vfiprintf_r+0x22>
    33f6:	68f4      	ldr	r4, [r6, #12]
    33f8:	e7d9      	b.n	33ae <_vfiprintf_r+0x22>
    33fa:	89a3      	ldrh	r3, [r4, #12]
    33fc:	059b      	lsls	r3, r3, #22
    33fe:	d4ee      	bmi.n	33de <_vfiprintf_r+0x52>
    3400:	6da0      	ldr	r0, [r4, #88]	; 0x58
    3402:	f000 ffc1 	bl	4388 <__retarget_lock_release_recursive>
    3406:	e7ea      	b.n	33de <_vfiprintf_r+0x52>
    3408:	2300      	movs	r3, #0
    340a:	ad08      	add	r5, sp, #32
    340c:	616b      	str	r3, [r5, #20]
    340e:	3320      	adds	r3, #32
    3410:	766b      	strb	r3, [r5, #25]
    3412:	3310      	adds	r3, #16
    3414:	76ab      	strb	r3, [r5, #26]
    3416:	9707      	str	r7, [sp, #28]
    3418:	9f03      	ldr	r7, [sp, #12]
    341a:	783b      	ldrb	r3, [r7, #0]
    341c:	2b00      	cmp	r3, #0
    341e:	d001      	beq.n	3424 <_vfiprintf_r+0x98>
    3420:	2b25      	cmp	r3, #37	; 0x25
    3422:	d14e      	bne.n	34c2 <_vfiprintf_r+0x136>
    3424:	9b03      	ldr	r3, [sp, #12]
    3426:	1afb      	subs	r3, r7, r3
    3428:	9305      	str	r3, [sp, #20]
    342a:	9b03      	ldr	r3, [sp, #12]
    342c:	429f      	cmp	r7, r3
    342e:	d00d      	beq.n	344c <_vfiprintf_r+0xc0>
    3430:	9b05      	ldr	r3, [sp, #20]
    3432:	0021      	movs	r1, r4
    3434:	0030      	movs	r0, r6
    3436:	9a03      	ldr	r2, [sp, #12]
    3438:	f7ff ff87 	bl	334a <__sfputs_r>
    343c:	1c43      	adds	r3, r0, #1
    343e:	d100      	bne.n	3442 <_vfiprintf_r+0xb6>
    3440:	e0b5      	b.n	35ae <_vfiprintf_r+0x222>
    3442:	696a      	ldr	r2, [r5, #20]
