
rover.elf:     file format elf32-littlearm


Disassembly of section .text:

00000000 <__Vectors>:
       0:	20004000 	.word	0x20004000
       4:	000031c9 	.word	0x000031c9
       8:	00003211 	.word	0x00003211
       c:	00003213 	.word	0x00003213
	...
      2c:	00003215 	.word	0x00003215
	...
      38:	00003217 	.word	0x00003217
      3c:	00003219 	.word	0x00003219
      40:	0000321b 	.word	0x0000321b
      44:	0000321b 	.word	0x0000321b
      48:	0000321b 	.word	0x0000321b
      4c:	0000321b 	.word	0x0000321b
      50:	0000321b 	.word	0x0000321b
      54:	00000000 	.word	0x00000000
      58:	0000321b 	.word	0x0000321b
      5c:	0000321b 	.word	0x0000321b
      60:	0000321b 	.word	0x0000321b
      64:	0000321b 	.word	0x0000321b
      68:	00000e6d 	.word	0x00000e6d
      6c:	0000321b 	.word	0x0000321b
      70:	0000321b 	.word	0x0000321b
      74:	0000321b 	.word	0x0000321b
      78:	0000321b 	.word	0x0000321b
      7c:	0000321b 	.word	0x0000321b
      80:	0000321b 	.word	0x0000321b
      84:	0000321b 	.word	0x0000321b
      88:	0000321b 	.word	0x0000321b
      8c:	0000321b 	.word	0x0000321b
      90:	0000321b 	.word	0x0000321b
      94:	0000321b 	.word	0x0000321b
      98:	0000321b 	.word	0x0000321b
      9c:	0000321b 	.word	0x0000321b
      a0:	0000321b 	.word	0x0000321b
      a4:	0000321b 	.word	0x0000321b
	...

000000c0 <__do_global_dtors_aux>:
      c0:	b510      	push	{r4, lr}
      c2:	4c06      	ldr	r4, [pc, #24]	; (dc <__do_global_dtors_aux+0x1c>)
      c4:	7823      	ldrb	r3, [r4, #0]
      c6:	2b00      	cmp	r3, #0
      c8:	d107      	bne.n	da <__do_global_dtors_aux+0x1a>
      ca:	4b05      	ldr	r3, [pc, #20]	; (e0 <__do_global_dtors_aux+0x20>)
      cc:	2b00      	cmp	r3, #0
      ce:	d002      	beq.n	d6 <__do_global_dtors_aux+0x16>
      d0:	4804      	ldr	r0, [pc, #16]	; (e4 <__do_global_dtors_aux+0x24>)
      d2:	e000      	b.n	d6 <__do_global_dtors_aux+0x16>
      d4:	bf00      	nop
      d6:	2301      	movs	r3, #1
      d8:	7023      	strb	r3, [r4, #0]
      da:	bd10      	pop	{r4, pc}
      dc:	2000007c 	.word	0x2000007c
      e0:	00000000 	.word	0x00000000
      e4:	00006084 	.word	0x00006084

000000e8 <frame_dummy>:
      e8:	4b04      	ldr	r3, [pc, #16]	; (fc <frame_dummy+0x14>)
      ea:	b510      	push	{r4, lr}
      ec:	2b00      	cmp	r3, #0
      ee:	d003      	beq.n	f8 <frame_dummy+0x10>
      f0:	4903      	ldr	r1, [pc, #12]	; (100 <frame_dummy+0x18>)
      f2:	4804      	ldr	r0, [pc, #16]	; (104 <frame_dummy+0x1c>)
      f4:	e000      	b.n	f8 <frame_dummy+0x10>
      f6:	bf00      	nop
      f8:	bd10      	pop	{r4, pc}
      fa:	46c0      	nop			; (mov r8, r8)
      fc:	00000000 	.word	0x00000000
     100:	20000080 	.word	0x20000080
     104:	00006084 	.word	0x00006084

00000108 <_mainCRTStartup>:
     108:	4b16      	ldr	r3, [pc, #88]	; (164 <_mainCRTStartup+0x5c>)
     10a:	2b00      	cmp	r3, #0
     10c:	d100      	bne.n	110 <_mainCRTStartup+0x8>
     10e:	4b14      	ldr	r3, [pc, #80]	; (160 <_mainCRTStartup+0x58>)
     110:	469d      	mov	sp, r3
     112:	2240      	movs	r2, #64	; 0x40
     114:	0292      	lsls	r2, r2, #10
     116:	1a9a      	subs	r2, r3, r2
     118:	4692      	mov	sl, r2
     11a:	2100      	movs	r1, #0
     11c:	468b      	mov	fp, r1
     11e:	460f      	mov	r7, r1
     120:	4813      	ldr	r0, [pc, #76]	; (170 <_mainCRTStartup+0x68>)
     122:	4a14      	ldr	r2, [pc, #80]	; (174 <_mainCRTStartup+0x6c>)
     124:	1a12      	subs	r2, r2, r0
     126:	f003 f8f3 	bl	3310 <memset>
     12a:	4b0f      	ldr	r3, [pc, #60]	; (168 <_mainCRTStartup+0x60>)
     12c:	2b00      	cmp	r3, #0
     12e:	d000      	beq.n	132 <_mainCRTStartup+0x2a>
     130:	4798      	blx	r3
     132:	4b0e      	ldr	r3, [pc, #56]	; (16c <_mainCRTStartup+0x64>)
     134:	2b00      	cmp	r3, #0
     136:	d000      	beq.n	13a <_mainCRTStartup+0x32>
     138:	4798      	blx	r3
     13a:	2000      	movs	r0, #0
     13c:	2100      	movs	r1, #0
     13e:	0004      	movs	r4, r0
     140:	000d      	movs	r5, r1
     142:	480d      	ldr	r0, [pc, #52]	; (178 <_mainCRTStartup+0x70>)
     144:	2800      	cmp	r0, #0
     146:	d002      	beq.n	14e <_mainCRTStartup+0x46>
     148:	480c      	ldr	r0, [pc, #48]	; (17c <_mainCRTStartup+0x74>)
     14a:	e000      	b.n	14e <_mainCRTStartup+0x46>
     14c:	bf00      	nop
     14e:	f003 f8bb 	bl	32c8 <__libc_init_array>
     152:	0020      	movs	r0, r4
     154:	0029      	movs	r1, r5
     156:	f001 ffff 	bl	2158 <main>
     15a:	f003 f883 	bl	3264 <exit>
     15e:	46c0      	nop			; (mov r8, r8)
     160:	00080000 	.word	0x00080000
     164:	20004000 	.word	0x20004000
	...
     170:	2000007c 	.word	0x2000007c
     174:	20000120 	.word	0x20000120
	...

00000180 <nrf_gpio_cfg>:
     180:	b590      	push	{r4, r7, lr}
     182:	b083      	sub	sp, #12
     184:	af00      	add	r7, sp, #0
     186:	6078      	str	r0, [r7, #4]
     188:	000c      	movs	r4, r1
     18a:	0010      	movs	r0, r2
     18c:	0019      	movs	r1, r3
     18e:	1cfb      	adds	r3, r7, #3
     190:	1c22      	adds	r2, r4, #0
     192:	701a      	strb	r2, [r3, #0]
     194:	1cbb      	adds	r3, r7, #2
     196:	1c02      	adds	r2, r0, #0
     198:	701a      	strb	r2, [r3, #0]
     19a:	1c7b      	adds	r3, r7, #1
     19c:	1c0a      	adds	r2, r1, #0
     19e:	701a      	strb	r2, [r3, #0]
     1a0:	1cfb      	adds	r3, r7, #3
     1a2:	781a      	ldrb	r2, [r3, #0]
     1a4:	1cbb      	adds	r3, r7, #2
     1a6:	781b      	ldrb	r3, [r3, #0]
     1a8:	005b      	lsls	r3, r3, #1
     1aa:	431a      	orrs	r2, r3
     1ac:	1c7b      	adds	r3, r7, #1
     1ae:	781b      	ldrb	r3, [r3, #0]
     1b0:	009b      	lsls	r3, r3, #2
     1b2:	431a      	orrs	r2, r3
     1b4:	2318      	movs	r3, #24
     1b6:	18fb      	adds	r3, r7, r3
     1b8:	781b      	ldrb	r3, [r3, #0]
     1ba:	021b      	lsls	r3, r3, #8
     1bc:	431a      	orrs	r2, r3
     1be:	0011      	movs	r1, r2
     1c0:	231c      	movs	r3, #28
     1c2:	18fb      	adds	r3, r7, r3
     1c4:	781b      	ldrb	r3, [r3, #0]
     1c6:	041a      	lsls	r2, r3, #16
     1c8:	23a0      	movs	r3, #160	; 0xa0
     1ca:	05db      	lsls	r3, r3, #23
     1cc:	4311      	orrs	r1, r2
     1ce:	687a      	ldr	r2, [r7, #4]
     1d0:	32c1      	adds	r2, #193	; 0xc1
     1d2:	32ff      	adds	r2, #255	; 0xff
     1d4:	0092      	lsls	r2, r2, #2
     1d6:	50d1      	str	r1, [r2, r3]
     1d8:	46c0      	nop			; (mov r8, r8)
     1da:	46bd      	mov	sp, r7
     1dc:	b003      	add	sp, #12
     1de:	bd90      	pop	{r4, r7, pc}

000001e0 <nrf_gpio_pin_dir_set>:
     1e0:	b580      	push	{r7, lr}
     1e2:	b084      	sub	sp, #16
     1e4:	af02      	add	r7, sp, #8
     1e6:	6078      	str	r0, [r7, #4]
     1e8:	000a      	movs	r2, r1
     1ea:	1cfb      	adds	r3, r7, #3
     1ec:	701a      	strb	r2, [r3, #0]
     1ee:	1cfb      	adds	r3, r7, #3
     1f0:	781b      	ldrb	r3, [r3, #0]
     1f2:	2b00      	cmp	r3, #0
     1f4:	d10a      	bne.n	20c <nrf_gpio_pin_dir_set+0x2c>
     1f6:	6878      	ldr	r0, [r7, #4]
     1f8:	2300      	movs	r3, #0
     1fa:	9301      	str	r3, [sp, #4]
     1fc:	2300      	movs	r3, #0
     1fe:	9300      	str	r3, [sp, #0]
     200:	2300      	movs	r3, #0
     202:	2200      	movs	r2, #0
     204:	2100      	movs	r1, #0
     206:	f7ff ffbb 	bl	180 <nrf_gpio_cfg>
     20a:	e007      	b.n	21c <nrf_gpio_pin_dir_set+0x3c>
     20c:	23a0      	movs	r3, #160	; 0xa0
     20e:	05da      	lsls	r2, r3, #23
     210:	2101      	movs	r1, #1
     212:	687b      	ldr	r3, [r7, #4]
     214:	4099      	lsls	r1, r3
     216:	23a3      	movs	r3, #163	; 0xa3
     218:	00db      	lsls	r3, r3, #3
     21a:	50d1      	str	r1, [r2, r3]
     21c:	46c0      	nop			; (mov r8, r8)
     21e:	46bd      	mov	sp, r7
     220:	b002      	add	sp, #8
     222:	bd80      	pop	{r7, pc}

00000224 <nrf_gpio_pin_set>:
     224:	b580      	push	{r7, lr}
     226:	b082      	sub	sp, #8
     228:	af00      	add	r7, sp, #0
     22a:	6078      	str	r0, [r7, #4]
     22c:	23a0      	movs	r3, #160	; 0xa0
     22e:	05da      	lsls	r2, r3, #23
     230:	2101      	movs	r1, #1
     232:	687b      	ldr	r3, [r7, #4]
     234:	4099      	lsls	r1, r3
     236:	23a1      	movs	r3, #161	; 0xa1
     238:	00db      	lsls	r3, r3, #3
     23a:	50d1      	str	r1, [r2, r3]
     23c:	46c0      	nop			; (mov r8, r8)
     23e:	46bd      	mov	sp, r7
     240:	b002      	add	sp, #8
     242:	bd80      	pop	{r7, pc}

00000244 <nrf_gpio_pin_clear>:
     244:	b580      	push	{r7, lr}
     246:	b082      	sub	sp, #8
     248:	af00      	add	r7, sp, #0
     24a:	6078      	str	r0, [r7, #4]
     24c:	23a0      	movs	r3, #160	; 0xa0
     24e:	05db      	lsls	r3, r3, #23
     250:	2101      	movs	r1, #1
     252:	687a      	ldr	r2, [r7, #4]
     254:	4091      	lsls	r1, r2
     256:	000a      	movs	r2, r1
     258:	4902      	ldr	r1, [pc, #8]	; (264 <nrf_gpio_pin_clear+0x20>)
     25a:	505a      	str	r2, [r3, r1]
     25c:	46c0      	nop			; (mov r8, r8)
     25e:	46bd      	mov	sp, r7
     260:	b002      	add	sp, #8
     262:	bd80      	pop	{r7, pc}
     264:	0000050c 	.word	0x0000050c

00000268 <nrf_gpio_pin_read>:
     268:	b580      	push	{r7, lr}
     26a:	b082      	sub	sp, #8
     26c:	af00      	add	r7, sp, #0
     26e:	6078      	str	r0, [r7, #4]
     270:	23a0      	movs	r3, #160	; 0xa0
     272:	05da      	lsls	r2, r3, #23
     274:	23a2      	movs	r3, #162	; 0xa2
     276:	00db      	lsls	r3, r3, #3
     278:	58d2      	ldr	r2, [r2, r3]
     27a:	687b      	ldr	r3, [r7, #4]
     27c:	40da      	lsrs	r2, r3
     27e:	0013      	movs	r3, r2
     280:	2201      	movs	r2, #1
     282:	4013      	ands	r3, r2
     284:	0018      	movs	r0, r3
     286:	46bd      	mov	sp, r7
     288:	b002      	add	sp, #8
     28a:	bd80      	pop	{r7, pc}

0000028c <nrf_twi_task_set>:
     28c:	b580      	push	{r7, lr}
     28e:	b082      	sub	sp, #8
     290:	af00      	add	r7, sp, #0
     292:	6078      	str	r0, [r7, #4]
     294:	000a      	movs	r2, r1
     296:	1cfb      	adds	r3, r7, #3
     298:	701a      	strb	r2, [r3, #0]
     29a:	1cfb      	adds	r3, r7, #3
     29c:	781b      	ldrb	r3, [r3, #0]
     29e:	687a      	ldr	r2, [r7, #4]
     2a0:	18d3      	adds	r3, r2, r3
     2a2:	2201      	movs	r2, #1
     2a4:	601a      	str	r2, [r3, #0]
     2a6:	46c0      	nop			; (mov r8, r8)
     2a8:	46bd      	mov	sp, r7
     2aa:	b002      	add	sp, #8
     2ac:	bd80      	pop	{r7, pc}

000002ae <nrf_twi_event_clear>:
     2ae:	b580      	push	{r7, lr}
     2b0:	b082      	sub	sp, #8
     2b2:	af00      	add	r7, sp, #0
     2b4:	6078      	str	r0, [r7, #4]
     2b6:	000a      	movs	r2, r1
     2b8:	1cbb      	adds	r3, r7, #2
     2ba:	801a      	strh	r2, [r3, #0]
     2bc:	1cbb      	adds	r3, r7, #2
     2be:	881b      	ldrh	r3, [r3, #0]
     2c0:	687a      	ldr	r2, [r7, #4]
     2c2:	18d3      	adds	r3, r2, r3
     2c4:	2200      	movs	r2, #0
     2c6:	601a      	str	r2, [r3, #0]
     2c8:	46c0      	nop			; (mov r8, r8)
     2ca:	46bd      	mov	sp, r7
     2cc:	b002      	add	sp, #8
     2ce:	bd80      	pop	{r7, pc}

000002d0 <nrf_twi_event_check>:
     2d0:	b580      	push	{r7, lr}
     2d2:	b082      	sub	sp, #8
     2d4:	af00      	add	r7, sp, #0
     2d6:	6078      	str	r0, [r7, #4]
     2d8:	000a      	movs	r2, r1
     2da:	1cbb      	adds	r3, r7, #2
     2dc:	801a      	strh	r2, [r3, #0]
     2de:	1cbb      	adds	r3, r7, #2
     2e0:	881b      	ldrh	r3, [r3, #0]
     2e2:	687a      	ldr	r2, [r7, #4]
     2e4:	18d3      	adds	r3, r2, r3
     2e6:	681b      	ldr	r3, [r3, #0]
     2e8:	1e5a      	subs	r2, r3, #1
     2ea:	4193      	sbcs	r3, r2
     2ec:	b2db      	uxtb	r3, r3
     2ee:	0018      	movs	r0, r3
     2f0:	46bd      	mov	sp, r7
     2f2:	b002      	add	sp, #8
     2f4:	bd80      	pop	{r7, pc}

000002f6 <nrf_twi_shorts_set>:
     2f6:	b580      	push	{r7, lr}
     2f8:	b082      	sub	sp, #8
     2fa:	af00      	add	r7, sp, #0
     2fc:	6078      	str	r0, [r7, #4]
     2fe:	6039      	str	r1, [r7, #0]
     300:	687a      	ldr	r2, [r7, #4]
     302:	2380      	movs	r3, #128	; 0x80
     304:	009b      	lsls	r3, r3, #2
     306:	58d2      	ldr	r2, [r2, r3]
     308:	683b      	ldr	r3, [r7, #0]
     30a:	431a      	orrs	r2, r3
     30c:	0011      	movs	r1, r2
     30e:	687a      	ldr	r2, [r7, #4]
     310:	2380      	movs	r3, #128	; 0x80
     312:	009b      	lsls	r3, r3, #2
     314:	50d1      	str	r1, [r2, r3]
     316:	46c0      	nop			; (mov r8, r8)
     318:	46bd      	mov	sp, r7
     31a:	b002      	add	sp, #8
     31c:	bd80      	pop	{r7, pc}

0000031e <nrf_twi_shorts_clear>:
     31e:	b580      	push	{r7, lr}
     320:	b082      	sub	sp, #8
     322:	af00      	add	r7, sp, #0
     324:	6078      	str	r0, [r7, #4]
     326:	6039      	str	r1, [r7, #0]
     328:	687a      	ldr	r2, [r7, #4]
     32a:	2380      	movs	r3, #128	; 0x80
     32c:	009b      	lsls	r3, r3, #2
     32e:	58d3      	ldr	r3, [r2, r3]
     330:	683a      	ldr	r2, [r7, #0]
     332:	43d2      	mvns	r2, r2
     334:	401a      	ands	r2, r3
     336:	0011      	movs	r1, r2
     338:	687a      	ldr	r2, [r7, #4]
     33a:	2380      	movs	r3, #128	; 0x80
     33c:	009b      	lsls	r3, r3, #2
     33e:	50d1      	str	r1, [r2, r3]
     340:	46c0      	nop			; (mov r8, r8)
     342:	46bd      	mov	sp, r7
     344:	b002      	add	sp, #8
     346:	bd80      	pop	{r7, pc}

00000348 <nrf_twi_frequency_set>:
     348:	b580      	push	{r7, lr}
     34a:	b082      	sub	sp, #8
     34c:	af00      	add	r7, sp, #0
     34e:	6078      	str	r0, [r7, #4]
     350:	6039      	str	r1, [r7, #0]
     352:	687b      	ldr	r3, [r7, #4]
     354:	4903      	ldr	r1, [pc, #12]	; (364 <nrf_twi_frequency_set+0x1c>)
     356:	683a      	ldr	r2, [r7, #0]
     358:	505a      	str	r2, [r3, r1]
     35a:	46c0      	nop			; (mov r8, r8)
     35c:	46bd      	mov	sp, r7
     35e:	b002      	add	sp, #8
     360:	bd80      	pop	{r7, pc}
     362:	46c0      	nop			; (mov r8, r8)
     364:	00000524 	.word	0x00000524

00000368 <nrf_twi_enable>:
     368:	b580      	push	{r7, lr}
     36a:	b082      	sub	sp, #8
     36c:	af00      	add	r7, sp, #0
     36e:	6078      	str	r0, [r7, #4]
     370:	687a      	ldr	r2, [r7, #4]
     372:	23a0      	movs	r3, #160	; 0xa0
     374:	00db      	lsls	r3, r3, #3
     376:	2105      	movs	r1, #5
     378:	50d1      	str	r1, [r2, r3]
     37a:	46c0      	nop			; (mov r8, r8)
     37c:	46bd      	mov	sp, r7
     37e:	b002      	add	sp, #8
     380:	bd80      	pop	{r7, pc}
	...

00000384 <nrf_twi_pins_set>:
     384:	b580      	push	{r7, lr}
     386:	b084      	sub	sp, #16
     388:	af00      	add	r7, sp, #0
     38a:	60f8      	str	r0, [r7, #12]
     38c:	60b9      	str	r1, [r7, #8]
     38e:	607a      	str	r2, [r7, #4]
     390:	68fa      	ldr	r2, [r7, #12]
     392:	23a1      	movs	r3, #161	; 0xa1
     394:	00db      	lsls	r3, r3, #3
     396:	68b9      	ldr	r1, [r7, #8]
     398:	50d1      	str	r1, [r2, r3]
     39a:	68fb      	ldr	r3, [r7, #12]
     39c:	4903      	ldr	r1, [pc, #12]	; (3ac <nrf_twi_pins_set+0x28>)
     39e:	687a      	ldr	r2, [r7, #4]
     3a0:	505a      	str	r2, [r3, r1]
     3a2:	46c0      	nop			; (mov r8, r8)
     3a4:	46bd      	mov	sp, r7
     3a6:	b004      	add	sp, #16
     3a8:	bd80      	pop	{r7, pc}
     3aa:	46c0      	nop			; (mov r8, r8)
     3ac:	0000050c 	.word	0x0000050c

000003b0 <nrf_twi_rxd_get>:
     3b0:	b580      	push	{r7, lr}
     3b2:	b082      	sub	sp, #8
     3b4:	af00      	add	r7, sp, #0
     3b6:	6078      	str	r0, [r7, #4]
     3b8:	687a      	ldr	r2, [r7, #4]
     3ba:	23a3      	movs	r3, #163	; 0xa3
     3bc:	00db      	lsls	r3, r3, #3
     3be:	58d3      	ldr	r3, [r2, r3]
     3c0:	b2db      	uxtb	r3, r3
     3c2:	0018      	movs	r0, r3
     3c4:	46bd      	mov	sp, r7
     3c6:	b002      	add	sp, #8
     3c8:	bd80      	pop	{r7, pc}
	...

000003cc <nrf_twi_txd_set>:
     3cc:	b580      	push	{r7, lr}
     3ce:	b082      	sub	sp, #8
     3d0:	af00      	add	r7, sp, #0
     3d2:	6078      	str	r0, [r7, #4]
     3d4:	000a      	movs	r2, r1
     3d6:	1cfb      	adds	r3, r7, #3
     3d8:	701a      	strb	r2, [r3, #0]
     3da:	1cfb      	adds	r3, r7, #3
     3dc:	781a      	ldrb	r2, [r3, #0]
     3de:	687b      	ldr	r3, [r7, #4]
     3e0:	4902      	ldr	r1, [pc, #8]	; (3ec <nrf_twi_txd_set+0x20>)
     3e2:	505a      	str	r2, [r3, r1]
     3e4:	46c0      	nop			; (mov r8, r8)
     3e6:	46bd      	mov	sp, r7
     3e8:	b002      	add	sp, #8
     3ea:	bd80      	pop	{r7, pc}
     3ec:	0000051c 	.word	0x0000051c

000003f0 <nrf_twi_address_set>:
     3f0:	b580      	push	{r7, lr}
     3f2:	b082      	sub	sp, #8
     3f4:	af00      	add	r7, sp, #0
     3f6:	6078      	str	r0, [r7, #4]
     3f8:	000a      	movs	r2, r1
     3fa:	1cfb      	adds	r3, r7, #3
     3fc:	701a      	strb	r2, [r3, #0]
     3fe:	1cfb      	adds	r3, r7, #3
     400:	7819      	ldrb	r1, [r3, #0]
     402:	687a      	ldr	r2, [r7, #4]
     404:	23b1      	movs	r3, #177	; 0xb1
     406:	00db      	lsls	r3, r3, #3
     408:	50d1      	str	r1, [r2, r3]
     40a:	46c0      	nop			; (mov r8, r8)
     40c:	46bd      	mov	sp, r7
     40e:	b002      	add	sp, #8
     410:	bd80      	pop	{r7, pc}

00000412 <clear_bus>:
     412:	b590      	push	{r4, r7, lr}
     414:	b085      	sub	sp, #20
     416:	af00      	add	r7, sp, #0
     418:	6078      	str	r0, [r7, #4]
     41a:	6039      	str	r1, [r7, #0]
     41c:	240f      	movs	r4, #15
     41e:	193b      	adds	r3, r7, r4
     420:	2200      	movs	r2, #0
     422:	701a      	strb	r2, [r3, #0]
     424:	687b      	ldr	r3, [r7, #4]
     426:	2100      	movs	r1, #0
     428:	0018      	movs	r0, r3
     42a:	f7ff fed9 	bl	1e0 <nrf_gpio_pin_dir_set>
     42e:	683b      	ldr	r3, [r7, #0]
     430:	2100      	movs	r1, #0
     432:	0018      	movs	r0, r3
     434:	f7ff fed4 	bl	1e0 <nrf_gpio_pin_dir_set>
     438:	687b      	ldr	r3, [r7, #4]
     43a:	0018      	movs	r0, r3
     43c:	f7ff fef2 	bl	224 <nrf_gpio_pin_set>
     440:	683b      	ldr	r3, [r7, #0]
     442:	0018      	movs	r0, r3
     444:	f7ff feee 	bl	224 <nrf_gpio_pin_set>
     448:	687b      	ldr	r3, [r7, #4]
     44a:	2101      	movs	r1, #1
     44c:	0018      	movs	r0, r3
     44e:	f7ff fec7 	bl	1e0 <nrf_gpio_pin_dir_set>
     452:	683b      	ldr	r3, [r7, #0]
     454:	2101      	movs	r1, #1
     456:	0018      	movs	r0, r3
     458:	f7ff fec2 	bl	1e0 <nrf_gpio_pin_dir_set>
     45c:	2004      	movs	r0, #4
     45e:	f000 faa3 	bl	9a8 <timer_wait_us>
     462:	193b      	adds	r3, r7, r4
     464:	2200      	movs	r2, #0
     466:	701a      	strb	r2, [r3, #0]
     468:	e01f      	b.n	4aa <clear_bus+0x98>
     46a:	683b      	ldr	r3, [r7, #0]
     46c:	0018      	movs	r0, r3
     46e:	f7ff fefb 	bl	268 <nrf_gpio_pin_read>
     472:	1e03      	subs	r3, r0, #0
     474:	d005      	beq.n	482 <clear_bus+0x70>
     476:	230f      	movs	r3, #15
     478:	18fb      	adds	r3, r7, r3
     47a:	781b      	ldrb	r3, [r3, #0]
     47c:	2b00      	cmp	r3, #0
     47e:	d11a      	bne.n	4b6 <clear_bus+0xa4>
     480:	e021      	b.n	4c6 <clear_bus+0xb4>
     482:	687b      	ldr	r3, [r7, #4]
     484:	0018      	movs	r0, r3
     486:	f7ff fedd 	bl	244 <nrf_gpio_pin_clear>
     48a:	2004      	movs	r0, #4
     48c:	f000 fa8c 	bl	9a8 <timer_wait_us>
     490:	687b      	ldr	r3, [r7, #4]
     492:	0018      	movs	r0, r3
     494:	f7ff fec6 	bl	224 <nrf_gpio_pin_set>
     498:	2004      	movs	r0, #4
     49a:	f000 fa85 	bl	9a8 <timer_wait_us>
     49e:	210f      	movs	r1, #15
     4a0:	187b      	adds	r3, r7, r1
     4a2:	781a      	ldrb	r2, [r3, #0]
     4a4:	187b      	adds	r3, r7, r1
     4a6:	3201      	adds	r2, #1
     4a8:	701a      	strb	r2, [r3, #0]
     4aa:	230f      	movs	r3, #15
     4ac:	18fb      	adds	r3, r7, r3
     4ae:	781b      	ldrb	r3, [r3, #0]
     4b0:	2b08      	cmp	r3, #8
     4b2:	d9da      	bls.n	46a <clear_bus+0x58>
     4b4:	e000      	b.n	4b8 <clear_bus+0xa6>
     4b6:	46c0      	nop			; (mov r8, r8)
     4b8:	683b      	ldr	r3, [r7, #0]
     4ba:	0018      	movs	r0, r3
     4bc:	f7ff fec2 	bl	244 <nrf_gpio_pin_clear>
     4c0:	2004      	movs	r0, #4
     4c2:	f000 fa71 	bl	9a8 <timer_wait_us>
     4c6:	46bd      	mov	sp, r7
     4c8:	b005      	add	sp, #20
     4ca:	bd90      	pop	{r4, r7, pc}

000004cc <wait_event>:
     4cc:	b580      	push	{r7, lr}
     4ce:	b084      	sub	sp, #16
     4d0:	af00      	add	r7, sp, #0
     4d2:	0002      	movs	r2, r0
     4d4:	1dbb      	adds	r3, r7, #6
     4d6:	801a      	strh	r2, [r3, #0]
     4d8:	f000 fa58 	bl	98c <timer_get_time_ms>
     4dc:	0003      	movs	r3, r0
     4de:	60fb      	str	r3, [r7, #12]
     4e0:	e024      	b.n	52c <wait_event+0x60>
     4e2:	4a19      	ldr	r2, [pc, #100]	; (548 <wait_event+0x7c>)
     4e4:	1dbb      	adds	r3, r7, #6
     4e6:	881b      	ldrh	r3, [r3, #0]
     4e8:	0019      	movs	r1, r3
     4ea:	0010      	movs	r0, r2
     4ec:	f7ff fef0 	bl	2d0 <nrf_twi_event_check>
     4f0:	1e03      	subs	r3, r0, #0
     4f2:	d008      	beq.n	506 <wait_event+0x3a>
     4f4:	4a14      	ldr	r2, [pc, #80]	; (548 <wait_event+0x7c>)
     4f6:	1dbb      	adds	r3, r7, #6
     4f8:	881b      	ldrh	r3, [r3, #0]
     4fa:	0019      	movs	r1, r3
     4fc:	0010      	movs	r0, r2
     4fe:	f7ff fed6 	bl	2ae <nrf_twi_event_clear>
     502:	2300      	movs	r3, #0
     504:	e01c      	b.n	540 <wait_event+0x74>
     506:	4a10      	ldr	r2, [pc, #64]	; (548 <wait_event+0x7c>)
     508:	2392      	movs	r3, #146	; 0x92
     50a:	005b      	lsls	r3, r3, #1
     50c:	0019      	movs	r1, r3
     50e:	0010      	movs	r0, r2
     510:	f7ff fede 	bl	2d0 <nrf_twi_event_check>
     514:	1e03      	subs	r3, r0, #0
     516:	d009      	beq.n	52c <wait_event+0x60>
     518:	4a0b      	ldr	r2, [pc, #44]	; (548 <wait_event+0x7c>)
     51a:	2392      	movs	r3, #146	; 0x92
     51c:	005b      	lsls	r3, r3, #1
     51e:	0019      	movs	r1, r3
     520:	0010      	movs	r0, r2
     522:	f7ff fec4 	bl	2ae <nrf_twi_event_clear>
     526:	2301      	movs	r3, #1
     528:	425b      	negs	r3, r3
     52a:	e009      	b.n	540 <wait_event+0x74>
     52c:	f000 fa2e 	bl	98c <timer_get_time_ms>
     530:	0002      	movs	r2, r0
     532:	68fb      	ldr	r3, [r7, #12]
     534:	1ad3      	subs	r3, r2, r3
     536:	2264      	movs	r2, #100	; 0x64
     538:	4293      	cmp	r3, r2
     53a:	d3d2      	bcc.n	4e2 <wait_event+0x16>
     53c:	2301      	movs	r3, #1
     53e:	425b      	negs	r3, r3
     540:	0018      	movs	r0, r3
     542:	46bd      	mov	sp, r7
     544:	b004      	add	sp, #16
     546:	bd80      	pop	{r7, pc}
     548:	40003000 	.word	0x40003000

0000054c <i2c_init>:
     54c:	b580      	push	{r7, lr}
     54e:	b082      	sub	sp, #8
     550:	af02      	add	r7, sp, #8
     552:	f000 f9d3 	bl	8fc <timer_init>
     556:	2300      	movs	r3, #0
     558:	9301      	str	r3, [sp, #4]
     55a:	2306      	movs	r3, #6
     55c:	9300      	str	r3, [sp, #0]
     55e:	2303      	movs	r3, #3
     560:	2200      	movs	r2, #0
     562:	2100      	movs	r1, #0
     564:	2000      	movs	r0, #0
     566:	f7ff fe0b 	bl	180 <nrf_gpio_cfg>
     56a:	2300      	movs	r3, #0
     56c:	9301      	str	r3, [sp, #4]
     56e:	2306      	movs	r3, #6
     570:	9300      	str	r3, [sp, #0]
     572:	2303      	movs	r3, #3
     574:	2200      	movs	r2, #0
     576:	2100      	movs	r1, #0
     578:	201e      	movs	r0, #30
     57a:	f7ff fe01 	bl	180 <nrf_gpio_cfg>
     57e:	211e      	movs	r1, #30
     580:	2000      	movs	r0, #0
     582:	f7ff ff46 	bl	412 <clear_bus>
     586:	2100      	movs	r1, #0
     588:	2000      	movs	r0, #0
     58a:	f7ff fe29 	bl	1e0 <nrf_gpio_pin_dir_set>
     58e:	2100      	movs	r1, #0
     590:	201e      	movs	r0, #30
     592:	f7ff fe25 	bl	1e0 <nrf_gpio_pin_dir_set>
     596:	4a14      	ldr	r2, [pc, #80]	; (5e8 <i2c_init+0x9c>)
     598:	23cc      	movs	r3, #204	; 0xcc
     59a:	045b      	lsls	r3, r3, #17
     59c:	0019      	movs	r1, r3
     59e:	0010      	movs	r0, r2
     5a0:	f7ff fed2 	bl	348 <nrf_twi_frequency_set>
     5a4:	4b10      	ldr	r3, [pc, #64]	; (5e8 <i2c_init+0x9c>)
     5a6:	221e      	movs	r2, #30
     5a8:	2100      	movs	r1, #0
     5aa:	0018      	movs	r0, r3
     5ac:	f7ff feea 	bl	384 <nrf_twi_pins_set>
     5b0:	4a0d      	ldr	r2, [pc, #52]	; (5e8 <i2c_init+0x9c>)
     5b2:	2384      	movs	r3, #132	; 0x84
     5b4:	005b      	lsls	r3, r3, #1
     5b6:	0019      	movs	r1, r3
     5b8:	0010      	movs	r0, r2
     5ba:	f7ff fe78 	bl	2ae <nrf_twi_event_clear>
     5be:	4a0a      	ldr	r2, [pc, #40]	; (5e8 <i2c_init+0x9c>)
     5c0:	238e      	movs	r3, #142	; 0x8e
     5c2:	005b      	lsls	r3, r3, #1
     5c4:	0019      	movs	r1, r3
     5c6:	0010      	movs	r0, r2
     5c8:	f7ff fe71 	bl	2ae <nrf_twi_event_clear>
     5cc:	4a06      	ldr	r2, [pc, #24]	; (5e8 <i2c_init+0x9c>)
     5ce:	2392      	movs	r3, #146	; 0x92
     5d0:	005b      	lsls	r3, r3, #1
     5d2:	0019      	movs	r1, r3
     5d4:	0010      	movs	r0, r2
     5d6:	f7ff fe6a 	bl	2ae <nrf_twi_event_clear>
     5da:	4b03      	ldr	r3, [pc, #12]	; (5e8 <i2c_init+0x9c>)
     5dc:	0018      	movs	r0, r3
     5de:	f7ff fec3 	bl	368 <nrf_twi_enable>
     5e2:	46c0      	nop			; (mov r8, r8)
     5e4:	46bd      	mov	sp, r7
     5e6:	bd80      	pop	{r7, pc}
     5e8:	40003000 	.word	0x40003000

000005ec <i2c_write>:
     5ec:	b5b0      	push	{r4, r5, r7, lr}
     5ee:	b086      	sub	sp, #24
     5f0:	af00      	add	r7, sp, #0
     5f2:	60ba      	str	r2, [r7, #8]
     5f4:	607b      	str	r3, [r7, #4]
     5f6:	240f      	movs	r4, #15
     5f8:	193b      	adds	r3, r7, r4
     5fa:	1c02      	adds	r2, r0, #0
     5fc:	701a      	strb	r2, [r3, #0]
     5fe:	250e      	movs	r5, #14
     600:	197b      	adds	r3, r7, r5
     602:	1c0a      	adds	r2, r1, #0
     604:	701a      	strb	r2, [r3, #0]
     606:	2300      	movs	r3, #0
     608:	617b      	str	r3, [r7, #20]
     60a:	4a24      	ldr	r2, [pc, #144]	; (69c <i2c_write+0xb0>)
     60c:	193b      	adds	r3, r7, r4
     60e:	781b      	ldrb	r3, [r3, #0]
     610:	0019      	movs	r1, r3
     612:	0010      	movs	r0, r2
     614:	f7ff feec 	bl	3f0 <nrf_twi_address_set>
     618:	4a20      	ldr	r2, [pc, #128]	; (69c <i2c_write+0xb0>)
     61a:	197b      	adds	r3, r7, r5
     61c:	781b      	ldrb	r3, [r3, #0]
     61e:	0019      	movs	r1, r3
     620:	0010      	movs	r0, r2
     622:	f7ff fed3 	bl	3cc <nrf_twi_txd_set>
     626:	4b1d      	ldr	r3, [pc, #116]	; (69c <i2c_write+0xb0>)
     628:	2108      	movs	r1, #8
     62a:	0018      	movs	r0, r3
     62c:	f7ff fe2e 	bl	28c <nrf_twi_task_set>
     630:	238e      	movs	r3, #142	; 0x8e
     632:	005b      	lsls	r3, r3, #1
     634:	0018      	movs	r0, r3
     636:	f7ff ff49 	bl	4cc <wait_event>
     63a:	1e03      	subs	r3, r0, #0
     63c:	da02      	bge.n	644 <i2c_write+0x58>
     63e:	2301      	movs	r3, #1
     640:	425b      	negs	r3, r3
     642:	e026      	b.n	692 <i2c_write+0xa6>
     644:	2300      	movs	r3, #0
     646:	617b      	str	r3, [r7, #20]
     648:	e014      	b.n	674 <i2c_write+0x88>
     64a:	4814      	ldr	r0, [pc, #80]	; (69c <i2c_write+0xb0>)
     64c:	68ba      	ldr	r2, [r7, #8]
     64e:	697b      	ldr	r3, [r7, #20]
     650:	18d3      	adds	r3, r2, r3
     652:	781b      	ldrb	r3, [r3, #0]
     654:	0019      	movs	r1, r3
     656:	f7ff feb9 	bl	3cc <nrf_twi_txd_set>
     65a:	238e      	movs	r3, #142	; 0x8e
     65c:	005b      	lsls	r3, r3, #1
     65e:	0018      	movs	r0, r3
     660:	f7ff ff34 	bl	4cc <wait_event>
     664:	1e03      	subs	r3, r0, #0
     666:	da02      	bge.n	66e <i2c_write+0x82>
     668:	2301      	movs	r3, #1
     66a:	425b      	negs	r3, r3
     66c:	e011      	b.n	692 <i2c_write+0xa6>
     66e:	697b      	ldr	r3, [r7, #20]
     670:	3301      	adds	r3, #1
     672:	617b      	str	r3, [r7, #20]
     674:	697a      	ldr	r2, [r7, #20]
     676:	687b      	ldr	r3, [r7, #4]
     678:	429a      	cmp	r2, r3
     67a:	d3e6      	bcc.n	64a <i2c_write+0x5e>
     67c:	4b07      	ldr	r3, [pc, #28]	; (69c <i2c_write+0xb0>)
     67e:	2114      	movs	r1, #20
     680:	0018      	movs	r0, r3
     682:	f7ff fe03 	bl	28c <nrf_twi_task_set>
     686:	2382      	movs	r3, #130	; 0x82
     688:	005b      	lsls	r3, r3, #1
     68a:	0018      	movs	r0, r3
     68c:	f7ff ff1e 	bl	4cc <wait_event>
     690:	687b      	ldr	r3, [r7, #4]
     692:	0018      	movs	r0, r3
     694:	46bd      	mov	sp, r7
     696:	b006      	add	sp, #24
     698:	bdb0      	pop	{r4, r5, r7, pc}
     69a:	46c0      	nop			; (mov r8, r8)
     69c:	40003000 	.word	0x40003000

000006a0 <i2c_read>:
     6a0:	b5b0      	push	{r4, r5, r7, lr}
     6a2:	b086      	sub	sp, #24
     6a4:	af00      	add	r7, sp, #0
     6a6:	60ba      	str	r2, [r7, #8]
     6a8:	607b      	str	r3, [r7, #4]
     6aa:	240f      	movs	r4, #15
     6ac:	193b      	adds	r3, r7, r4
     6ae:	1c02      	adds	r2, r0, #0
     6b0:	701a      	strb	r2, [r3, #0]
     6b2:	250e      	movs	r5, #14
     6b4:	197b      	adds	r3, r7, r5
     6b6:	1c0a      	adds	r2, r1, #0
     6b8:	701a      	strb	r2, [r3, #0]
     6ba:	2300      	movs	r3, #0
     6bc:	617b      	str	r3, [r7, #20]
     6be:	4a3d      	ldr	r2, [pc, #244]	; (7b4 <i2c_read+0x114>)
     6c0:	193b      	adds	r3, r7, r4
     6c2:	781b      	ldrb	r3, [r3, #0]
     6c4:	0019      	movs	r1, r3
     6c6:	0010      	movs	r0, r2
     6c8:	f7ff fe92 	bl	3f0 <nrf_twi_address_set>
     6cc:	4a39      	ldr	r2, [pc, #228]	; (7b4 <i2c_read+0x114>)
     6ce:	197b      	adds	r3, r7, r5
     6d0:	781b      	ldrb	r3, [r3, #0]
     6d2:	0019      	movs	r1, r3
     6d4:	0010      	movs	r0, r2
     6d6:	f7ff fe79 	bl	3cc <nrf_twi_txd_set>
     6da:	4b36      	ldr	r3, [pc, #216]	; (7b4 <i2c_read+0x114>)
     6dc:	2108      	movs	r1, #8
     6de:	0018      	movs	r0, r3
     6e0:	f7ff fdd4 	bl	28c <nrf_twi_task_set>
     6e4:	238e      	movs	r3, #142	; 0x8e
     6e6:	005b      	lsls	r3, r3, #1
     6e8:	0018      	movs	r0, r3
     6ea:	f7ff feef 	bl	4cc <wait_event>
     6ee:	1e03      	subs	r3, r0, #0
     6f0:	da02      	bge.n	6f8 <i2c_read+0x58>
     6f2:	2301      	movs	r3, #1
     6f4:	425b      	negs	r3, r3
     6f6:	e058      	b.n	7aa <i2c_read+0x10a>
     6f8:	687b      	ldr	r3, [r7, #4]
     6fa:	2b01      	cmp	r3, #1
     6fc:	d90a      	bls.n	714 <i2c_read+0x74>
     6fe:	4b2d      	ldr	r3, [pc, #180]	; (7b4 <i2c_read+0x114>)
     700:	2102      	movs	r1, #2
     702:	0018      	movs	r0, r3
     704:	f7ff fe0b 	bl	31e <nrf_twi_shorts_clear>
     708:	4b2a      	ldr	r3, [pc, #168]	; (7b4 <i2c_read+0x114>)
     70a:	2101      	movs	r1, #1
     70c:	0018      	movs	r0, r3
     70e:	f7ff fdf2 	bl	2f6 <nrf_twi_shorts_set>
     712:	e009      	b.n	728 <i2c_read+0x88>
     714:	4b27      	ldr	r3, [pc, #156]	; (7b4 <i2c_read+0x114>)
     716:	2102      	movs	r1, #2
     718:	0018      	movs	r0, r3
     71a:	f7ff fdec 	bl	2f6 <nrf_twi_shorts_set>
     71e:	4b25      	ldr	r3, [pc, #148]	; (7b4 <i2c_read+0x114>)
     720:	2101      	movs	r1, #1
     722:	0018      	movs	r0, r3
     724:	f7ff fdfb 	bl	31e <nrf_twi_shorts_clear>
     728:	4b22      	ldr	r3, [pc, #136]	; (7b4 <i2c_read+0x114>)
     72a:	2100      	movs	r1, #0
     72c:	0018      	movs	r0, r3
     72e:	f7ff fdad 	bl	28c <nrf_twi_task_set>
     732:	2300      	movs	r3, #0
     734:	617b      	str	r3, [r7, #20]
     736:	e024      	b.n	782 <i2c_read+0xe2>
     738:	2384      	movs	r3, #132	; 0x84
     73a:	005b      	lsls	r3, r3, #1
     73c:	0018      	movs	r0, r3
     73e:	f7ff fec5 	bl	4cc <wait_event>
     742:	1e03      	subs	r3, r0, #0
     744:	da02      	bge.n	74c <i2c_read+0xac>
     746:	2301      	movs	r3, #1
     748:	425b      	negs	r3, r3
     74a:	e02e      	b.n	7aa <i2c_read+0x10a>
     74c:	4919      	ldr	r1, [pc, #100]	; (7b4 <i2c_read+0x114>)
     74e:	68ba      	ldr	r2, [r7, #8]
     750:	697b      	ldr	r3, [r7, #20]
     752:	18d4      	adds	r4, r2, r3
     754:	0008      	movs	r0, r1
     756:	f7ff fe2b 	bl	3b0 <nrf_twi_rxd_get>
     75a:	0003      	movs	r3, r0
     75c:	7023      	strb	r3, [r4, #0]
     75e:	697b      	ldr	r3, [r7, #20]
     760:	3302      	adds	r3, #2
     762:	687a      	ldr	r2, [r7, #4]
     764:	429a      	cmp	r2, r3
     766:	d104      	bne.n	772 <i2c_read+0xd2>
     768:	4b12      	ldr	r3, [pc, #72]	; (7b4 <i2c_read+0x114>)
     76a:	2102      	movs	r1, #2
     76c:	0018      	movs	r0, r3
     76e:	f7ff fdc2 	bl	2f6 <nrf_twi_shorts_set>
     772:	4b10      	ldr	r3, [pc, #64]	; (7b4 <i2c_read+0x114>)
     774:	2120      	movs	r1, #32
     776:	0018      	movs	r0, r3
     778:	f7ff fd88 	bl	28c <nrf_twi_task_set>
     77c:	697b      	ldr	r3, [r7, #20]
     77e:	3301      	adds	r3, #1
     780:	617b      	str	r3, [r7, #20]
     782:	697a      	ldr	r2, [r7, #20]
     784:	687b      	ldr	r3, [r7, #4]
     786:	429a      	cmp	r2, r3
     788:	d3d6      	bcc.n	738 <i2c_read+0x98>
     78a:	2382      	movs	r3, #130	; 0x82
     78c:	005b      	lsls	r3, r3, #1
     78e:	0018      	movs	r0, r3
     790:	f7ff fe9c 	bl	4cc <wait_event>
     794:	4b07      	ldr	r3, [pc, #28]	; (7b4 <i2c_read+0x114>)
     796:	2102      	movs	r1, #2
     798:	0018      	movs	r0, r3
     79a:	f7ff fdc0 	bl	31e <nrf_twi_shorts_clear>
     79e:	4b05      	ldr	r3, [pc, #20]	; (7b4 <i2c_read+0x114>)
     7a0:	2101      	movs	r1, #1
     7a2:	0018      	movs	r0, r3
     7a4:	f7ff fdbb 	bl	31e <nrf_twi_shorts_clear>
     7a8:	687b      	ldr	r3, [r7, #4]
     7aa:	0018      	movs	r0, r3
     7ac:	46bd      	mov	sp, r7
     7ae:	b006      	add	sp, #24
     7b0:	bdb0      	pop	{r4, r5, r7, pc}
     7b2:	46c0      	nop			; (mov r8, r8)
     7b4:	40003000 	.word	0x40003000

000007b8 <nrf_timer_task_trigger>:
     7b8:	b580      	push	{r7, lr}
     7ba:	b082      	sub	sp, #8
     7bc:	af00      	add	r7, sp, #0
     7be:	6078      	str	r0, [r7, #4]
     7c0:	000a      	movs	r2, r1
     7c2:	1cfb      	adds	r3, r7, #3
     7c4:	701a      	strb	r2, [r3, #0]
     7c6:	1cfb      	adds	r3, r7, #3
     7c8:	781b      	ldrb	r3, [r3, #0]
     7ca:	687a      	ldr	r2, [r7, #4]
     7cc:	18d3      	adds	r3, r2, r3
     7ce:	2201      	movs	r2, #1
     7d0:	601a      	str	r2, [r3, #0]
     7d2:	46c0      	nop			; (mov r8, r8)
     7d4:	46bd      	mov	sp, r7
     7d6:	b002      	add	sp, #8
     7d8:	bd80      	pop	{r7, pc}

000007da <nrf_timer_shorts_enable>:
     7da:	b580      	push	{r7, lr}
     7dc:	b082      	sub	sp, #8
     7de:	af00      	add	r7, sp, #0
     7e0:	6078      	str	r0, [r7, #4]
     7e2:	6039      	str	r1, [r7, #0]
     7e4:	687a      	ldr	r2, [r7, #4]
     7e6:	2380      	movs	r3, #128	; 0x80
     7e8:	009b      	lsls	r3, r3, #2
     7ea:	58d2      	ldr	r2, [r2, r3]
     7ec:	683b      	ldr	r3, [r7, #0]
     7ee:	431a      	orrs	r2, r3
     7f0:	0011      	movs	r1, r2
     7f2:	687a      	ldr	r2, [r7, #4]
     7f4:	2380      	movs	r3, #128	; 0x80
     7f6:	009b      	lsls	r3, r3, #2
     7f8:	50d1      	str	r1, [r2, r3]
     7fa:	46c0      	nop			; (mov r8, r8)
     7fc:	46bd      	mov	sp, r7
     7fe:	b002      	add	sp, #8
     800:	bd80      	pop	{r7, pc}
	...

00000804 <nrf_timer_mode_set>:
     804:	b580      	push	{r7, lr}
     806:	b082      	sub	sp, #8
     808:	af00      	add	r7, sp, #0
     80a:	6078      	str	r0, [r7, #4]
     80c:	000a      	movs	r2, r1
     80e:	1cfb      	adds	r3, r7, #3
     810:	701a      	strb	r2, [r3, #0]
     812:	687b      	ldr	r3, [r7, #4]
     814:	4a08      	ldr	r2, [pc, #32]	; (838 <nrf_timer_mode_set+0x34>)
     816:	589b      	ldr	r3, [r3, r2]
     818:	2201      	movs	r2, #1
     81a:	4393      	bics	r3, r2
     81c:	001a      	movs	r2, r3
     81e:	1cfb      	adds	r3, r7, #3
     820:	781b      	ldrb	r3, [r3, #0]
     822:	2101      	movs	r1, #1
     824:	400b      	ands	r3, r1
     826:	431a      	orrs	r2, r3
     828:	687b      	ldr	r3, [r7, #4]
     82a:	4903      	ldr	r1, [pc, #12]	; (838 <nrf_timer_mode_set+0x34>)
     82c:	505a      	str	r2, [r3, r1]
     82e:	46c0      	nop			; (mov r8, r8)
     830:	46bd      	mov	sp, r7
     832:	b002      	add	sp, #8
     834:	bd80      	pop	{r7, pc}
     836:	46c0      	nop			; (mov r8, r8)
     838:	00000504 	.word	0x00000504

0000083c <nrf_timer_bit_width_set>:
     83c:	b580      	push	{r7, lr}
     83e:	b082      	sub	sp, #8
     840:	af00      	add	r7, sp, #0
     842:	6078      	str	r0, [r7, #4]
     844:	000a      	movs	r2, r1
     846:	1cfb      	adds	r3, r7, #3
     848:	701a      	strb	r2, [r3, #0]
     84a:	687a      	ldr	r2, [r7, #4]
     84c:	23a1      	movs	r3, #161	; 0xa1
     84e:	00db      	lsls	r3, r3, #3
     850:	58d3      	ldr	r3, [r2, r3]
     852:	2203      	movs	r2, #3
     854:	4393      	bics	r3, r2
     856:	001a      	movs	r2, r3
     858:	1cfb      	adds	r3, r7, #3
     85a:	781b      	ldrb	r3, [r3, #0]
     85c:	2103      	movs	r1, #3
     85e:	400b      	ands	r3, r1
     860:	431a      	orrs	r2, r3
     862:	0011      	movs	r1, r2
     864:	687a      	ldr	r2, [r7, #4]
     866:	23a1      	movs	r3, #161	; 0xa1
     868:	00db      	lsls	r3, r3, #3
     86a:	50d1      	str	r1, [r2, r3]
     86c:	46c0      	nop			; (mov r8, r8)
     86e:	46bd      	mov	sp, r7
     870:	b002      	add	sp, #8
     872:	bd80      	pop	{r7, pc}

00000874 <nrf_timer_frequency_set>:
     874:	b580      	push	{r7, lr}
     876:	b082      	sub	sp, #8
     878:	af00      	add	r7, sp, #0
     87a:	6078      	str	r0, [r7, #4]
     87c:	000a      	movs	r2, r1
     87e:	1cfb      	adds	r3, r7, #3
     880:	701a      	strb	r2, [r3, #0]
     882:	687a      	ldr	r2, [r7, #4]
     884:	23a2      	movs	r3, #162	; 0xa2
     886:	00db      	lsls	r3, r3, #3
     888:	58d3      	ldr	r3, [r2, r3]
     88a:	220f      	movs	r2, #15
     88c:	4393      	bics	r3, r2
     88e:	001a      	movs	r2, r3
     890:	1cfb      	adds	r3, r7, #3
     892:	781b      	ldrb	r3, [r3, #0]
     894:	210f      	movs	r1, #15
     896:	400b      	ands	r3, r1
     898:	431a      	orrs	r2, r3
     89a:	0011      	movs	r1, r2
     89c:	687a      	ldr	r2, [r7, #4]
     89e:	23a2      	movs	r3, #162	; 0xa2
     8a0:	00db      	lsls	r3, r3, #3
     8a2:	50d1      	str	r1, [r2, r3]
     8a4:	46c0      	nop			; (mov r8, r8)
     8a6:	46bd      	mov	sp, r7
     8a8:	b002      	add	sp, #8
     8aa:	bd80      	pop	{r7, pc}

000008ac <nrf_timer_cc_read>:
     8ac:	b580      	push	{r7, lr}
     8ae:	b082      	sub	sp, #8
     8b0:	af00      	add	r7, sp, #0
     8b2:	6078      	str	r0, [r7, #4]
     8b4:	000a      	movs	r2, r1
     8b6:	1cfb      	adds	r3, r7, #3
     8b8:	701a      	strb	r2, [r3, #0]
     8ba:	1cfb      	adds	r3, r7, #3
     8bc:	781a      	ldrb	r2, [r3, #0]
     8be:	687b      	ldr	r3, [r7, #4]
     8c0:	3251      	adds	r2, #81	; 0x51
     8c2:	32ff      	adds	r2, #255	; 0xff
     8c4:	0092      	lsls	r2, r2, #2
     8c6:	58d3      	ldr	r3, [r2, r3]
     8c8:	0018      	movs	r0, r3
     8ca:	46bd      	mov	sp, r7
     8cc:	b002      	add	sp, #8
     8ce:	bd80      	pop	{r7, pc}

000008d0 <nrf_timer_cc_write>:
     8d0:	b580      	push	{r7, lr}
     8d2:	b084      	sub	sp, #16
     8d4:	af00      	add	r7, sp, #0
     8d6:	60f8      	str	r0, [r7, #12]
     8d8:	607a      	str	r2, [r7, #4]
     8da:	200b      	movs	r0, #11
     8dc:	183b      	adds	r3, r7, r0
     8de:	1c0a      	adds	r2, r1, #0
     8e0:	701a      	strb	r2, [r3, #0]
     8e2:	183b      	adds	r3, r7, r0
     8e4:	781a      	ldrb	r2, [r3, #0]
     8e6:	68fb      	ldr	r3, [r7, #12]
     8e8:	3251      	adds	r2, #81	; 0x51
     8ea:	32ff      	adds	r2, #255	; 0xff
     8ec:	0092      	lsls	r2, r2, #2
     8ee:	6879      	ldr	r1, [r7, #4]
     8f0:	50d1      	str	r1, [r2, r3]
     8f2:	46c0      	nop			; (mov r8, r8)
     8f4:	46bd      	mov	sp, r7
     8f6:	b004      	add	sp, #16
     8f8:	bd80      	pop	{r7, pc}
	...

000008fc <timer_init>:
     8fc:	b580      	push	{r7, lr}
     8fe:	af00      	add	r7, sp, #0
     900:	4b17      	ldr	r3, [pc, #92]	; (960 <timer_init+0x64>)
     902:	781b      	ldrb	r3, [r3, #0]
     904:	2b00      	cmp	r3, #0
     906:	d128      	bne.n	95a <timer_init+0x5e>
     908:	4b16      	ldr	r3, [pc, #88]	; (964 <timer_init+0x68>)
     90a:	2100      	movs	r1, #0
     90c:	0018      	movs	r0, r3
     90e:	f7ff ff79 	bl	804 <nrf_timer_mode_set>
     912:	4b14      	ldr	r3, [pc, #80]	; (964 <timer_init+0x68>)
     914:	2103      	movs	r1, #3
     916:	0018      	movs	r0, r3
     918:	f7ff ff90 	bl	83c <nrf_timer_bit_width_set>
     91c:	4b11      	ldr	r3, [pc, #68]	; (964 <timer_init+0x68>)
     91e:	2104      	movs	r1, #4
     920:	0018      	movs	r0, r3
     922:	f7ff ffa7 	bl	874 <nrf_timer_frequency_set>
     926:	480f      	ldr	r0, [pc, #60]	; (964 <timer_init+0x68>)
     928:	2301      	movs	r3, #1
     92a:	425b      	negs	r3, r3
     92c:	001a      	movs	r2, r3
     92e:	2101      	movs	r1, #1
     930:	f7ff ffce 	bl	8d0 <nrf_timer_cc_write>
     934:	4a0b      	ldr	r2, [pc, #44]	; (964 <timer_init+0x68>)
     936:	2380      	movs	r3, #128	; 0x80
     938:	009b      	lsls	r3, r3, #2
     93a:	2100      	movs	r1, #0
     93c:	50d1      	str	r1, [r2, r3]
     93e:	4b09      	ldr	r3, [pc, #36]	; (964 <timer_init+0x68>)
     940:	2102      	movs	r1, #2
     942:	0018      	movs	r0, r3
     944:	f7ff ff49 	bl	7da <nrf_timer_shorts_enable>
     948:	4b06      	ldr	r3, [pc, #24]	; (964 <timer_init+0x68>)
     94a:	2100      	movs	r1, #0
     94c:	0018      	movs	r0, r3
     94e:	f7ff ff33 	bl	7b8 <nrf_timer_task_trigger>
     952:	4b03      	ldr	r3, [pc, #12]	; (960 <timer_init+0x64>)
     954:	2201      	movs	r2, #1
     956:	701a      	strb	r2, [r3, #0]
     958:	e000      	b.n	95c <timer_init+0x60>
     95a:	46c0      	nop			; (mov r8, r8)
     95c:	46bd      	mov	sp, r7
     95e:	bd80      	pop	{r7, pc}
     960:	20000098 	.word	0x20000098
     964:	40008000 	.word	0x40008000

00000968 <timer_get_time_us>:
     968:	b580      	push	{r7, lr}
     96a:	af00      	add	r7, sp, #0
     96c:	4b06      	ldr	r3, [pc, #24]	; (988 <timer_get_time_us+0x20>)
     96e:	2140      	movs	r1, #64	; 0x40
     970:	0018      	movs	r0, r3
     972:	f7ff ff21 	bl	7b8 <nrf_timer_task_trigger>
     976:	4b04      	ldr	r3, [pc, #16]	; (988 <timer_get_time_us+0x20>)
     978:	2100      	movs	r1, #0
     97a:	0018      	movs	r0, r3
     97c:	f7ff ff96 	bl	8ac <nrf_timer_cc_read>
     980:	0003      	movs	r3, r0
     982:	0018      	movs	r0, r3
     984:	46bd      	mov	sp, r7
     986:	bd80      	pop	{r7, pc}
     988:	40008000 	.word	0x40008000

0000098c <timer_get_time_ms>:
     98c:	b580      	push	{r7, lr}
     98e:	af00      	add	r7, sp, #0
     990:	f7ff ffea 	bl	968 <timer_get_time_us>
     994:	0002      	movs	r2, r0
     996:	23fa      	movs	r3, #250	; 0xfa
     998:	0099      	lsls	r1, r3, #2
     99a:	0010      	movs	r0, r2
     99c:	f004 f878 	bl	4a90 <__udivsi3>
     9a0:	0003      	movs	r3, r0
     9a2:	0018      	movs	r0, r3
     9a4:	46bd      	mov	sp, r7
     9a6:	bd80      	pop	{r7, pc}

000009a8 <timer_wait_us>:
     9a8:	b580      	push	{r7, lr}
     9aa:	b084      	sub	sp, #16
     9ac:	af00      	add	r7, sp, #0
     9ae:	6078      	str	r0, [r7, #4]
     9b0:	f7ff ffda 	bl	968 <timer_get_time_us>
     9b4:	0003      	movs	r3, r0
     9b6:	60fb      	str	r3, [r7, #12]
     9b8:	46c0      	nop			; (mov r8, r8)
     9ba:	f7ff ffd5 	bl	968 <timer_get_time_us>
     9be:	0002      	movs	r2, r0
     9c0:	68fb      	ldr	r3, [r7, #12]
     9c2:	1ad3      	subs	r3, r2, r3
     9c4:	687a      	ldr	r2, [r7, #4]
     9c6:	429a      	cmp	r2, r3
     9c8:	d8f7      	bhi.n	9ba <timer_wait_us+0x12>
     9ca:	46c0      	nop			; (mov r8, r8)
     9cc:	46c0      	nop			; (mov r8, r8)
     9ce:	46bd      	mov	sp, r7
     9d0:	b004      	add	sp, #16
     9d2:	bd80      	pop	{r7, pc}

000009d4 <timer_wait_ms>:
     9d4:	b580      	push	{r7, lr}
     9d6:	b082      	sub	sp, #8
     9d8:	af00      	add	r7, sp, #0
     9da:	6078      	str	r0, [r7, #4]
     9dc:	687a      	ldr	r2, [r7, #4]
     9de:	0013      	movs	r3, r2
     9e0:	015b      	lsls	r3, r3, #5
     9e2:	1a9b      	subs	r3, r3, r2
     9e4:	009b      	lsls	r3, r3, #2
     9e6:	189b      	adds	r3, r3, r2
     9e8:	00db      	lsls	r3, r3, #3
     9ea:	0018      	movs	r0, r3
     9ec:	f7ff ffdc 	bl	9a8 <timer_wait_us>
     9f0:	46c0      	nop			; (mov r8, r8)
     9f2:	46bd      	mov	sp, r7
     9f4:	b002      	add	sp, #8
     9f6:	bd80      	pop	{r7, pc}

000009f8 <NVIC_EnableIRQ>:
     9f8:	b580      	push	{r7, lr}
     9fa:	b082      	sub	sp, #8
     9fc:	af00      	add	r7, sp, #0
     9fe:	0002      	movs	r2, r0
     a00:	1dfb      	adds	r3, r7, #7
     a02:	701a      	strb	r2, [r3, #0]
     a04:	1dfb      	adds	r3, r7, #7
     a06:	781b      	ldrb	r3, [r3, #0]
     a08:	001a      	movs	r2, r3
     a0a:	231f      	movs	r3, #31
     a0c:	4013      	ands	r3, r2
     a0e:	2201      	movs	r2, #1
     a10:	409a      	lsls	r2, r3
     a12:	4b03      	ldr	r3, [pc, #12]	; (a20 <NVIC_EnableIRQ+0x28>)
     a14:	601a      	str	r2, [r3, #0]
     a16:	46c0      	nop			; (mov r8, r8)
     a18:	46bd      	mov	sp, r7
     a1a:	b002      	add	sp, #8
     a1c:	bd80      	pop	{r7, pc}
     a1e:	46c0      	nop			; (mov r8, r8)
     a20:	e000e100 	.word	0xe000e100

00000a24 <NVIC_SetPriority>:
     a24:	b590      	push	{r4, r7, lr}
     a26:	b083      	sub	sp, #12
     a28:	af00      	add	r7, sp, #0
     a2a:	0002      	movs	r2, r0
     a2c:	6039      	str	r1, [r7, #0]
     a2e:	1dfb      	adds	r3, r7, #7
     a30:	701a      	strb	r2, [r3, #0]
     a32:	1dfb      	adds	r3, r7, #7
     a34:	781b      	ldrb	r3, [r3, #0]
     a36:	2b7f      	cmp	r3, #127	; 0x7f
     a38:	d932      	bls.n	aa0 <NVIC_SetPriority+0x7c>
     a3a:	4a2f      	ldr	r2, [pc, #188]	; (af8 <NVIC_SetPriority+0xd4>)
     a3c:	1dfb      	adds	r3, r7, #7
     a3e:	781b      	ldrb	r3, [r3, #0]
     a40:	0019      	movs	r1, r3
     a42:	230f      	movs	r3, #15
     a44:	400b      	ands	r3, r1
     a46:	3b08      	subs	r3, #8
     a48:	089b      	lsrs	r3, r3, #2
     a4a:	3306      	adds	r3, #6
     a4c:	009b      	lsls	r3, r3, #2
     a4e:	18d3      	adds	r3, r2, r3
     a50:	3304      	adds	r3, #4
     a52:	681b      	ldr	r3, [r3, #0]
     a54:	1dfa      	adds	r2, r7, #7
     a56:	7812      	ldrb	r2, [r2, #0]
     a58:	0011      	movs	r1, r2
     a5a:	2203      	movs	r2, #3
     a5c:	400a      	ands	r2, r1
     a5e:	00d2      	lsls	r2, r2, #3
     a60:	21ff      	movs	r1, #255	; 0xff
     a62:	4091      	lsls	r1, r2
     a64:	000a      	movs	r2, r1
     a66:	43d2      	mvns	r2, r2
     a68:	401a      	ands	r2, r3
     a6a:	0011      	movs	r1, r2
     a6c:	683b      	ldr	r3, [r7, #0]
     a6e:	019b      	lsls	r3, r3, #6
     a70:	22ff      	movs	r2, #255	; 0xff
     a72:	401a      	ands	r2, r3
     a74:	1dfb      	adds	r3, r7, #7
     a76:	781b      	ldrb	r3, [r3, #0]
     a78:	0018      	movs	r0, r3
     a7a:	2303      	movs	r3, #3
     a7c:	4003      	ands	r3, r0
     a7e:	00db      	lsls	r3, r3, #3
     a80:	409a      	lsls	r2, r3
     a82:	481d      	ldr	r0, [pc, #116]	; (af8 <NVIC_SetPriority+0xd4>)
     a84:	1dfb      	adds	r3, r7, #7
     a86:	781b      	ldrb	r3, [r3, #0]
     a88:	001c      	movs	r4, r3
     a8a:	230f      	movs	r3, #15
     a8c:	4023      	ands	r3, r4
     a8e:	3b08      	subs	r3, #8
     a90:	089b      	lsrs	r3, r3, #2
     a92:	430a      	orrs	r2, r1
     a94:	3306      	adds	r3, #6
     a96:	009b      	lsls	r3, r3, #2
     a98:	18c3      	adds	r3, r0, r3
     a9a:	3304      	adds	r3, #4
     a9c:	601a      	str	r2, [r3, #0]
     a9e:	e027      	b.n	af0 <NVIC_SetPriority+0xcc>
     aa0:	4a16      	ldr	r2, [pc, #88]	; (afc <NVIC_SetPriority+0xd8>)
     aa2:	1dfb      	adds	r3, r7, #7
     aa4:	781b      	ldrb	r3, [r3, #0]
     aa6:	b25b      	sxtb	r3, r3
     aa8:	089b      	lsrs	r3, r3, #2
     aaa:	33c0      	adds	r3, #192	; 0xc0
     aac:	009b      	lsls	r3, r3, #2
     aae:	589b      	ldr	r3, [r3, r2]
     ab0:	1dfa      	adds	r2, r7, #7
     ab2:	7812      	ldrb	r2, [r2, #0]
     ab4:	0011      	movs	r1, r2
     ab6:	2203      	movs	r2, #3
     ab8:	400a      	ands	r2, r1
     aba:	00d2      	lsls	r2, r2, #3
     abc:	21ff      	movs	r1, #255	; 0xff
     abe:	4091      	lsls	r1, r2
     ac0:	000a      	movs	r2, r1
     ac2:	43d2      	mvns	r2, r2
     ac4:	401a      	ands	r2, r3
     ac6:	0011      	movs	r1, r2
     ac8:	683b      	ldr	r3, [r7, #0]
     aca:	019b      	lsls	r3, r3, #6
     acc:	22ff      	movs	r2, #255	; 0xff
     ace:	401a      	ands	r2, r3
     ad0:	1dfb      	adds	r3, r7, #7
     ad2:	781b      	ldrb	r3, [r3, #0]
     ad4:	0018      	movs	r0, r3
     ad6:	2303      	movs	r3, #3
     ad8:	4003      	ands	r3, r0
     ada:	00db      	lsls	r3, r3, #3
     adc:	409a      	lsls	r2, r3
     ade:	4807      	ldr	r0, [pc, #28]	; (afc <NVIC_SetPriority+0xd8>)
     ae0:	1dfb      	adds	r3, r7, #7
     ae2:	781b      	ldrb	r3, [r3, #0]
     ae4:	b25b      	sxtb	r3, r3
     ae6:	089b      	lsrs	r3, r3, #2
     ae8:	430a      	orrs	r2, r1
     aea:	33c0      	adds	r3, #192	; 0xc0
     aec:	009b      	lsls	r3, r3, #2
     aee:	501a      	str	r2, [r3, r0]
     af0:	46c0      	nop			; (mov r8, r8)
     af2:	46bd      	mov	sp, r7
     af4:	b003      	add	sp, #12
     af6:	bd90      	pop	{r4, r7, pc}
     af8:	e000ed00 	.word	0xe000ed00
     afc:	e000e100 	.word	0xe000e100

00000b00 <nrf_gpio_cfg>:
     b00:	b590      	push	{r4, r7, lr}
     b02:	b083      	sub	sp, #12
     b04:	af00      	add	r7, sp, #0
     b06:	6078      	str	r0, [r7, #4]
     b08:	000c      	movs	r4, r1
     b0a:	0010      	movs	r0, r2
     b0c:	0019      	movs	r1, r3
     b0e:	1cfb      	adds	r3, r7, #3
     b10:	1c22      	adds	r2, r4, #0
     b12:	701a      	strb	r2, [r3, #0]
     b14:	1cbb      	adds	r3, r7, #2
     b16:	1c02      	adds	r2, r0, #0
     b18:	701a      	strb	r2, [r3, #0]
     b1a:	1c7b      	adds	r3, r7, #1
     b1c:	1c0a      	adds	r2, r1, #0
     b1e:	701a      	strb	r2, [r3, #0]
     b20:	1cfb      	adds	r3, r7, #3
     b22:	781a      	ldrb	r2, [r3, #0]
     b24:	1cbb      	adds	r3, r7, #2
     b26:	781b      	ldrb	r3, [r3, #0]
     b28:	005b      	lsls	r3, r3, #1
     b2a:	431a      	orrs	r2, r3
     b2c:	1c7b      	adds	r3, r7, #1
     b2e:	781b      	ldrb	r3, [r3, #0]
     b30:	009b      	lsls	r3, r3, #2
     b32:	431a      	orrs	r2, r3
     b34:	2318      	movs	r3, #24
     b36:	18fb      	adds	r3, r7, r3
     b38:	781b      	ldrb	r3, [r3, #0]
     b3a:	021b      	lsls	r3, r3, #8
     b3c:	431a      	orrs	r2, r3
     b3e:	0011      	movs	r1, r2
     b40:	231c      	movs	r3, #28
     b42:	18fb      	adds	r3, r7, r3
     b44:	781b      	ldrb	r3, [r3, #0]
     b46:	041a      	lsls	r2, r3, #16
     b48:	23a0      	movs	r3, #160	; 0xa0
     b4a:	05db      	lsls	r3, r3, #23
     b4c:	4311      	orrs	r1, r2
     b4e:	687a      	ldr	r2, [r7, #4]
     b50:	32c1      	adds	r2, #193	; 0xc1
     b52:	32ff      	adds	r2, #255	; 0xff
     b54:	0092      	lsls	r2, r2, #2
     b56:	50d1      	str	r1, [r2, r3]
     b58:	46c0      	nop			; (mov r8, r8)
     b5a:	46bd      	mov	sp, r7
     b5c:	b003      	add	sp, #12
     b5e:	bd90      	pop	{r4, r7, pc}

00000b60 <nrf_gpio_cfg_output>:
     b60:	b580      	push	{r7, lr}
     b62:	b084      	sub	sp, #16
     b64:	af02      	add	r7, sp, #8
     b66:	6078      	str	r0, [r7, #4]
     b68:	6878      	ldr	r0, [r7, #4]
     b6a:	2300      	movs	r3, #0
     b6c:	9301      	str	r3, [sp, #4]
     b6e:	2300      	movs	r3, #0
     b70:	9300      	str	r3, [sp, #0]
     b72:	2300      	movs	r3, #0
     b74:	2201      	movs	r2, #1
     b76:	2101      	movs	r1, #1
     b78:	f7ff ffc2 	bl	b00 <nrf_gpio_cfg>
     b7c:	46c0      	nop			; (mov r8, r8)
     b7e:	46bd      	mov	sp, r7
     b80:	b002      	add	sp, #8
     b82:	bd80      	pop	{r7, pc}

00000b84 <nrf_gpiote_task_addr_get>:
     b84:	b580      	push	{r7, lr}
     b86:	b082      	sub	sp, #8
     b88:	af00      	add	r7, sp, #0
     b8a:	0002      	movs	r2, r0
     b8c:	1dfb      	adds	r3, r7, #7
     b8e:	701a      	strb	r2, [r3, #0]
     b90:	1dfb      	adds	r3, r7, #7
     b92:	781b      	ldrb	r3, [r3, #0]
     b94:	4a03      	ldr	r2, [pc, #12]	; (ba4 <nrf_gpiote_task_addr_get+0x20>)
     b96:	4694      	mov	ip, r2
     b98:	4463      	add	r3, ip
     b9a:	0018      	movs	r0, r3
     b9c:	46bd      	mov	sp, r7
     b9e:	b002      	add	sp, #8
     ba0:	bd80      	pop	{r7, pc}
     ba2:	46c0      	nop			; (mov r8, r8)
     ba4:	40006000 	.word	0x40006000

00000ba8 <nrf_gpiote_task_enable>:
     ba8:	b580      	push	{r7, lr}
     baa:	b084      	sub	sp, #16
     bac:	af00      	add	r7, sp, #0
     bae:	6078      	str	r0, [r7, #4]
     bb0:	4a11      	ldr	r2, [pc, #68]	; (bf8 <nrf_gpiote_task_enable+0x50>)
     bb2:	687b      	ldr	r3, [r7, #4]
     bb4:	3345      	adds	r3, #69	; 0x45
     bb6:	33ff      	adds	r3, #255	; 0xff
     bb8:	009b      	lsls	r3, r3, #2
     bba:	589b      	ldr	r3, [r3, r2]
     bbc:	2203      	movs	r2, #3
     bbe:	4313      	orrs	r3, r2
     bc0:	60fb      	str	r3, [r7, #12]
     bc2:	490d      	ldr	r1, [pc, #52]	; (bf8 <nrf_gpiote_task_enable+0x50>)
     bc4:	68fb      	ldr	r3, [r7, #12]
     bc6:	22f8      	movs	r2, #248	; 0xf8
     bc8:	0152      	lsls	r2, r2, #5
     bca:	431a      	orrs	r2, r3
     bcc:	687b      	ldr	r3, [r7, #4]
     bce:	3345      	adds	r3, #69	; 0x45
     bd0:	33ff      	adds	r3, #255	; 0xff
     bd2:	009b      	lsls	r3, r3, #2
     bd4:	505a      	str	r2, [r3, r1]
     bd6:	46c0      	nop			; (mov r8, r8)
     bd8:	46c0      	nop			; (mov r8, r8)
     bda:	46c0      	nop			; (mov r8, r8)
     bdc:	46c0      	nop			; (mov r8, r8)
     bde:	46c0      	nop			; (mov r8, r8)
     be0:	46c0      	nop			; (mov r8, r8)
     be2:	4905      	ldr	r1, [pc, #20]	; (bf8 <nrf_gpiote_task_enable+0x50>)
     be4:	687b      	ldr	r3, [r7, #4]
     be6:	3345      	adds	r3, #69	; 0x45
     be8:	33ff      	adds	r3, #255	; 0xff
     bea:	009b      	lsls	r3, r3, #2
     bec:	68fa      	ldr	r2, [r7, #12]
     bee:	505a      	str	r2, [r3, r1]
     bf0:	46c0      	nop			; (mov r8, r8)
     bf2:	46bd      	mov	sp, r7
     bf4:	b004      	add	sp, #16
     bf6:	bd80      	pop	{r7, pc}
     bf8:	40006000 	.word	0x40006000

00000bfc <nrf_gpiote_task_configure>:
     bfc:	b580      	push	{r7, lr}
     bfe:	b084      	sub	sp, #16
     c00:	af00      	add	r7, sp, #0
     c02:	60f8      	str	r0, [r7, #12]
     c04:	60b9      	str	r1, [r7, #8]
     c06:	0019      	movs	r1, r3
     c08:	1dfb      	adds	r3, r7, #7
     c0a:	701a      	strb	r2, [r3, #0]
     c0c:	1dbb      	adds	r3, r7, #6
     c0e:	1c0a      	adds	r2, r1, #0
     c10:	701a      	strb	r2, [r3, #0]
     c12:	4a1a      	ldr	r2, [pc, #104]	; (c7c <nrf_gpiote_task_configure+0x80>)
     c14:	68fb      	ldr	r3, [r7, #12]
     c16:	3345      	adds	r3, #69	; 0x45
     c18:	33ff      	adds	r3, #255	; 0xff
     c1a:	009b      	lsls	r3, r3, #2
     c1c:	589b      	ldr	r3, [r3, r2]
     c1e:	4917      	ldr	r1, [pc, #92]	; (c7c <nrf_gpiote_task_configure+0x80>)
     c20:	4a17      	ldr	r2, [pc, #92]	; (c80 <nrf_gpiote_task_configure+0x84>)
     c22:	401a      	ands	r2, r3
     c24:	68fb      	ldr	r3, [r7, #12]
     c26:	3345      	adds	r3, #69	; 0x45
     c28:	33ff      	adds	r3, #255	; 0xff
     c2a:	009b      	lsls	r3, r3, #2
     c2c:	505a      	str	r2, [r3, r1]
     c2e:	4a13      	ldr	r2, [pc, #76]	; (c7c <nrf_gpiote_task_configure+0x80>)
     c30:	68fb      	ldr	r3, [r7, #12]
     c32:	3345      	adds	r3, #69	; 0x45
     c34:	33ff      	adds	r3, #255	; 0xff
     c36:	009b      	lsls	r3, r3, #2
     c38:	589a      	ldr	r2, [r3, r2]
     c3a:	68bb      	ldr	r3, [r7, #8]
     c3c:	0219      	lsls	r1, r3, #8
     c3e:	23f8      	movs	r3, #248	; 0xf8
     c40:	015b      	lsls	r3, r3, #5
     c42:	4019      	ands	r1, r3
     c44:	1dfb      	adds	r3, r7, #7
     c46:	781b      	ldrb	r3, [r3, #0]
     c48:	041b      	lsls	r3, r3, #16
     c4a:	0018      	movs	r0, r3
     c4c:	23c0      	movs	r3, #192	; 0xc0
     c4e:	029b      	lsls	r3, r3, #10
     c50:	4003      	ands	r3, r0
     c52:	4319      	orrs	r1, r3
     c54:	1dbb      	adds	r3, r7, #6
     c56:	781b      	ldrb	r3, [r3, #0]
     c58:	051b      	lsls	r3, r3, #20
     c5a:	0018      	movs	r0, r3
     c5c:	2380      	movs	r3, #128	; 0x80
     c5e:	035b      	lsls	r3, r3, #13
     c60:	4003      	ands	r3, r0
     c62:	430b      	orrs	r3, r1
     c64:	4905      	ldr	r1, [pc, #20]	; (c7c <nrf_gpiote_task_configure+0x80>)
     c66:	431a      	orrs	r2, r3
     c68:	68fb      	ldr	r3, [r7, #12]
     c6a:	3345      	adds	r3, #69	; 0x45
     c6c:	33ff      	adds	r3, #255	; 0xff
     c6e:	009b      	lsls	r3, r3, #2
     c70:	505a      	str	r2, [r3, r1]
     c72:	46c0      	nop			; (mov r8, r8)
     c74:	46bd      	mov	sp, r7
     c76:	b004      	add	sp, #16
     c78:	bd80      	pop	{r7, pc}
     c7a:	46c0      	nop			; (mov r8, r8)
     c7c:	40006000 	.word	0x40006000
     c80:	ffece0ff 	.word	0xffece0ff

00000c84 <nrf_ppi_channel_enable>:
     c84:	b580      	push	{r7, lr}
     c86:	b082      	sub	sp, #8
     c88:	af00      	add	r7, sp, #0
     c8a:	0002      	movs	r2, r0
     c8c:	1dfb      	adds	r3, r7, #7
     c8e:	701a      	strb	r2, [r3, #0]
     c90:	1dfb      	adds	r3, r7, #7
     c92:	781b      	ldrb	r3, [r3, #0]
     c94:	4904      	ldr	r1, [pc, #16]	; (ca8 <nrf_ppi_channel_enable+0x24>)
     c96:	2201      	movs	r2, #1
     c98:	409a      	lsls	r2, r3
     c9a:	0013      	movs	r3, r2
     c9c:	4a03      	ldr	r2, [pc, #12]	; (cac <nrf_ppi_channel_enable+0x28>)
     c9e:	508b      	str	r3, [r1, r2]
     ca0:	46c0      	nop			; (mov r8, r8)
     ca2:	46bd      	mov	sp, r7
     ca4:	b002      	add	sp, #8
     ca6:	bd80      	pop	{r7, pc}
     ca8:	4001f000 	.word	0x4001f000
     cac:	00000504 	.word	0x00000504

00000cb0 <nrf_ppi_channel_endpoint_setup>:
     cb0:	b590      	push	{r4, r7, lr}
     cb2:	b085      	sub	sp, #20
     cb4:	af00      	add	r7, sp, #0
     cb6:	60b9      	str	r1, [r7, #8]
     cb8:	607a      	str	r2, [r7, #4]
     cba:	240f      	movs	r4, #15
     cbc:	193b      	adds	r3, r7, r4
     cbe:	1c02      	adds	r2, r0, #0
     cc0:	701a      	strb	r2, [r3, #0]
     cc2:	490a      	ldr	r1, [pc, #40]	; (cec <nrf_ppi_channel_endpoint_setup+0x3c>)
     cc4:	0020      	movs	r0, r4
     cc6:	183b      	adds	r3, r7, r0
     cc8:	781b      	ldrb	r3, [r3, #0]
     cca:	33a2      	adds	r3, #162	; 0xa2
     ccc:	00db      	lsls	r3, r3, #3
     cce:	68ba      	ldr	r2, [r7, #8]
     cd0:	505a      	str	r2, [r3, r1]
     cd2:	4a06      	ldr	r2, [pc, #24]	; (cec <nrf_ppi_channel_endpoint_setup+0x3c>)
     cd4:	183b      	adds	r3, r7, r0
     cd6:	781b      	ldrb	r3, [r3, #0]
     cd8:	33a2      	adds	r3, #162	; 0xa2
     cda:	00db      	lsls	r3, r3, #3
     cdc:	18d3      	adds	r3, r2, r3
     cde:	3304      	adds	r3, #4
     ce0:	687a      	ldr	r2, [r7, #4]
     ce2:	601a      	str	r2, [r3, #0]
     ce4:	46c0      	nop			; (mov r8, r8)
     ce6:	46bd      	mov	sp, r7
     ce8:	b005      	add	sp, #20
     cea:	bd90      	pop	{r4, r7, pc}
     cec:	4001f000 	.word	0x4001f000

00000cf0 <nrf_timer_task_trigger>:
     cf0:	b580      	push	{r7, lr}
     cf2:	b082      	sub	sp, #8
     cf4:	af00      	add	r7, sp, #0
     cf6:	6078      	str	r0, [r7, #4]
     cf8:	000a      	movs	r2, r1
     cfa:	1cfb      	adds	r3, r7, #3
     cfc:	701a      	strb	r2, [r3, #0]
     cfe:	1cfb      	adds	r3, r7, #3
     d00:	781b      	ldrb	r3, [r3, #0]
     d02:	687a      	ldr	r2, [r7, #4]
     d04:	18d3      	adds	r3, r2, r3
     d06:	2201      	movs	r2, #1
     d08:	601a      	str	r2, [r3, #0]
     d0a:	46c0      	nop			; (mov r8, r8)
     d0c:	46bd      	mov	sp, r7
     d0e:	b002      	add	sp, #8
     d10:	bd80      	pop	{r7, pc}

00000d12 <nrf_timer_event_clear>:
     d12:	b580      	push	{r7, lr}
     d14:	b082      	sub	sp, #8
     d16:	af00      	add	r7, sp, #0
     d18:	6078      	str	r0, [r7, #4]
     d1a:	000a      	movs	r2, r1
     d1c:	1cbb      	adds	r3, r7, #2
     d1e:	801a      	strh	r2, [r3, #0]
     d20:	1cbb      	adds	r3, r7, #2
     d22:	881b      	ldrh	r3, [r3, #0]
     d24:	687a      	ldr	r2, [r7, #4]
     d26:	18d3      	adds	r3, r2, r3
     d28:	2200      	movs	r2, #0
     d2a:	601a      	str	r2, [r3, #0]
     d2c:	46c0      	nop			; (mov r8, r8)
     d2e:	46bd      	mov	sp, r7
     d30:	b002      	add	sp, #8
     d32:	bd80      	pop	{r7, pc}

00000d34 <nrf_timer_event_address_get>:
     d34:	b580      	push	{r7, lr}
     d36:	b082      	sub	sp, #8
     d38:	af00      	add	r7, sp, #0
     d3a:	6078      	str	r0, [r7, #4]
     d3c:	000a      	movs	r2, r1
     d3e:	1cbb      	adds	r3, r7, #2
     d40:	801a      	strh	r2, [r3, #0]
     d42:	1cbb      	adds	r3, r7, #2
     d44:	881b      	ldrh	r3, [r3, #0]
     d46:	687a      	ldr	r2, [r7, #4]
     d48:	18d3      	adds	r3, r2, r3
     d4a:	0018      	movs	r0, r3
     d4c:	46bd      	mov	sp, r7
     d4e:	b002      	add	sp, #8
     d50:	bd80      	pop	{r7, pc}

00000d52 <nrf_timer_shorts_enable>:
     d52:	b580      	push	{r7, lr}
     d54:	b082      	sub	sp, #8
     d56:	af00      	add	r7, sp, #0
     d58:	6078      	str	r0, [r7, #4]
     d5a:	6039      	str	r1, [r7, #0]
     d5c:	687a      	ldr	r2, [r7, #4]
     d5e:	2380      	movs	r3, #128	; 0x80
     d60:	009b      	lsls	r3, r3, #2
     d62:	58d2      	ldr	r2, [r2, r3]
     d64:	683b      	ldr	r3, [r7, #0]
     d66:	431a      	orrs	r2, r3
     d68:	0011      	movs	r1, r2
     d6a:	687a      	ldr	r2, [r7, #4]
     d6c:	2380      	movs	r3, #128	; 0x80
     d6e:	009b      	lsls	r3, r3, #2
     d70:	50d1      	str	r1, [r2, r3]
     d72:	46c0      	nop			; (mov r8, r8)
     d74:	46bd      	mov	sp, r7
     d76:	b002      	add	sp, #8
     d78:	bd80      	pop	{r7, pc}
	...

00000d7c <nrf_timer_mode_set>:
     d7c:	b580      	push	{r7, lr}
     d7e:	b082      	sub	sp, #8
     d80:	af00      	add	r7, sp, #0
     d82:	6078      	str	r0, [r7, #4]
     d84:	000a      	movs	r2, r1
     d86:	1cfb      	adds	r3, r7, #3
     d88:	701a      	strb	r2, [r3, #0]
     d8a:	687b      	ldr	r3, [r7, #4]
     d8c:	4a08      	ldr	r2, [pc, #32]	; (db0 <nrf_timer_mode_set+0x34>)
     d8e:	589b      	ldr	r3, [r3, r2]
     d90:	2201      	movs	r2, #1
     d92:	4393      	bics	r3, r2
     d94:	001a      	movs	r2, r3
     d96:	1cfb      	adds	r3, r7, #3
     d98:	781b      	ldrb	r3, [r3, #0]
     d9a:	2101      	movs	r1, #1
     d9c:	400b      	ands	r3, r1
     d9e:	431a      	orrs	r2, r3
     da0:	687b      	ldr	r3, [r7, #4]
     da2:	4903      	ldr	r1, [pc, #12]	; (db0 <nrf_timer_mode_set+0x34>)
     da4:	505a      	str	r2, [r3, r1]
     da6:	46c0      	nop			; (mov r8, r8)
     da8:	46bd      	mov	sp, r7
     daa:	b002      	add	sp, #8
     dac:	bd80      	pop	{r7, pc}
     dae:	46c0      	nop			; (mov r8, r8)
     db0:	00000504 	.word	0x00000504

00000db4 <nrf_timer_bit_width_set>:
     db4:	b580      	push	{r7, lr}
     db6:	b082      	sub	sp, #8
     db8:	af00      	add	r7, sp, #0
     dba:	6078      	str	r0, [r7, #4]
     dbc:	000a      	movs	r2, r1
     dbe:	1cfb      	adds	r3, r7, #3
     dc0:	701a      	strb	r2, [r3, #0]
     dc2:	687a      	ldr	r2, [r7, #4]
     dc4:	23a1      	movs	r3, #161	; 0xa1
     dc6:	00db      	lsls	r3, r3, #3
     dc8:	58d3      	ldr	r3, [r2, r3]
     dca:	2203      	movs	r2, #3
     dcc:	4393      	bics	r3, r2
     dce:	001a      	movs	r2, r3
     dd0:	1cfb      	adds	r3, r7, #3
     dd2:	781b      	ldrb	r3, [r3, #0]
     dd4:	2103      	movs	r1, #3
     dd6:	400b      	ands	r3, r1
     dd8:	431a      	orrs	r2, r3
     dda:	0011      	movs	r1, r2
     ddc:	687a      	ldr	r2, [r7, #4]
     dde:	23a1      	movs	r3, #161	; 0xa1
     de0:	00db      	lsls	r3, r3, #3
     de2:	50d1      	str	r1, [r2, r3]
     de4:	46c0      	nop			; (mov r8, r8)
     de6:	46bd      	mov	sp, r7
     de8:	b002      	add	sp, #8
     dea:	bd80      	pop	{r7, pc}

00000dec <nrf_timer_frequency_set>:
     dec:	b580      	push	{r7, lr}
     dee:	b082      	sub	sp, #8
     df0:	af00      	add	r7, sp, #0
     df2:	6078      	str	r0, [r7, #4]
     df4:	000a      	movs	r2, r1
     df6:	1cfb      	adds	r3, r7, #3
     df8:	701a      	strb	r2, [r3, #0]
     dfa:	687a      	ldr	r2, [r7, #4]
     dfc:	23a2      	movs	r3, #162	; 0xa2
     dfe:	00db      	lsls	r3, r3, #3
     e00:	58d3      	ldr	r3, [r2, r3]
     e02:	220f      	movs	r2, #15
     e04:	4393      	bics	r3, r2
     e06:	001a      	movs	r2, r3
     e08:	1cfb      	adds	r3, r7, #3
     e0a:	781b      	ldrb	r3, [r3, #0]
     e0c:	210f      	movs	r1, #15
     e0e:	400b      	ands	r3, r1
     e10:	431a      	orrs	r2, r3
     e12:	0011      	movs	r1, r2
     e14:	687a      	ldr	r2, [r7, #4]
     e16:	23a2      	movs	r3, #162	; 0xa2
     e18:	00db      	lsls	r3, r3, #3
     e1a:	50d1      	str	r1, [r2, r3]
     e1c:	46c0      	nop			; (mov r8, r8)
     e1e:	46bd      	mov	sp, r7
     e20:	b002      	add	sp, #8
     e22:	bd80      	pop	{r7, pc}

00000e24 <nrf_timer_cc_write>:
     e24:	b580      	push	{r7, lr}
     e26:	b084      	sub	sp, #16
     e28:	af00      	add	r7, sp, #0
     e2a:	60f8      	str	r0, [r7, #12]
     e2c:	607a      	str	r2, [r7, #4]
     e2e:	200b      	movs	r0, #11
     e30:	183b      	adds	r3, r7, r0
     e32:	1c0a      	adds	r2, r1, #0
     e34:	701a      	strb	r2, [r3, #0]
     e36:	183b      	adds	r3, r7, r0
     e38:	781a      	ldrb	r2, [r3, #0]
     e3a:	68fb      	ldr	r3, [r7, #12]
     e3c:	3251      	adds	r2, #81	; 0x51
     e3e:	32ff      	adds	r2, #255	; 0xff
     e40:	0092      	lsls	r2, r2, #2
     e42:	6879      	ldr	r1, [r7, #4]
     e44:	50d1      	str	r1, [r2, r3]
     e46:	46c0      	nop			; (mov r8, r8)
     e48:	46bd      	mov	sp, r7
     e4a:	b004      	add	sp, #16
     e4c:	bd80      	pop	{r7, pc}

00000e4e <nrf_timer_int_enable>:
     e4e:	b580      	push	{r7, lr}
     e50:	b082      	sub	sp, #8
     e52:	af00      	add	r7, sp, #0
     e54:	6078      	str	r0, [r7, #4]
     e56:	6039      	str	r1, [r7, #0]
     e58:	687a      	ldr	r2, [r7, #4]
     e5a:	23c1      	movs	r3, #193	; 0xc1
     e5c:	009b      	lsls	r3, r3, #2
     e5e:	6839      	ldr	r1, [r7, #0]
     e60:	50d1      	str	r1, [r2, r3]
     e62:	46c0      	nop			; (mov r8, r8)
     e64:	46bd      	mov	sp, r7
     e66:	b002      	add	sp, #8
     e68:	bd80      	pop	{r7, pc}
	...

00000e6c <TIMER2_IRQHandler>:
     e6c:	b580      	push	{r7, lr}
     e6e:	af00      	add	r7, sp, #0
     e70:	4a10      	ldr	r2, [pc, #64]	; (eb4 <TIMER2_IRQHandler+0x48>)
     e72:	23a6      	movs	r3, #166	; 0xa6
     e74:	005b      	lsls	r3, r3, #1
     e76:	2100      	movs	r1, #0
     e78:	50d1      	str	r1, [r2, r3]
     e7a:	490e      	ldr	r1, [pc, #56]	; (eb4 <TIMER2_IRQHandler+0x48>)
     e7c:	4b0e      	ldr	r3, [pc, #56]	; (eb8 <TIMER2_IRQHandler+0x4c>)
     e7e:	681a      	ldr	r2, [r3, #0]
     e80:	23a8      	movs	r3, #168	; 0xa8
     e82:	00db      	lsls	r3, r3, #3
     e84:	50ca      	str	r2, [r1, r3]
     e86:	490b      	ldr	r1, [pc, #44]	; (eb4 <TIMER2_IRQHandler+0x48>)
     e88:	4b0b      	ldr	r3, [pc, #44]	; (eb8 <TIMER2_IRQHandler+0x4c>)
     e8a:	685b      	ldr	r3, [r3, #4]
     e8c:	4a0b      	ldr	r2, [pc, #44]	; (ebc <TIMER2_IRQHandler+0x50>)
     e8e:	508b      	str	r3, [r1, r2]
     e90:	4908      	ldr	r1, [pc, #32]	; (eb4 <TIMER2_IRQHandler+0x48>)
     e92:	4b09      	ldr	r3, [pc, #36]	; (eb8 <TIMER2_IRQHandler+0x4c>)
     e94:	689a      	ldr	r2, [r3, #8]
     e96:	23a9      	movs	r3, #169	; 0xa9
     e98:	00db      	lsls	r3, r3, #3
     e9a:	50ca      	str	r2, [r1, r3]
     e9c:	4905      	ldr	r1, [pc, #20]	; (eb4 <TIMER2_IRQHandler+0x48>)
     e9e:	4b08      	ldr	r3, [pc, #32]	; (ec0 <TIMER2_IRQHandler+0x54>)
     ea0:	681b      	ldr	r3, [r3, #0]
     ea2:	4a08      	ldr	r2, [pc, #32]	; (ec4 <TIMER2_IRQHandler+0x58>)
     ea4:	508b      	str	r3, [r1, r2]
     ea6:	4b03      	ldr	r3, [pc, #12]	; (eb4 <TIMER2_IRQHandler+0x48>)
     ea8:	2201      	movs	r2, #1
     eaa:	601a      	str	r2, [r3, #0]
     eac:	46c0      	nop			; (mov r8, r8)
     eae:	46bd      	mov	sp, r7
     eb0:	bd80      	pop	{r7, pc}
     eb2:	46c0      	nop			; (mov r8, r8)
     eb4:	4000a000 	.word	0x4000a000
     eb8:	200000a0 	.word	0x200000a0
     ebc:	00000544 	.word	0x00000544
     ec0:	2000009c 	.word	0x2000009c
     ec4:	0000054c 	.word	0x0000054c

00000ec8 <pwm_init>:
     ec8:	b580      	push	{r7, lr}
     eca:	b082      	sub	sp, #8
     ecc:	af00      	add	r7, sp, #0
     ece:	0002      	movs	r2, r0
     ed0:	1dbb      	adds	r3, r7, #6
     ed2:	801a      	strh	r2, [r3, #0]
     ed4:	4b46      	ldr	r3, [pc, #280]	; (ff0 <pwm_init+0x128>)
     ed6:	2104      	movs	r1, #4
     ed8:	0018      	movs	r0, r3
     eda:	f7ff ff09 	bl	cf0 <nrf_timer_task_trigger>
     ede:	2380      	movs	r3, #128	; 0x80
     ee0:	05db      	lsls	r3, r3, #23
     ee2:	2201      	movs	r2, #1
     ee4:	679a      	str	r2, [r3, #120]	; 0x78
     ee6:	4b43      	ldr	r3, [pc, #268]	; (ff4 <pwm_init+0x12c>)
     ee8:	2200      	movs	r2, #0
     eea:	601a      	str	r2, [r3, #0]
     eec:	2301      	movs	r3, #1
     eee:	4a42      	ldr	r2, [pc, #264]	; (ff8 <pwm_init+0x130>)
     ef0:	6093      	str	r3, [r2, #8]
     ef2:	4a41      	ldr	r2, [pc, #260]	; (ff8 <pwm_init+0x130>)
     ef4:	6053      	str	r3, [r2, #4]
     ef6:	4a40      	ldr	r2, [pc, #256]	; (ff8 <pwm_init+0x130>)
     ef8:	6013      	str	r3, [r2, #0]
     efa:	1dbb      	adds	r3, r7, #6
     efc:	881a      	ldrh	r2, [r3, #0]
     efe:	4b3f      	ldr	r3, [pc, #252]	; (ffc <pwm_init+0x134>)
     f00:	601a      	str	r2, [r3, #0]
     f02:	4b3b      	ldr	r3, [pc, #236]	; (ff0 <pwm_init+0x128>)
     f04:	2100      	movs	r1, #0
     f06:	0018      	movs	r0, r3
     f08:	f7ff ff38 	bl	d7c <nrf_timer_mode_set>
     f0c:	4b38      	ldr	r3, [pc, #224]	; (ff0 <pwm_init+0x128>)
     f0e:	2100      	movs	r1, #0
     f10:	0018      	movs	r0, r3
     f12:	f7ff ff4f 	bl	db4 <nrf_timer_bit_width_set>
     f16:	4b36      	ldr	r3, [pc, #216]	; (ff0 <pwm_init+0x128>)
     f18:	2104      	movs	r1, #4
     f1a:	0018      	movs	r0, r3
     f1c:	f7ff ff66 	bl	dec <nrf_timer_frequency_set>
     f20:	4833      	ldr	r0, [pc, #204]	; (ff0 <pwm_init+0x128>)
     f22:	4b35      	ldr	r3, [pc, #212]	; (ff8 <pwm_init+0x130>)
     f24:	681b      	ldr	r3, [r3, #0]
     f26:	001a      	movs	r2, r3
     f28:	2100      	movs	r1, #0
     f2a:	f7ff ff7b 	bl	e24 <nrf_timer_cc_write>
     f2e:	4830      	ldr	r0, [pc, #192]	; (ff0 <pwm_init+0x128>)
     f30:	4b31      	ldr	r3, [pc, #196]	; (ff8 <pwm_init+0x130>)
     f32:	685b      	ldr	r3, [r3, #4]
     f34:	001a      	movs	r2, r3
     f36:	2101      	movs	r1, #1
     f38:	f7ff ff74 	bl	e24 <nrf_timer_cc_write>
     f3c:	482c      	ldr	r0, [pc, #176]	; (ff0 <pwm_init+0x128>)
     f3e:	4b2e      	ldr	r3, [pc, #184]	; (ff8 <pwm_init+0x130>)
     f40:	689b      	ldr	r3, [r3, #8]
     f42:	001a      	movs	r2, r3
     f44:	2102      	movs	r1, #2
     f46:	f7ff ff6d 	bl	e24 <nrf_timer_cc_write>
     f4a:	4829      	ldr	r0, [pc, #164]	; (ff0 <pwm_init+0x128>)
     f4c:	1dbb      	adds	r3, r7, #6
     f4e:	881b      	ldrh	r3, [r3, #0]
     f50:	001a      	movs	r2, r3
     f52:	2103      	movs	r1, #3
     f54:	f7ff ff66 	bl	e24 <nrf_timer_cc_write>
     f58:	4a25      	ldr	r2, [pc, #148]	; (ff0 <pwm_init+0x128>)
     f5a:	2380      	movs	r3, #128	; 0x80
     f5c:	009b      	lsls	r3, r3, #2
     f5e:	2100      	movs	r1, #0
     f60:	50d1      	str	r1, [r2, r3]
     f62:	4b23      	ldr	r3, [pc, #140]	; (ff0 <pwm_init+0x128>)
     f64:	2108      	movs	r1, #8
     f66:	0018      	movs	r0, r3
     f68:	f7ff fef3 	bl	d52 <nrf_timer_shorts_enable>
     f6c:	4a20      	ldr	r2, [pc, #128]	; (ff0 <pwm_init+0x128>)
     f6e:	2380      	movs	r3, #128	; 0x80
     f70:	011b      	lsls	r3, r3, #4
     f72:	0019      	movs	r1, r3
     f74:	0010      	movs	r0, r2
     f76:	f7ff feec 	bl	d52 <nrf_timer_shorts_enable>
     f7a:	4a1d      	ldr	r2, [pc, #116]	; (ff0 <pwm_init+0x128>)
     f7c:	23a0      	movs	r3, #160	; 0xa0
     f7e:	005b      	lsls	r3, r3, #1
     f80:	0019      	movs	r1, r3
     f82:	0010      	movs	r0, r2
     f84:	f7ff fec5 	bl	d12 <nrf_timer_event_clear>
     f88:	4a19      	ldr	r2, [pc, #100]	; (ff0 <pwm_init+0x128>)
     f8a:	23a2      	movs	r3, #162	; 0xa2
     f8c:	005b      	lsls	r3, r3, #1
     f8e:	0019      	movs	r1, r3
     f90:	0010      	movs	r0, r2
     f92:	f7ff febe 	bl	d12 <nrf_timer_event_clear>
     f96:	4a16      	ldr	r2, [pc, #88]	; (ff0 <pwm_init+0x128>)
     f98:	23a4      	movs	r3, #164	; 0xa4
     f9a:	005b      	lsls	r3, r3, #1
     f9c:	0019      	movs	r1, r3
     f9e:	0010      	movs	r0, r2
     fa0:	f7ff feb7 	bl	d12 <nrf_timer_event_clear>
     fa4:	4a12      	ldr	r2, [pc, #72]	; (ff0 <pwm_init+0x128>)
     fa6:	23a6      	movs	r3, #166	; 0xa6
     fa8:	005b      	lsls	r3, r3, #1
     faa:	0019      	movs	r1, r3
     fac:	0010      	movs	r0, r2
     fae:	f7ff feb0 	bl	d12 <nrf_timer_event_clear>
     fb2:	4b0f      	ldr	r3, [pc, #60]	; (ff0 <pwm_init+0x128>)
     fb4:	210c      	movs	r1, #12
     fb6:	0018      	movs	r0, r3
     fb8:	f7ff fe9a 	bl	cf0 <nrf_timer_task_trigger>
     fbc:	4a0c      	ldr	r2, [pc, #48]	; (ff0 <pwm_init+0x128>)
     fbe:	2380      	movs	r3, #128	; 0x80
     fc0:	031b      	lsls	r3, r3, #12
     fc2:	0019      	movs	r1, r3
     fc4:	0010      	movs	r0, r2
     fc6:	f7ff ff42 	bl	e4e <nrf_timer_int_enable>
     fca:	2101      	movs	r1, #1
     fcc:	200a      	movs	r0, #10
     fce:	f7ff fd29 	bl	a24 <NVIC_SetPriority>
     fd2:	200a      	movs	r0, #10
     fd4:	f7ff fd10 	bl	9f8 <NVIC_EnableIRQ>
     fd8:	4b06      	ldr	r3, [pc, #24]	; (ff4 <pwm_init+0x12c>)
     fda:	2201      	movs	r2, #1
     fdc:	601a      	str	r2, [r3, #0]
     fde:	4b04      	ldr	r3, [pc, #16]	; (ff0 <pwm_init+0x128>)
     fe0:	2100      	movs	r1, #0
     fe2:	0018      	movs	r0, r3
     fe4:	f7ff fe84 	bl	cf0 <nrf_timer_task_trigger>
     fe8:	46c0      	nop			; (mov r8, r8)
     fea:	46bd      	mov	sp, r7
     fec:	b002      	add	sp, #8
     fee:	bd80      	pop	{r7, pc}
     ff0:	4000a000 	.word	0x4000a000
     ff4:	4000ac0c 	.word	0x4000ac0c
     ff8:	200000a0 	.word	0x200000a0
     ffc:	2000009c 	.word	0x2000009c

00001000 <pwm_channel_init>:
    1000:	b5f0      	push	{r4, r5, r6, r7, lr}
    1002:	b085      	sub	sp, #20
    1004:	af00      	add	r7, sp, #0
    1006:	6039      	str	r1, [r7, #0]
    1008:	0011      	movs	r1, r2
    100a:	1dfb      	adds	r3, r7, #7
    100c:	1c02      	adds	r2, r0, #0
    100e:	701a      	strb	r2, [r3, #0]
    1010:	1d3b      	adds	r3, r7, #4
    1012:	1c0a      	adds	r2, r1, #0
    1014:	801a      	strh	r2, [r3, #0]
    1016:	1dfb      	adds	r3, r7, #7
    1018:	781b      	ldrb	r3, [r3, #0]
    101a:	2b02      	cmp	r3, #2
    101c:	d905      	bls.n	102a <pwm_channel_init+0x2a>
    101e:	4b35      	ldr	r3, [pc, #212]	; (10f4 <pwm_channel_init+0xf4>)
    1020:	4a35      	ldr	r2, [pc, #212]	; (10f8 <pwm_channel_init+0xf8>)
    1022:	4836      	ldr	r0, [pc, #216]	; (10fc <pwm_channel_init+0xfc>)
    1024:	2153      	movs	r1, #83	; 0x53
    1026:	f002 f8f9 	bl	321c <__assert_func>
    102a:	1d3b      	adds	r3, r7, #4
    102c:	881a      	ldrh	r2, [r3, #0]
    102e:	1dfb      	adds	r3, r7, #7
    1030:	781b      	ldrb	r3, [r3, #0]
    1032:	0011      	movs	r1, r2
    1034:	0018      	movs	r0, r3
    1036:	f000 f865 	bl	1104 <pwm_set_pulse_width>
    103a:	683b      	ldr	r3, [r7, #0]
    103c:	0018      	movs	r0, r3
    103e:	f7ff fd8f 	bl	b60 <nrf_gpio_cfg_output>
    1042:	1dfb      	adds	r3, r7, #7
    1044:	7818      	ldrb	r0, [r3, #0]
    1046:	6839      	ldr	r1, [r7, #0]
    1048:	2300      	movs	r3, #0
    104a:	2203      	movs	r2, #3
    104c:	f7ff fdd6 	bl	bfc <nrf_gpiote_task_configure>
    1050:	1dfb      	adds	r3, r7, #7
    1052:	781b      	ldrb	r3, [r3, #0]
    1054:	0018      	movs	r0, r3
    1056:	f7ff fda7 	bl	ba8 <nrf_gpiote_task_enable>
    105a:	250f      	movs	r5, #15
    105c:	197a      	adds	r2, r7, r5
    105e:	1dfb      	adds	r3, r7, #7
    1060:	781b      	ldrb	r3, [r3, #0]
    1062:	18db      	adds	r3, r3, r3
    1064:	7013      	strb	r3, [r2, #0]
    1066:	4a26      	ldr	r2, [pc, #152]	; (1100 <pwm_channel_init+0x100>)
    1068:	1dfb      	adds	r3, r7, #7
    106a:	781b      	ldrb	r3, [r3, #0]
    106c:	3350      	adds	r3, #80	; 0x50
    106e:	b29b      	uxth	r3, r3
    1070:	009b      	lsls	r3, r3, #2
    1072:	b29b      	uxth	r3, r3
    1074:	0019      	movs	r1, r3
    1076:	0010      	movs	r0, r2
    1078:	f7ff fe5c 	bl	d34 <nrf_timer_event_address_get>
    107c:	0003      	movs	r3, r0
    107e:	001c      	movs	r4, r3
    1080:	1dfb      	adds	r3, r7, #7
    1082:	781b      	ldrb	r3, [r3, #0]
    1084:	009b      	lsls	r3, r3, #2
    1086:	b2db      	uxtb	r3, r3
    1088:	0018      	movs	r0, r3
    108a:	f7ff fd7b 	bl	b84 <nrf_gpiote_task_addr_get>
    108e:	0002      	movs	r2, r0
    1090:	197b      	adds	r3, r7, r5
    1092:	781b      	ldrb	r3, [r3, #0]
    1094:	0021      	movs	r1, r4
    1096:	0018      	movs	r0, r3
    1098:	f7ff fe0a 	bl	cb0 <nrf_ppi_channel_endpoint_setup>
    109c:	002e      	movs	r6, r5
    109e:	197b      	adds	r3, r7, r5
    10a0:	781b      	ldrb	r3, [r3, #0]
    10a2:	3301      	adds	r3, #1
    10a4:	b2dc      	uxtb	r4, r3
    10a6:	4a16      	ldr	r2, [pc, #88]	; (1100 <pwm_channel_init+0x100>)
    10a8:	23a6      	movs	r3, #166	; 0xa6
    10aa:	005b      	lsls	r3, r3, #1
    10ac:	0019      	movs	r1, r3
    10ae:	0010      	movs	r0, r2
    10b0:	f7ff fe40 	bl	d34 <nrf_timer_event_address_get>
    10b4:	0003      	movs	r3, r0
    10b6:	001d      	movs	r5, r3
    10b8:	1dfb      	adds	r3, r7, #7
    10ba:	781b      	ldrb	r3, [r3, #0]
    10bc:	009b      	lsls	r3, r3, #2
    10be:	b2db      	uxtb	r3, r3
    10c0:	0018      	movs	r0, r3
    10c2:	f7ff fd5f 	bl	b84 <nrf_gpiote_task_addr_get>
    10c6:	0003      	movs	r3, r0
    10c8:	001a      	movs	r2, r3
    10ca:	0029      	movs	r1, r5
    10cc:	0020      	movs	r0, r4
    10ce:	f7ff fdef 	bl	cb0 <nrf_ppi_channel_endpoint_setup>
    10d2:	19bb      	adds	r3, r7, r6
    10d4:	781b      	ldrb	r3, [r3, #0]
    10d6:	0018      	movs	r0, r3
    10d8:	f7ff fdd4 	bl	c84 <nrf_ppi_channel_enable>
    10dc:	19bb      	adds	r3, r7, r6
    10de:	781b      	ldrb	r3, [r3, #0]
    10e0:	3301      	adds	r3, #1
    10e2:	b2db      	uxtb	r3, r3
    10e4:	0018      	movs	r0, r3
    10e6:	f7ff fdcd 	bl	c84 <nrf_ppi_channel_enable>
    10ea:	46c0      	nop			; (mov r8, r8)
    10ec:	46bd      	mov	sp, r7
    10ee:	b005      	add	sp, #20
    10f0:	bdf0      	pop	{r4, r5, r6, r7, pc}
    10f2:	46c0      	nop			; (mov r8, r8)
    10f4:	00005b28 	.word	0x00005b28
    10f8:	00005b50 	.word	0x00005b50
    10fc:	00005b40 	.word	0x00005b40
    1100:	4000a000 	.word	0x4000a000

00001104 <pwm_set_pulse_width>:
    1104:	b580      	push	{r7, lr}
    1106:	b082      	sub	sp, #8
    1108:	af00      	add	r7, sp, #0
    110a:	0002      	movs	r2, r0
    110c:	1dfb      	adds	r3, r7, #7
    110e:	701a      	strb	r2, [r3, #0]
    1110:	1d3b      	adds	r3, r7, #4
    1112:	1c0a      	adds	r2, r1, #0
    1114:	801a      	strh	r2, [r3, #0]
    1116:	1dfb      	adds	r3, r7, #7
    1118:	781b      	ldrb	r3, [r3, #0]
    111a:	2b02      	cmp	r3, #2
    111c:	d905      	bls.n	112a <pwm_set_pulse_width+0x26>
    111e:	4b12      	ldr	r3, [pc, #72]	; (1168 <pwm_set_pulse_width+0x64>)
    1120:	4a12      	ldr	r2, [pc, #72]	; (116c <pwm_set_pulse_width+0x68>)
    1122:	4813      	ldr	r0, [pc, #76]	; (1170 <pwm_set_pulse_width+0x6c>)
    1124:	216c      	movs	r1, #108	; 0x6c
    1126:	f002 f879 	bl	321c <__assert_func>
    112a:	1d3b      	adds	r3, r7, #4
    112c:	881b      	ldrh	r3, [r3, #0]
    112e:	2b00      	cmp	r3, #0
    1130:	d103      	bne.n	113a <pwm_set_pulse_width+0x36>
    1132:	1d3b      	adds	r3, r7, #4
    1134:	2201      	movs	r2, #1
    1136:	801a      	strh	r2, [r3, #0]
    1138:	e00b      	b.n	1152 <pwm_set_pulse_width+0x4e>
    113a:	1d3b      	adds	r3, r7, #4
    113c:	881a      	ldrh	r2, [r3, #0]
    113e:	4b0d      	ldr	r3, [pc, #52]	; (1174 <pwm_set_pulse_width+0x70>)
    1140:	681b      	ldr	r3, [r3, #0]
    1142:	429a      	cmp	r2, r3
    1144:	d305      	bcc.n	1152 <pwm_set_pulse_width+0x4e>
    1146:	4b0b      	ldr	r3, [pc, #44]	; (1174 <pwm_set_pulse_width+0x70>)
    1148:	681b      	ldr	r3, [r3, #0]
    114a:	b29a      	uxth	r2, r3
    114c:	1d3b      	adds	r3, r7, #4
    114e:	3a01      	subs	r2, #1
    1150:	801a      	strh	r2, [r3, #0]
    1152:	1dfb      	adds	r3, r7, #7
    1154:	781a      	ldrb	r2, [r3, #0]
    1156:	1d3b      	adds	r3, r7, #4
    1158:	8819      	ldrh	r1, [r3, #0]
    115a:	4b07      	ldr	r3, [pc, #28]	; (1178 <pwm_set_pulse_width+0x74>)
    115c:	0092      	lsls	r2, r2, #2
    115e:	50d1      	str	r1, [r2, r3]
    1160:	46c0      	nop			; (mov r8, r8)
    1162:	46bd      	mov	sp, r7
    1164:	b002      	add	sp, #8
    1166:	bd80      	pop	{r7, pc}
    1168:	00005b28 	.word	0x00005b28
    116c:	00005b64 	.word	0x00005b64
    1170:	00005b40 	.word	0x00005b40
    1174:	2000009c 	.word	0x2000009c
    1178:	200000a0 	.word	0x200000a0

0000117c <nrf_gpio_cfg>:
    117c:	b590      	push	{r4, r7, lr}
    117e:	b083      	sub	sp, #12
    1180:	af00      	add	r7, sp, #0
    1182:	6078      	str	r0, [r7, #4]
    1184:	000c      	movs	r4, r1
    1186:	0010      	movs	r0, r2
    1188:	0019      	movs	r1, r3
    118a:	1cfb      	adds	r3, r7, #3
    118c:	1c22      	adds	r2, r4, #0
    118e:	701a      	strb	r2, [r3, #0]
    1190:	1cbb      	adds	r3, r7, #2
    1192:	1c02      	adds	r2, r0, #0
    1194:	701a      	strb	r2, [r3, #0]
    1196:	1c7b      	adds	r3, r7, #1
    1198:	1c0a      	adds	r2, r1, #0
    119a:	701a      	strb	r2, [r3, #0]
    119c:	1cfb      	adds	r3, r7, #3
    119e:	781a      	ldrb	r2, [r3, #0]
    11a0:	1cbb      	adds	r3, r7, #2
    11a2:	781b      	ldrb	r3, [r3, #0]
    11a4:	005b      	lsls	r3, r3, #1
    11a6:	431a      	orrs	r2, r3
    11a8:	1c7b      	adds	r3, r7, #1
    11aa:	781b      	ldrb	r3, [r3, #0]
    11ac:	009b      	lsls	r3, r3, #2
    11ae:	431a      	orrs	r2, r3
    11b0:	2318      	movs	r3, #24
    11b2:	18fb      	adds	r3, r7, r3
    11b4:	781b      	ldrb	r3, [r3, #0]
    11b6:	021b      	lsls	r3, r3, #8
    11b8:	431a      	orrs	r2, r3
    11ba:	0011      	movs	r1, r2
    11bc:	231c      	movs	r3, #28
    11be:	18fb      	adds	r3, r7, r3
    11c0:	781b      	ldrb	r3, [r3, #0]
    11c2:	041a      	lsls	r2, r3, #16
    11c4:	23a0      	movs	r3, #160	; 0xa0
    11c6:	05db      	lsls	r3, r3, #23
    11c8:	4311      	orrs	r1, r2
    11ca:	687a      	ldr	r2, [r7, #4]
    11cc:	32c1      	adds	r2, #193	; 0xc1
    11ce:	32ff      	adds	r2, #255	; 0xff
    11d0:	0092      	lsls	r2, r2, #2
    11d2:	50d1      	str	r1, [r2, r3]
    11d4:	46c0      	nop			; (mov r8, r8)
    11d6:	46bd      	mov	sp, r7
    11d8:	b003      	add	sp, #12
    11da:	bd90      	pop	{r4, r7, pc}

000011dc <nrf_gpio_cfg_output>:
    11dc:	b580      	push	{r7, lr}
    11de:	b084      	sub	sp, #16
    11e0:	af02      	add	r7, sp, #8
    11e2:	6078      	str	r0, [r7, #4]
    11e4:	6878      	ldr	r0, [r7, #4]
    11e6:	2300      	movs	r3, #0
    11e8:	9301      	str	r3, [sp, #4]
    11ea:	2300      	movs	r3, #0
    11ec:	9300      	str	r3, [sp, #0]
    11ee:	2300      	movs	r3, #0
    11f0:	2201      	movs	r2, #1
    11f2:	2101      	movs	r1, #1
    11f4:	f7ff ffc2 	bl	117c <nrf_gpio_cfg>
    11f8:	46c0      	nop			; (mov r8, r8)
    11fa:	46bd      	mov	sp, r7
    11fc:	b002      	add	sp, #8
    11fe:	bd80      	pop	{r7, pc}

00001200 <nrf_gpio_cfg_input>:
    1200:	b580      	push	{r7, lr}
    1202:	b084      	sub	sp, #16
    1204:	af02      	add	r7, sp, #8
    1206:	6078      	str	r0, [r7, #4]
    1208:	000a      	movs	r2, r1
    120a:	1cfb      	adds	r3, r7, #3
    120c:	701a      	strb	r2, [r3, #0]
    120e:	1cfb      	adds	r3, r7, #3
    1210:	781b      	ldrb	r3, [r3, #0]
    1212:	6878      	ldr	r0, [r7, #4]
    1214:	2200      	movs	r2, #0
    1216:	9201      	str	r2, [sp, #4]
    1218:	2200      	movs	r2, #0
    121a:	9200      	str	r2, [sp, #0]
    121c:	2200      	movs	r2, #0
    121e:	2100      	movs	r1, #0
    1220:	f7ff ffac 	bl	117c <nrf_gpio_cfg>
    1224:	46c0      	nop			; (mov r8, r8)
    1226:	46bd      	mov	sp, r7
    1228:	b002      	add	sp, #8
    122a:	bd80      	pop	{r7, pc}

0000122c <nrf_uart_event_clear>:
    122c:	b580      	push	{r7, lr}
    122e:	b082      	sub	sp, #8
    1230:	af00      	add	r7, sp, #0
    1232:	6078      	str	r0, [r7, #4]
    1234:	000a      	movs	r2, r1
    1236:	1cbb      	adds	r3, r7, #2
    1238:	801a      	strh	r2, [r3, #0]
    123a:	1cbb      	adds	r3, r7, #2
    123c:	881b      	ldrh	r3, [r3, #0]
    123e:	687a      	ldr	r2, [r7, #4]
    1240:	18d3      	adds	r3, r2, r3
    1242:	2200      	movs	r2, #0
    1244:	601a      	str	r2, [r3, #0]
    1246:	46c0      	nop			; (mov r8, r8)
    1248:	46bd      	mov	sp, r7
    124a:	b002      	add	sp, #8
    124c:	bd80      	pop	{r7, pc}

0000124e <nrf_uart_event_check>:
    124e:	b580      	push	{r7, lr}
    1250:	b082      	sub	sp, #8
    1252:	af00      	add	r7, sp, #0
    1254:	6078      	str	r0, [r7, #4]
    1256:	000a      	movs	r2, r1
    1258:	1cbb      	adds	r3, r7, #2
    125a:	801a      	strh	r2, [r3, #0]
    125c:	1cbb      	adds	r3, r7, #2
    125e:	881b      	ldrh	r3, [r3, #0]
    1260:	687a      	ldr	r2, [r7, #4]
    1262:	18d3      	adds	r3, r2, r3
    1264:	681b      	ldr	r3, [r3, #0]
    1266:	1e5a      	subs	r2, r3, #1
    1268:	4193      	sbcs	r3, r2
    126a:	b2db      	uxtb	r3, r3
    126c:	0018      	movs	r0, r3
    126e:	46bd      	mov	sp, r7
    1270:	b002      	add	sp, #8
    1272:	bd80      	pop	{r7, pc}

00001274 <nrf_uart_enable>:
    1274:	b580      	push	{r7, lr}
    1276:	b082      	sub	sp, #8
    1278:	af00      	add	r7, sp, #0
    127a:	6078      	str	r0, [r7, #4]
    127c:	687a      	ldr	r2, [r7, #4]
    127e:	23a0      	movs	r3, #160	; 0xa0
    1280:	00db      	lsls	r3, r3, #3
    1282:	2104      	movs	r1, #4
    1284:	50d1      	str	r1, [r2, r3]
    1286:	46c0      	nop			; (mov r8, r8)
    1288:	46bd      	mov	sp, r7
    128a:	b002      	add	sp, #8
    128c:	bd80      	pop	{r7, pc}
	...

00001290 <nrf_uart_txrx_pins_set>:
    1290:	b580      	push	{r7, lr}
    1292:	b084      	sub	sp, #16
    1294:	af00      	add	r7, sp, #0
    1296:	60f8      	str	r0, [r7, #12]
    1298:	60b9      	str	r1, [r7, #8]
    129a:	607a      	str	r2, [r7, #4]
    129c:	68fb      	ldr	r3, [r7, #12]
    129e:	4905      	ldr	r1, [pc, #20]	; (12b4 <nrf_uart_txrx_pins_set+0x24>)
    12a0:	68ba      	ldr	r2, [r7, #8]
    12a2:	505a      	str	r2, [r3, r1]
    12a4:	68fb      	ldr	r3, [r7, #12]
    12a6:	4904      	ldr	r1, [pc, #16]	; (12b8 <nrf_uart_txrx_pins_set+0x28>)
    12a8:	687a      	ldr	r2, [r7, #4]
    12aa:	505a      	str	r2, [r3, r1]
    12ac:	46c0      	nop			; (mov r8, r8)
    12ae:	46bd      	mov	sp, r7
    12b0:	b004      	add	sp, #16
    12b2:	bd80      	pop	{r7, pc}
    12b4:	0000050c 	.word	0x0000050c
    12b8:	00000514 	.word	0x00000514

000012bc <nrf_uart_rxd_get>:
    12bc:	b580      	push	{r7, lr}
    12be:	b082      	sub	sp, #8
    12c0:	af00      	add	r7, sp, #0
    12c2:	6078      	str	r0, [r7, #4]
    12c4:	687a      	ldr	r2, [r7, #4]
    12c6:	23a3      	movs	r3, #163	; 0xa3
    12c8:	00db      	lsls	r3, r3, #3
    12ca:	58d3      	ldr	r3, [r2, r3]
    12cc:	b2db      	uxtb	r3, r3
    12ce:	0018      	movs	r0, r3
    12d0:	46bd      	mov	sp, r7
    12d2:	b002      	add	sp, #8
    12d4:	bd80      	pop	{r7, pc}
	...

000012d8 <nrf_uart_txd_set>:
    12d8:	b580      	push	{r7, lr}
    12da:	b082      	sub	sp, #8
    12dc:	af00      	add	r7, sp, #0
    12de:	6078      	str	r0, [r7, #4]
    12e0:	000a      	movs	r2, r1
    12e2:	1cfb      	adds	r3, r7, #3
    12e4:	701a      	strb	r2, [r3, #0]
    12e6:	1cfb      	adds	r3, r7, #3
    12e8:	781a      	ldrb	r2, [r3, #0]
    12ea:	687b      	ldr	r3, [r7, #4]
    12ec:	4902      	ldr	r1, [pc, #8]	; (12f8 <nrf_uart_txd_set+0x20>)
    12ee:	505a      	str	r2, [r3, r1]
    12f0:	46c0      	nop			; (mov r8, r8)
    12f2:	46bd      	mov	sp, r7
    12f4:	b002      	add	sp, #8
    12f6:	bd80      	pop	{r7, pc}
    12f8:	0000051c 	.word	0x0000051c

000012fc <nrf_uart_task_trigger>:
    12fc:	b580      	push	{r7, lr}
    12fe:	b082      	sub	sp, #8
    1300:	af00      	add	r7, sp, #0
    1302:	6078      	str	r0, [r7, #4]
    1304:	000a      	movs	r2, r1
    1306:	1cfb      	adds	r3, r7, #3
    1308:	701a      	strb	r2, [r3, #0]
    130a:	1cfb      	adds	r3, r7, #3
    130c:	781b      	ldrb	r3, [r3, #0]
    130e:	687a      	ldr	r2, [r7, #4]
    1310:	18d3      	adds	r3, r2, r3
    1312:	2201      	movs	r2, #1
    1314:	601a      	str	r2, [r3, #0]
    1316:	46c0      	nop			; (mov r8, r8)
    1318:	46bd      	mov	sp, r7
    131a:	b002      	add	sp, #8
    131c:	bd80      	pop	{r7, pc}
	...

00001320 <nrf_uart_configure>:
    1320:	b580      	push	{r7, lr}
    1322:	b082      	sub	sp, #8
    1324:	af00      	add	r7, sp, #0
    1326:	6078      	str	r0, [r7, #4]
    1328:	0008      	movs	r0, r1
    132a:	0011      	movs	r1, r2
    132c:	1cfb      	adds	r3, r7, #3
    132e:	1c02      	adds	r2, r0, #0
    1330:	701a      	strb	r2, [r3, #0]
    1332:	1cbb      	adds	r3, r7, #2
    1334:	1c0a      	adds	r2, r1, #0
    1336:	701a      	strb	r2, [r3, #0]
    1338:	1cfa      	adds	r2, r7, #3
    133a:	1cbb      	adds	r3, r7, #2
    133c:	7812      	ldrb	r2, [r2, #0]
    133e:	781b      	ldrb	r3, [r3, #0]
    1340:	4313      	orrs	r3, r2
    1342:	b2db      	uxtb	r3, r3
    1344:	0019      	movs	r1, r3
    1346:	687b      	ldr	r3, [r7, #4]
    1348:	4a02      	ldr	r2, [pc, #8]	; (1354 <nrf_uart_configure+0x34>)
    134a:	5099      	str	r1, [r3, r2]
    134c:	46c0      	nop			; (mov r8, r8)
    134e:	46bd      	mov	sp, r7
    1350:	b002      	add	sp, #8
    1352:	bd80      	pop	{r7, pc}
    1354:	0000056c 	.word	0x0000056c

00001358 <nrf_uart_baudrate_set>:
    1358:	b580      	push	{r7, lr}
    135a:	b082      	sub	sp, #8
    135c:	af00      	add	r7, sp, #0
    135e:	6078      	str	r0, [r7, #4]
    1360:	6039      	str	r1, [r7, #0]
    1362:	687b      	ldr	r3, [r7, #4]
    1364:	4903      	ldr	r1, [pc, #12]	; (1374 <nrf_uart_baudrate_set+0x1c>)
    1366:	683a      	ldr	r2, [r7, #0]
    1368:	505a      	str	r2, [r3, r1]
    136a:	46c0      	nop			; (mov r8, r8)
    136c:	46bd      	mov	sp, r7
    136e:	b002      	add	sp, #8
    1370:	bd80      	pop	{r7, pc}
    1372:	46c0      	nop			; (mov r8, r8)
    1374:	00000524 	.word	0x00000524

00001378 <uart_init>:
    1378:	b580      	push	{r7, lr}
    137a:	af00      	add	r7, sp, #0
    137c:	4a0f      	ldr	r2, [pc, #60]	; (13bc <uart_init+0x44>)
    137e:	4b10      	ldr	r3, [pc, #64]	; (13c0 <uart_init+0x48>)
    1380:	0011      	movs	r1, r2
    1382:	0018      	movs	r0, r3
    1384:	f7ff ffe8 	bl	1358 <nrf_uart_baudrate_set>
    1388:	4b0d      	ldr	r3, [pc, #52]	; (13c0 <uart_init+0x48>)
    138a:	2200      	movs	r2, #0
    138c:	2100      	movs	r1, #0
    138e:	0018      	movs	r0, r3
    1390:	f7ff ffc6 	bl	1320 <nrf_uart_configure>
    1394:	4b0a      	ldr	r3, [pc, #40]	; (13c0 <uart_init+0x48>)
    1396:	2219      	movs	r2, #25
    1398:	2118      	movs	r1, #24
    139a:	0018      	movs	r0, r3
    139c:	f7ff ff78 	bl	1290 <nrf_uart_txrx_pins_set>
    13a0:	4b07      	ldr	r3, [pc, #28]	; (13c0 <uart_init+0x48>)
    13a2:	0018      	movs	r0, r3
    13a4:	f7ff ff66 	bl	1274 <nrf_uart_enable>
    13a8:	2018      	movs	r0, #24
    13aa:	f7ff ff17 	bl	11dc <nrf_gpio_cfg_output>
    13ae:	2100      	movs	r1, #0
    13b0:	2019      	movs	r0, #25
    13b2:	f7ff ff25 	bl	1200 <nrf_gpio_cfg_input>
    13b6:	46c0      	nop			; (mov r8, r8)
    13b8:	46bd      	mov	sp, r7
    13ba:	bd80      	pop	{r7, pc}
    13bc:	00275000 	.word	0x00275000
    13c0:	40002000 	.word	0x40002000

000013c4 <uart_tx_byte>:
    13c4:	b580      	push	{r7, lr}
    13c6:	b082      	sub	sp, #8
    13c8:	af00      	add	r7, sp, #0
    13ca:	0002      	movs	r2, r0
    13cc:	1dfb      	adds	r3, r7, #7
    13ce:	701a      	strb	r2, [r3, #0]
    13d0:	238e      	movs	r3, #142	; 0x8e
    13d2:	005b      	lsls	r3, r3, #1
    13d4:	4a12      	ldr	r2, [pc, #72]	; (1420 <uart_tx_byte+0x5c>)
    13d6:	0019      	movs	r1, r3
    13d8:	0010      	movs	r0, r2
    13da:	f7ff ff27 	bl	122c <nrf_uart_event_clear>
    13de:	4b10      	ldr	r3, [pc, #64]	; (1420 <uart_tx_byte+0x5c>)
    13e0:	2108      	movs	r1, #8
    13e2:	0018      	movs	r0, r3
    13e4:	f7ff ff8a 	bl	12fc <nrf_uart_task_trigger>
    13e8:	1dfb      	adds	r3, r7, #7
    13ea:	781b      	ldrb	r3, [r3, #0]
    13ec:	4a0c      	ldr	r2, [pc, #48]	; (1420 <uart_tx_byte+0x5c>)
    13ee:	0019      	movs	r1, r3
    13f0:	0010      	movs	r0, r2
    13f2:	f7ff ff71 	bl	12d8 <nrf_uart_txd_set>
    13f6:	46c0      	nop			; (mov r8, r8)
    13f8:	238e      	movs	r3, #142	; 0x8e
    13fa:	005b      	lsls	r3, r3, #1
    13fc:	4a08      	ldr	r2, [pc, #32]	; (1420 <uart_tx_byte+0x5c>)
    13fe:	0019      	movs	r1, r3
    1400:	0010      	movs	r0, r2
    1402:	f7ff ff24 	bl	124e <nrf_uart_event_check>
    1406:	0003      	movs	r3, r0
    1408:	001a      	movs	r2, r3
    140a:	2301      	movs	r3, #1
    140c:	4053      	eors	r3, r2
    140e:	b2db      	uxtb	r3, r3
    1410:	2b00      	cmp	r3, #0
    1412:	d1f1      	bne.n	13f8 <uart_tx_byte+0x34>
    1414:	46c0      	nop			; (mov r8, r8)
    1416:	46c0      	nop			; (mov r8, r8)
    1418:	46bd      	mov	sp, r7
    141a:	b002      	add	sp, #8
    141c:	bd80      	pop	{r7, pc}
    141e:	46c0      	nop			; (mov r8, r8)
    1420:	40002000 	.word	0x40002000

00001424 <uart_rx_byte>:
    1424:	b580      	push	{r7, lr}
    1426:	af00      	add	r7, sp, #0
    1428:	2384      	movs	r3, #132	; 0x84
    142a:	005b      	lsls	r3, r3, #1
    142c:	4a10      	ldr	r2, [pc, #64]	; (1470 <uart_rx_byte+0x4c>)
    142e:	0019      	movs	r1, r3
    1430:	0010      	movs	r0, r2
    1432:	f7ff fefb 	bl	122c <nrf_uart_event_clear>
    1436:	4b0e      	ldr	r3, [pc, #56]	; (1470 <uart_rx_byte+0x4c>)
    1438:	2100      	movs	r1, #0
    143a:	0018      	movs	r0, r3
    143c:	f7ff ff5e 	bl	12fc <nrf_uart_task_trigger>
    1440:	46c0      	nop			; (mov r8, r8)
    1442:	2384      	movs	r3, #132	; 0x84
    1444:	005b      	lsls	r3, r3, #1
    1446:	4a0a      	ldr	r2, [pc, #40]	; (1470 <uart_rx_byte+0x4c>)
    1448:	0019      	movs	r1, r3
    144a:	0010      	movs	r0, r2
    144c:	f7ff feff 	bl	124e <nrf_uart_event_check>
    1450:	0003      	movs	r3, r0
    1452:	001a      	movs	r2, r3
    1454:	2301      	movs	r3, #1
    1456:	4053      	eors	r3, r2
    1458:	b2db      	uxtb	r3, r3
    145a:	2b00      	cmp	r3, #0
    145c:	d1f1      	bne.n	1442 <uart_rx_byte+0x1e>
    145e:	4b04      	ldr	r3, [pc, #16]	; (1470 <uart_rx_byte+0x4c>)
    1460:	0018      	movs	r0, r3
    1462:	f7ff ff2b 	bl	12bc <nrf_uart_rxd_get>
    1466:	0003      	movs	r3, r0
    1468:	0018      	movs	r0, r3
    146a:	46bd      	mov	sp, r7
    146c:	bd80      	pop	{r7, pc}
    146e:	46c0      	nop			; (mov r8, r8)
    1470:	40002000 	.word	0x40002000

00001474 <adc_init>:
    1474:	b580      	push	{r7, lr}
    1476:	b082      	sub	sp, #8
    1478:	af00      	add	r7, sp, #0
    147a:	003b      	movs	r3, r7
    147c:	4a05      	ldr	r2, [pc, #20]	; (1494 <adc_init+0x20>)
    147e:	ca03      	ldmia	r2!, {r0, r1}
    1480:	c303      	stmia	r3!, {r0, r1}
    1482:	003b      	movs	r3, r7
    1484:	0018      	movs	r0, r3
    1486:	f001 fe39 	bl	30fc <nrf_adc_configure>
    148a:	46c0      	nop			; (mov r8, r8)
    148c:	46bd      	mov	sp, r7
    148e:	b002      	add	sp, #8
    1490:	bd80      	pop	{r7, pc}
    1492:	46c0      	nop			; (mov r8, r8)
    1494:	00005b78 	.word	0x00005b78

00001498 <adc_get_value>:
    1498:	b580      	push	{r7, lr}
    149a:	b082      	sub	sp, #8
    149c:	af00      	add	r7, sp, #0
    149e:	0002      	movs	r2, r0
    14a0:	1dfb      	adds	r3, r7, #7
    14a2:	701a      	strb	r2, [r3, #0]
    14a4:	1dfb      	adds	r3, r7, #7
    14a6:	781b      	ldrb	r3, [r3, #0]
    14a8:	2b01      	cmp	r3, #1
    14aa:	d903      	bls.n	14b4 <adc_get_value+0x1c>
    14ac:	1dfb      	adds	r3, r7, #7
    14ae:	781b      	ldrb	r3, [r3, #0]
    14b0:	2b07      	cmp	r3, #7
    14b2:	d905      	bls.n	14c0 <adc_get_value+0x28>
    14b4:	4b08      	ldr	r3, [pc, #32]	; (14d8 <adc_get_value+0x40>)
    14b6:	4a09      	ldr	r2, [pc, #36]	; (14dc <adc_get_value+0x44>)
    14b8:	4809      	ldr	r0, [pc, #36]	; (14e0 <adc_get_value+0x48>)
    14ba:	2121      	movs	r1, #33	; 0x21
    14bc:	f001 feae 	bl	321c <__assert_func>
    14c0:	1dfb      	adds	r3, r7, #7
    14c2:	781b      	ldrb	r3, [r3, #0]
    14c4:	4a07      	ldr	r2, [pc, #28]	; (14e4 <adc_get_value+0x4c>)
    14c6:	5cd3      	ldrb	r3, [r2, r3]
    14c8:	0018      	movs	r0, r3
    14ca:	f001 fe59 	bl	3180 <nrf_adc_convert_single>
    14ce:	0003      	movs	r3, r0
    14d0:	0018      	movs	r0, r3
    14d2:	46bd      	mov	sp, r7
    14d4:	b002      	add	sp, #8
    14d6:	bd80      	pop	{r7, pc}
    14d8:	00005b80 	.word	0x00005b80
    14dc:	00005bd4 	.word	0x00005bd4
    14e0:	00005bc4 	.word	0x00005bc4
    14e4:	00005be4 	.word	0x00005be4

000014e8 <nrf_gpio_cfg>:
    14e8:	b590      	push	{r4, r7, lr}
    14ea:	b083      	sub	sp, #12
    14ec:	af00      	add	r7, sp, #0
    14ee:	6078      	str	r0, [r7, #4]
    14f0:	000c      	movs	r4, r1
    14f2:	0010      	movs	r0, r2
    14f4:	0019      	movs	r1, r3
    14f6:	1cfb      	adds	r3, r7, #3
    14f8:	1c22      	adds	r2, r4, #0
    14fa:	701a      	strb	r2, [r3, #0]
    14fc:	1cbb      	adds	r3, r7, #2
    14fe:	1c02      	adds	r2, r0, #0
    1500:	701a      	strb	r2, [r3, #0]
    1502:	1c7b      	adds	r3, r7, #1
    1504:	1c0a      	adds	r2, r1, #0
    1506:	701a      	strb	r2, [r3, #0]
    1508:	1cfb      	adds	r3, r7, #3
    150a:	781a      	ldrb	r2, [r3, #0]
    150c:	1cbb      	adds	r3, r7, #2
    150e:	781b      	ldrb	r3, [r3, #0]
    1510:	005b      	lsls	r3, r3, #1
    1512:	431a      	orrs	r2, r3
    1514:	1c7b      	adds	r3, r7, #1
    1516:	781b      	ldrb	r3, [r3, #0]
    1518:	009b      	lsls	r3, r3, #2
    151a:	431a      	orrs	r2, r3
    151c:	2318      	movs	r3, #24
    151e:	18fb      	adds	r3, r7, r3
    1520:	781b      	ldrb	r3, [r3, #0]
    1522:	021b      	lsls	r3, r3, #8
    1524:	431a      	orrs	r2, r3
    1526:	0011      	movs	r1, r2
    1528:	231c      	movs	r3, #28
    152a:	18fb      	adds	r3, r7, r3
    152c:	781b      	ldrb	r3, [r3, #0]
    152e:	041a      	lsls	r2, r3, #16
    1530:	23a0      	movs	r3, #160	; 0xa0
    1532:	05db      	lsls	r3, r3, #23
    1534:	4311      	orrs	r1, r2
    1536:	687a      	ldr	r2, [r7, #4]
    1538:	32c1      	adds	r2, #193	; 0xc1
    153a:	32ff      	adds	r2, #255	; 0xff
    153c:	0092      	lsls	r2, r2, #2
    153e:	50d1      	str	r1, [r2, r3]
    1540:	46c0      	nop			; (mov r8, r8)
    1542:	46bd      	mov	sp, r7
    1544:	b003      	add	sp, #12
    1546:	bd90      	pop	{r4, r7, pc}

00001548 <nrf_gpio_cfg_input>:
    1548:	b580      	push	{r7, lr}
    154a:	b084      	sub	sp, #16
    154c:	af02      	add	r7, sp, #8
    154e:	6078      	str	r0, [r7, #4]
    1550:	000a      	movs	r2, r1
    1552:	1cfb      	adds	r3, r7, #3
    1554:	701a      	strb	r2, [r3, #0]
    1556:	1cfb      	adds	r3, r7, #3
    1558:	781b      	ldrb	r3, [r3, #0]
    155a:	6878      	ldr	r0, [r7, #4]
    155c:	2200      	movs	r2, #0
    155e:	9201      	str	r2, [sp, #4]
    1560:	2200      	movs	r2, #0
    1562:	9200      	str	r2, [sp, #0]
    1564:	2200      	movs	r2, #0
    1566:	2100      	movs	r1, #0
    1568:	f7ff ffbe 	bl	14e8 <nrf_gpio_cfg>
    156c:	46c0      	nop			; (mov r8, r8)
    156e:	46bd      	mov	sp, r7
    1570:	b002      	add	sp, #8
    1572:	bd80      	pop	{r7, pc}

00001574 <nrf_gpio_pin_read>:
    1574:	b580      	push	{r7, lr}
    1576:	b082      	sub	sp, #8
    1578:	af00      	add	r7, sp, #0
    157a:	6078      	str	r0, [r7, #4]
    157c:	23a0      	movs	r3, #160	; 0xa0
    157e:	05da      	lsls	r2, r3, #23
    1580:	23a2      	movs	r3, #162	; 0xa2
    1582:	00db      	lsls	r3, r3, #3
    1584:	58d2      	ldr	r2, [r2, r3]
    1586:	687b      	ldr	r3, [r7, #4]
    1588:	40da      	lsrs	r2, r3
    158a:	0013      	movs	r3, r2
    158c:	2201      	movs	r2, #1
    158e:	4013      	ands	r3, r2
    1590:	0018      	movs	r0, r3
    1592:	46bd      	mov	sp, r7
    1594:	b002      	add	sp, #8
    1596:	bd80      	pop	{r7, pc}

00001598 <button_init>:
    1598:	b580      	push	{r7, lr}
    159a:	af00      	add	r7, sp, #0
    159c:	2100      	movs	r1, #0
    159e:	2011      	movs	r0, #17
    15a0:	f7ff ffd2 	bl	1548 <nrf_gpio_cfg_input>
    15a4:	2100      	movs	r1, #0
    15a6:	201a      	movs	r0, #26
    15a8:	f7ff ffce 	bl	1548 <nrf_gpio_cfg_input>
    15ac:	46c0      	nop			; (mov r8, r8)
    15ae:	46bd      	mov	sp, r7
    15b0:	bd80      	pop	{r7, pc}
	...

000015b4 <button_get_state>:
    15b4:	b580      	push	{r7, lr}
    15b6:	b084      	sub	sp, #16
    15b8:	af00      	add	r7, sp, #0
    15ba:	0002      	movs	r2, r0
    15bc:	1dfb      	adds	r3, r7, #7
    15be:	701a      	strb	r2, [r3, #0]
    15c0:	2300      	movs	r3, #0
    15c2:	60fb      	str	r3, [r7, #12]
    15c4:	1dfb      	adds	r3, r7, #7
    15c6:	781b      	ldrb	r3, [r3, #0]
    15c8:	2b00      	cmp	r3, #0
    15ca:	d009      	beq.n	15e0 <button_get_state+0x2c>
    15cc:	1dfb      	adds	r3, r7, #7
    15ce:	781b      	ldrb	r3, [r3, #0]
    15d0:	2b01      	cmp	r3, #1
    15d2:	d005      	beq.n	15e0 <button_get_state+0x2c>
    15d4:	4b0c      	ldr	r3, [pc, #48]	; (1608 <button_get_state+0x54>)
    15d6:	4a0d      	ldr	r2, [pc, #52]	; (160c <button_get_state+0x58>)
    15d8:	480d      	ldr	r0, [pc, #52]	; (1610 <button_get_state+0x5c>)
    15da:	2118      	movs	r1, #24
    15dc:	f001 fe1e 	bl	321c <__assert_func>
    15e0:	1dfb      	adds	r3, r7, #7
    15e2:	781b      	ldrb	r3, [r3, #0]
    15e4:	2b00      	cmp	r3, #0
    15e6:	d101      	bne.n	15ec <button_get_state+0x38>
    15e8:	2311      	movs	r3, #17
    15ea:	e000      	b.n	15ee <button_get_state+0x3a>
    15ec:	231a      	movs	r3, #26
    15ee:	60fb      	str	r3, [r7, #12]
    15f0:	68fb      	ldr	r3, [r7, #12]
    15f2:	0018      	movs	r0, r3
    15f4:	f7ff ffbe 	bl	1574 <nrf_gpio_pin_read>
    15f8:	0003      	movs	r3, r0
    15fa:	425a      	negs	r2, r3
    15fc:	4153      	adcs	r3, r2
    15fe:	b2db      	uxtb	r3, r3
    1600:	0018      	movs	r0, r3
    1602:	46bd      	mov	sp, r7
    1604:	b004      	add	sp, #16
    1606:	bd80      	pop	{r7, pc}
    1608:	00005bec 	.word	0x00005bec
    160c:	00005c2c 	.word	0x00005c2c
    1610:	00005c18 	.word	0x00005c18

00001614 <nrf_gpio_cfg>:
    1614:	b590      	push	{r4, r7, lr}
    1616:	b083      	sub	sp, #12
    1618:	af00      	add	r7, sp, #0
    161a:	6078      	str	r0, [r7, #4]
    161c:	000c      	movs	r4, r1
    161e:	0010      	movs	r0, r2
    1620:	0019      	movs	r1, r3
    1622:	1cfb      	adds	r3, r7, #3
    1624:	1c22      	adds	r2, r4, #0
    1626:	701a      	strb	r2, [r3, #0]
    1628:	1cbb      	adds	r3, r7, #2
    162a:	1c02      	adds	r2, r0, #0
    162c:	701a      	strb	r2, [r3, #0]
    162e:	1c7b      	adds	r3, r7, #1
    1630:	1c0a      	adds	r2, r1, #0
    1632:	701a      	strb	r2, [r3, #0]
    1634:	1cfb      	adds	r3, r7, #3
    1636:	781a      	ldrb	r2, [r3, #0]
    1638:	1cbb      	adds	r3, r7, #2
    163a:	781b      	ldrb	r3, [r3, #0]
    163c:	005b      	lsls	r3, r3, #1
    163e:	431a      	orrs	r2, r3
    1640:	1c7b      	adds	r3, r7, #1
    1642:	781b      	ldrb	r3, [r3, #0]
    1644:	009b      	lsls	r3, r3, #2
    1646:	431a      	orrs	r2, r3
    1648:	2318      	movs	r3, #24
    164a:	18fb      	adds	r3, r7, r3
    164c:	781b      	ldrb	r3, [r3, #0]
    164e:	021b      	lsls	r3, r3, #8
    1650:	431a      	orrs	r2, r3
    1652:	0011      	movs	r1, r2
    1654:	231c      	movs	r3, #28
    1656:	18fb      	adds	r3, r7, r3
    1658:	781b      	ldrb	r3, [r3, #0]
    165a:	041a      	lsls	r2, r3, #16
    165c:	23a0      	movs	r3, #160	; 0xa0
    165e:	05db      	lsls	r3, r3, #23
    1660:	4311      	orrs	r1, r2
    1662:	687a      	ldr	r2, [r7, #4]
    1664:	32c1      	adds	r2, #193	; 0xc1
    1666:	32ff      	adds	r2, #255	; 0xff
    1668:	0092      	lsls	r2, r2, #2
    166a:	50d1      	str	r1, [r2, r3]
    166c:	46c0      	nop			; (mov r8, r8)
    166e:	46bd      	mov	sp, r7
    1670:	b003      	add	sp, #12
    1672:	bd90      	pop	{r4, r7, pc}

00001674 <nrf_gpio_cfg_output>:
    1674:	b580      	push	{r7, lr}
    1676:	b084      	sub	sp, #16
    1678:	af02      	add	r7, sp, #8
    167a:	6078      	str	r0, [r7, #4]
    167c:	6878      	ldr	r0, [r7, #4]
    167e:	2300      	movs	r3, #0
    1680:	9301      	str	r3, [sp, #4]
    1682:	2300      	movs	r3, #0
    1684:	9300      	str	r3, [sp, #0]
    1686:	2300      	movs	r3, #0
    1688:	2201      	movs	r2, #1
    168a:	2101      	movs	r1, #1
    168c:	f7ff ffc2 	bl	1614 <nrf_gpio_cfg>
    1690:	46c0      	nop			; (mov r8, r8)
    1692:	46bd      	mov	sp, r7
    1694:	b002      	add	sp, #8
    1696:	bd80      	pop	{r7, pc}

00001698 <nrf_gpio_pin_set>:
    1698:	b580      	push	{r7, lr}
    169a:	b082      	sub	sp, #8
    169c:	af00      	add	r7, sp, #0
    169e:	6078      	str	r0, [r7, #4]
    16a0:	23a0      	movs	r3, #160	; 0xa0
    16a2:	05da      	lsls	r2, r3, #23
    16a4:	2101      	movs	r1, #1
    16a6:	687b      	ldr	r3, [r7, #4]
    16a8:	4099      	lsls	r1, r3
    16aa:	23a1      	movs	r3, #161	; 0xa1
    16ac:	00db      	lsls	r3, r3, #3
    16ae:	50d1      	str	r1, [r2, r3]
    16b0:	46c0      	nop			; (mov r8, r8)
    16b2:	46bd      	mov	sp, r7
    16b4:	b002      	add	sp, #8
    16b6:	bd80      	pop	{r7, pc}

000016b8 <nrf_gpio_pin_clear>:
    16b8:	b580      	push	{r7, lr}
    16ba:	b082      	sub	sp, #8
    16bc:	af00      	add	r7, sp, #0
    16be:	6078      	str	r0, [r7, #4]
    16c0:	23a0      	movs	r3, #160	; 0xa0
    16c2:	05db      	lsls	r3, r3, #23
    16c4:	2101      	movs	r1, #1
    16c6:	687a      	ldr	r2, [r7, #4]
    16c8:	4091      	lsls	r1, r2
    16ca:	000a      	movs	r2, r1
    16cc:	4902      	ldr	r1, [pc, #8]	; (16d8 <nrf_gpio_pin_clear+0x20>)
    16ce:	505a      	str	r2, [r3, r1]
    16d0:	46c0      	nop			; (mov r8, r8)
    16d2:	46bd      	mov	sp, r7
    16d4:	b002      	add	sp, #8
    16d6:	bd80      	pop	{r7, pc}
    16d8:	0000050c 	.word	0x0000050c

000016dc <nrf_gpio_pin_write>:
    16dc:	b580      	push	{r7, lr}
    16de:	b082      	sub	sp, #8
    16e0:	af00      	add	r7, sp, #0
    16e2:	6078      	str	r0, [r7, #4]
    16e4:	6039      	str	r1, [r7, #0]
    16e6:	683b      	ldr	r3, [r7, #0]
    16e8:	2b00      	cmp	r3, #0
    16ea:	d104      	bne.n	16f6 <nrf_gpio_pin_write+0x1a>
    16ec:	687b      	ldr	r3, [r7, #4]
    16ee:	0018      	movs	r0, r3
    16f0:	f7ff ffe2 	bl	16b8 <nrf_gpio_pin_clear>
    16f4:	e003      	b.n	16fe <nrf_gpio_pin_write+0x22>
    16f6:	687b      	ldr	r3, [r7, #4]
    16f8:	0018      	movs	r0, r3
    16fa:	f7ff ffcd 	bl	1698 <nrf_gpio_pin_set>
    16fe:	46c0      	nop			; (mov r8, r8)
    1700:	46bd      	mov	sp, r7
    1702:	b002      	add	sp, #8
    1704:	bd80      	pop	{r7, pc}
	...

00001708 <led_matrix_init>:
    1708:	b580      	push	{r7, lr}
    170a:	b082      	sub	sp, #8
    170c:	af00      	add	r7, sp, #0
    170e:	1dfb      	adds	r3, r7, #7
    1710:	2200      	movs	r2, #0
    1712:	701a      	strb	r2, [r3, #0]
    1714:	e009      	b.n	172a <led_matrix_init+0x22>
    1716:	1dfb      	adds	r3, r7, #7
    1718:	781b      	ldrb	r3, [r3, #0]
    171a:	4a1d      	ldr	r2, [pc, #116]	; (1790 <led_matrix_init+0x88>)
    171c:	2100      	movs	r1, #0
    171e:	54d1      	strb	r1, [r2, r3]
    1720:	1dfb      	adds	r3, r7, #7
    1722:	781a      	ldrb	r2, [r3, #0]
    1724:	1dfb      	adds	r3, r7, #7
    1726:	3201      	adds	r2, #1
    1728:	701a      	strb	r2, [r3, #0]
    172a:	1dfb      	adds	r3, r7, #7
    172c:	781b      	ldrb	r3, [r3, #0]
    172e:	2b18      	cmp	r3, #24
    1730:	d9f1      	bls.n	1716 <led_matrix_init+0xe>
    1732:	1dfb      	adds	r3, r7, #7
    1734:	2200      	movs	r2, #0
    1736:	701a      	strb	r2, [r3, #0]
    1738:	e00c      	b.n	1754 <led_matrix_init+0x4c>
    173a:	1dfb      	adds	r3, r7, #7
    173c:	781a      	ldrb	r2, [r3, #0]
    173e:	4b15      	ldr	r3, [pc, #84]	; (1794 <led_matrix_init+0x8c>)
    1740:	0092      	lsls	r2, r2, #2
    1742:	58d3      	ldr	r3, [r2, r3]
    1744:	0018      	movs	r0, r3
    1746:	f7ff ff95 	bl	1674 <nrf_gpio_cfg_output>
    174a:	1dfb      	adds	r3, r7, #7
    174c:	781a      	ldrb	r2, [r3, #0]
    174e:	1dfb      	adds	r3, r7, #7
    1750:	3201      	adds	r2, #1
    1752:	701a      	strb	r2, [r3, #0]
    1754:	1dfb      	adds	r3, r7, #7
    1756:	781b      	ldrb	r3, [r3, #0]
    1758:	2b08      	cmp	r3, #8
    175a:	d9ee      	bls.n	173a <led_matrix_init+0x32>
    175c:	1dfb      	adds	r3, r7, #7
    175e:	2200      	movs	r2, #0
    1760:	701a      	strb	r2, [r3, #0]
    1762:	e00c      	b.n	177e <led_matrix_init+0x76>
    1764:	1dfb      	adds	r3, r7, #7
    1766:	781a      	ldrb	r2, [r3, #0]
    1768:	4b0b      	ldr	r3, [pc, #44]	; (1798 <led_matrix_init+0x90>)
    176a:	0092      	lsls	r2, r2, #2
    176c:	58d3      	ldr	r3, [r2, r3]
    176e:	0018      	movs	r0, r3
    1770:	f7ff ff80 	bl	1674 <nrf_gpio_cfg_output>
    1774:	1dfb      	adds	r3, r7, #7
    1776:	781a      	ldrb	r2, [r3, #0]
    1778:	1dfb      	adds	r3, r7, #7
    177a:	3201      	adds	r2, #1
    177c:	701a      	strb	r2, [r3, #0]
    177e:	1dfb      	adds	r3, r7, #7
    1780:	781b      	ldrb	r3, [r3, #0]
    1782:	2b02      	cmp	r3, #2
    1784:	d9ee      	bls.n	1764 <led_matrix_init+0x5c>
    1786:	46c0      	nop			; (mov r8, r8)
    1788:	46c0      	nop			; (mov r8, r8)
    178a:	46bd      	mov	sp, r7
    178c:	b002      	add	sp, #8
    178e:	bd80      	pop	{r7, pc}
    1790:	200000ac 	.word	0x200000ac
    1794:	00005c40 	.word	0x00005c40
    1798:	00005c64 	.word	0x00005c64

0000179c <led_matrix_set_state>:
    179c:	b590      	push	{r4, r7, lr}
    179e:	b083      	sub	sp, #12
    17a0:	af00      	add	r7, sp, #0
    17a2:	0004      	movs	r4, r0
    17a4:	0008      	movs	r0, r1
    17a6:	0011      	movs	r1, r2
    17a8:	1dfb      	adds	r3, r7, #7
    17aa:	1c22      	adds	r2, r4, #0
    17ac:	701a      	strb	r2, [r3, #0]
    17ae:	1dbb      	adds	r3, r7, #6
    17b0:	1c02      	adds	r2, r0, #0
    17b2:	701a      	strb	r2, [r3, #0]
    17b4:	1d7b      	adds	r3, r7, #5
    17b6:	1c0a      	adds	r2, r1, #0
    17b8:	701a      	strb	r2, [r3, #0]
    17ba:	1dfb      	adds	r3, r7, #7
    17bc:	781b      	ldrb	r3, [r3, #0]
    17be:	2b04      	cmp	r3, #4
    17c0:	d803      	bhi.n	17ca <led_matrix_set_state+0x2e>
    17c2:	1dbb      	adds	r3, r7, #6
    17c4:	781b      	ldrb	r3, [r3, #0]
    17c6:	2b04      	cmp	r3, #4
    17c8:	d905      	bls.n	17d6 <led_matrix_set_state+0x3a>
    17ca:	4b0b      	ldr	r3, [pc, #44]	; (17f8 <led_matrix_set_state+0x5c>)
    17cc:	4a0b      	ldr	r2, [pc, #44]	; (17fc <led_matrix_set_state+0x60>)
    17ce:	480c      	ldr	r0, [pc, #48]	; (1800 <led_matrix_set_state+0x64>)
    17d0:	212a      	movs	r1, #42	; 0x2a
    17d2:	f001 fd23 	bl	321c <__assert_func>
    17d6:	1dbb      	adds	r3, r7, #6
    17d8:	781a      	ldrb	r2, [r3, #0]
    17da:	0013      	movs	r3, r2
    17dc:	009b      	lsls	r3, r3, #2
    17de:	189a      	adds	r2, r3, r2
    17e0:	1dfb      	adds	r3, r7, #7
    17e2:	781b      	ldrb	r3, [r3, #0]
    17e4:	18d3      	adds	r3, r2, r3
    17e6:	4a07      	ldr	r2, [pc, #28]	; (1804 <led_matrix_set_state+0x68>)
    17e8:	1d79      	adds	r1, r7, #5
    17ea:	7809      	ldrb	r1, [r1, #0]
    17ec:	54d1      	strb	r1, [r2, r3]
    17ee:	46c0      	nop			; (mov r8, r8)
    17f0:	46bd      	mov	sp, r7
    17f2:	b003      	add	sp, #12
    17f4:	bd90      	pop	{r4, r7, pc}
    17f6:	46c0      	nop			; (mov r8, r8)
    17f8:	00005ce0 	.word	0x00005ce0
    17fc:	00005d08 	.word	0x00005d08
    1800:	00005cf0 	.word	0x00005cf0
    1804:	200000ac 	.word	0x200000ac

00001808 <led_matrix_update>:
    1808:	b580      	push	{r7, lr}
    180a:	b082      	sub	sp, #8
    180c:	af00      	add	r7, sp, #0
    180e:	1d7b      	adds	r3, r7, #5
    1810:	2200      	movs	r2, #0
    1812:	701a      	strb	r2, [r3, #0]
    1814:	1dfb      	adds	r3, r7, #7
    1816:	2200      	movs	r2, #0
    1818:	701a      	strb	r2, [r3, #0]
    181a:	e047      	b.n	18ac <led_matrix_update+0xa4>
    181c:	1dbb      	adds	r3, r7, #6
    181e:	2200      	movs	r2, #0
    1820:	701a      	strb	r2, [r3, #0]
    1822:	e01f      	b.n	1864 <led_matrix_update+0x5c>
    1824:	1d7b      	adds	r3, r7, #5
    1826:	781b      	ldrb	r3, [r3, #0]
    1828:	1d7a      	adds	r2, r7, #5
    182a:	1c59      	adds	r1, r3, #1
    182c:	7011      	strb	r1, [r2, #0]
    182e:	001a      	movs	r2, r3
    1830:	4b23      	ldr	r3, [pc, #140]	; (18c0 <led_matrix_update+0xb8>)
    1832:	0092      	lsls	r2, r2, #2
    1834:	58d2      	ldr	r2, [r2, r3]
    1836:	1d3b      	adds	r3, r7, #4
    1838:	701a      	strb	r2, [r3, #0]
    183a:	1dbb      	adds	r3, r7, #6
    183c:	781a      	ldrb	r2, [r3, #0]
    183e:	4b21      	ldr	r3, [pc, #132]	; (18c4 <led_matrix_update+0xbc>)
    1840:	0092      	lsls	r2, r2, #2
    1842:	58d0      	ldr	r0, [r2, r3]
    1844:	1d3b      	adds	r3, r7, #4
    1846:	781b      	ldrb	r3, [r3, #0]
    1848:	4a1f      	ldr	r2, [pc, #124]	; (18c8 <led_matrix_update+0xc0>)
    184a:	5cd3      	ldrb	r3, [r2, r3]
    184c:	b2db      	uxtb	r3, r3
    184e:	2201      	movs	r2, #1
    1850:	4053      	eors	r3, r2
    1852:	b2db      	uxtb	r3, r3
    1854:	0019      	movs	r1, r3
    1856:	f7ff ff41 	bl	16dc <nrf_gpio_pin_write>
    185a:	1dbb      	adds	r3, r7, #6
    185c:	781a      	ldrb	r2, [r3, #0]
    185e:	1dbb      	adds	r3, r7, #6
    1860:	3201      	adds	r2, #1
    1862:	701a      	strb	r2, [r3, #0]
    1864:	1dbb      	adds	r3, r7, #6
    1866:	781a      	ldrb	r2, [r3, #0]
    1868:	1dfb      	adds	r3, r7, #7
    186a:	7819      	ldrb	r1, [r3, #0]
    186c:	4b17      	ldr	r3, [pc, #92]	; (18cc <led_matrix_update+0xc4>)
    186e:	0089      	lsls	r1, r1, #2
    1870:	58cb      	ldr	r3, [r1, r3]
    1872:	429a      	cmp	r2, r3
    1874:	dbd6      	blt.n	1824 <led_matrix_update+0x1c>
    1876:	1dfb      	adds	r3, r7, #7
    1878:	781a      	ldrb	r2, [r3, #0]
    187a:	4b15      	ldr	r3, [pc, #84]	; (18d0 <led_matrix_update+0xc8>)
    187c:	0092      	lsls	r2, r2, #2
    187e:	58d3      	ldr	r3, [r2, r3]
    1880:	0018      	movs	r0, r3
    1882:	f7ff ff09 	bl	1698 <nrf_gpio_pin_set>
    1886:	2001      	movs	r0, #1
    1888:	f001 fbac 	bl	2fe4 <nrf_delay_ms>
    188c:	1dfb      	adds	r3, r7, #7
    188e:	781a      	ldrb	r2, [r3, #0]
    1890:	4b0f      	ldr	r3, [pc, #60]	; (18d0 <led_matrix_update+0xc8>)
    1892:	0092      	lsls	r2, r2, #2
    1894:	58d3      	ldr	r3, [r2, r3]
    1896:	0018      	movs	r0, r3
    1898:	f7ff ff0e 	bl	16b8 <nrf_gpio_pin_clear>
    189c:	2001      	movs	r0, #1
    189e:	f001 fba1 	bl	2fe4 <nrf_delay_ms>
    18a2:	1dfb      	adds	r3, r7, #7
    18a4:	781a      	ldrb	r2, [r3, #0]
    18a6:	1dfb      	adds	r3, r7, #7
    18a8:	3201      	adds	r2, #1
    18aa:	701a      	strb	r2, [r3, #0]
    18ac:	1dfb      	adds	r3, r7, #7
    18ae:	781b      	ldrb	r3, [r3, #0]
    18b0:	2b02      	cmp	r3, #2
    18b2:	d9b3      	bls.n	181c <led_matrix_update+0x14>
    18b4:	46c0      	nop			; (mov r8, r8)
    18b6:	46c0      	nop			; (mov r8, r8)
    18b8:	46bd      	mov	sp, r7
    18ba:	b002      	add	sp, #8
    18bc:	bd80      	pop	{r7, pc}
    18be:	46c0      	nop			; (mov r8, r8)
    18c0:	00005c7c 	.word	0x00005c7c
    18c4:	00005c40 	.word	0x00005c40
    18c8:	200000ac 	.word	0x200000ac
    18cc:	00005c70 	.word	0x00005c70
    18d0:	00005c64 	.word	0x00005c64

000018d4 <led_matrix_clear>:
    18d4:	b580      	push	{r7, lr}
    18d6:	b082      	sub	sp, #8
    18d8:	af00      	add	r7, sp, #0
    18da:	1dfb      	adds	r3, r7, #7
    18dc:	2200      	movs	r2, #0
    18de:	701a      	strb	r2, [r3, #0]
    18e0:	e019      	b.n	1916 <led_matrix_clear+0x42>
    18e2:	1dbb      	adds	r3, r7, #6
    18e4:	2200      	movs	r2, #0
    18e6:	701a      	strb	r2, [r3, #0]
    18e8:	e00c      	b.n	1904 <led_matrix_clear+0x30>
    18ea:	1dbb      	adds	r3, r7, #6
    18ec:	7819      	ldrb	r1, [r3, #0]
    18ee:	1dfb      	adds	r3, r7, #7
    18f0:	781b      	ldrb	r3, [r3, #0]
    18f2:	2200      	movs	r2, #0
    18f4:	0018      	movs	r0, r3
    18f6:	f7ff ff51 	bl	179c <led_matrix_set_state>
    18fa:	1dfb      	adds	r3, r7, #7
    18fc:	781a      	ldrb	r2, [r3, #0]
    18fe:	1dfb      	adds	r3, r7, #7
    1900:	3201      	adds	r2, #1
    1902:	701a      	strb	r2, [r3, #0]
    1904:	1dbb      	adds	r3, r7, #6
    1906:	781b      	ldrb	r3, [r3, #0]
    1908:	2b04      	cmp	r3, #4
    190a:	d9ee      	bls.n	18ea <led_matrix_clear+0x16>
    190c:	1dfb      	adds	r3, r7, #7
    190e:	781a      	ldrb	r2, [r3, #0]
    1910:	1dfb      	adds	r3, r7, #7
    1912:	3201      	adds	r2, #1
    1914:	701a      	strb	r2, [r3, #0]
    1916:	1dfb      	adds	r3, r7, #7
    1918:	781b      	ldrb	r3, [r3, #0]
    191a:	2b04      	cmp	r3, #4
    191c:	d9e1      	bls.n	18e2 <led_matrix_clear+0xe>
    191e:	46c0      	nop			; (mov r8, r8)
    1920:	46c0      	nop			; (mov r8, r8)
    1922:	46bd      	mov	sp, r7
    1924:	b002      	add	sp, #8
    1926:	bd80      	pop	{r7, pc}

00001928 <led_matrix_display_symbol>:
    1928:	b590      	push	{r4, r7, lr}
    192a:	b085      	sub	sp, #20
    192c:	af00      	add	r7, sp, #0
    192e:	0002      	movs	r2, r0
    1930:	1dfb      	adds	r3, r7, #7
    1932:	701a      	strb	r2, [r3, #0]
    1934:	1dfb      	adds	r3, r7, #7
    1936:	781b      	ldrb	r3, [r3, #0]
    1938:	b25b      	sxtb	r3, r3
    193a:	2b02      	cmp	r3, #2
    193c:	d050      	beq.n	19e0 <led_matrix_display_symbol+0xb8>
    193e:	dd00      	ble.n	1942 <led_matrix_display_symbol+0x1a>
    1940:	e081      	b.n	1a46 <led_matrix_display_symbol+0x11e>
    1942:	1c5a      	adds	r2, r3, #1
    1944:	d002      	beq.n	194c <led_matrix_display_symbol+0x24>
    1946:	2b01      	cmp	r3, #1
    1948:	d019      	beq.n	197e <led_matrix_display_symbol+0x56>
    194a:	e07c      	b.n	1a46 <led_matrix_display_symbol+0x11e>
    194c:	230f      	movs	r3, #15
    194e:	18fb      	adds	r3, r7, r3
    1950:	2200      	movs	r2, #0
    1952:	701a      	strb	r2, [r3, #0]
    1954:	e00d      	b.n	1972 <led_matrix_display_symbol+0x4a>
    1956:	240f      	movs	r4, #15
    1958:	193b      	adds	r3, r7, r4
    195a:	781b      	ldrb	r3, [r3, #0]
    195c:	2201      	movs	r2, #1
    195e:	2102      	movs	r1, #2
    1960:	0018      	movs	r0, r3
    1962:	f7ff ff1b 	bl	179c <led_matrix_set_state>
    1966:	0021      	movs	r1, r4
    1968:	187b      	adds	r3, r7, r1
    196a:	781a      	ldrb	r2, [r3, #0]
    196c:	187b      	adds	r3, r7, r1
    196e:	3201      	adds	r2, #1
    1970:	701a      	strb	r2, [r3, #0]
    1972:	230f      	movs	r3, #15
    1974:	18fb      	adds	r3, r7, r3
    1976:	781b      	ldrb	r3, [r3, #0]
    1978:	2b04      	cmp	r3, #4
    197a:	d9ec      	bls.n	1956 <led_matrix_display_symbol+0x2e>
    197c:	e063      	b.n	1a46 <led_matrix_display_symbol+0x11e>
    197e:	230e      	movs	r3, #14
    1980:	18fb      	adds	r3, r7, r3
    1982:	2200      	movs	r2, #0
    1984:	701a      	strb	r2, [r3, #0]
    1986:	e00d      	b.n	19a4 <led_matrix_display_symbol+0x7c>
    1988:	240e      	movs	r4, #14
    198a:	193b      	adds	r3, r7, r4
    198c:	781b      	ldrb	r3, [r3, #0]
    198e:	2201      	movs	r2, #1
    1990:	0019      	movs	r1, r3
    1992:	2002      	movs	r0, #2
    1994:	f7ff ff02 	bl	179c <led_matrix_set_state>
    1998:	0021      	movs	r1, r4
    199a:	187b      	adds	r3, r7, r1
    199c:	781a      	ldrb	r2, [r3, #0]
    199e:	187b      	adds	r3, r7, r1
    19a0:	3201      	adds	r2, #1
    19a2:	701a      	strb	r2, [r3, #0]
    19a4:	230e      	movs	r3, #14
    19a6:	18fb      	adds	r3, r7, r3
    19a8:	781b      	ldrb	r3, [r3, #0]
    19aa:	2b04      	cmp	r3, #4
    19ac:	d9ec      	bls.n	1988 <led_matrix_display_symbol+0x60>
    19ae:	230d      	movs	r3, #13
    19b0:	18fb      	adds	r3, r7, r3
    19b2:	2200      	movs	r2, #0
    19b4:	701a      	strb	r2, [r3, #0]
    19b6:	e00d      	b.n	19d4 <led_matrix_display_symbol+0xac>
    19b8:	240d      	movs	r4, #13
    19ba:	193b      	adds	r3, r7, r4
    19bc:	781b      	ldrb	r3, [r3, #0]
    19be:	2201      	movs	r2, #1
    19c0:	2102      	movs	r1, #2
    19c2:	0018      	movs	r0, r3
    19c4:	f7ff feea 	bl	179c <led_matrix_set_state>
    19c8:	0021      	movs	r1, r4
    19ca:	187b      	adds	r3, r7, r1
    19cc:	781a      	ldrb	r2, [r3, #0]
    19ce:	187b      	adds	r3, r7, r1
    19d0:	3201      	adds	r2, #1
    19d2:	701a      	strb	r2, [r3, #0]
    19d4:	230d      	movs	r3, #13
    19d6:	18fb      	adds	r3, r7, r3
    19d8:	781b      	ldrb	r3, [r3, #0]
    19da:	2b04      	cmp	r3, #4
    19dc:	d9ec      	bls.n	19b8 <led_matrix_display_symbol+0x90>
    19de:	e032      	b.n	1a46 <led_matrix_display_symbol+0x11e>
    19e0:	2201      	movs	r2, #1
    19e2:	2100      	movs	r1, #0
    19e4:	2001      	movs	r0, #1
    19e6:	f7ff fed9 	bl	179c <led_matrix_set_state>
    19ea:	2201      	movs	r2, #1
    19ec:	2100      	movs	r1, #0
    19ee:	2003      	movs	r0, #3
    19f0:	f7ff fed4 	bl	179c <led_matrix_set_state>
    19f4:	2201      	movs	r2, #1
    19f6:	2101      	movs	r1, #1
    19f8:	2000      	movs	r0, #0
    19fa:	f7ff fecf 	bl	179c <led_matrix_set_state>
    19fe:	2201      	movs	r2, #1
    1a00:	2101      	movs	r1, #1
    1a02:	2002      	movs	r0, #2
    1a04:	f7ff feca 	bl	179c <led_matrix_set_state>
    1a08:	2201      	movs	r2, #1
    1a0a:	2101      	movs	r1, #1
    1a0c:	2004      	movs	r0, #4
    1a0e:	f7ff fec5 	bl	179c <led_matrix_set_state>
    1a12:	2201      	movs	r2, #1
    1a14:	2102      	movs	r1, #2
    1a16:	2000      	movs	r0, #0
    1a18:	f7ff fec0 	bl	179c <led_matrix_set_state>
    1a1c:	2201      	movs	r2, #1
    1a1e:	2102      	movs	r1, #2
    1a20:	2004      	movs	r0, #4
    1a22:	f7ff febb 	bl	179c <led_matrix_set_state>
    1a26:	2201      	movs	r2, #1
    1a28:	2103      	movs	r1, #3
    1a2a:	2001      	movs	r0, #1
    1a2c:	f7ff feb6 	bl	179c <led_matrix_set_state>
    1a30:	2201      	movs	r2, #1
    1a32:	2103      	movs	r1, #3
    1a34:	2003      	movs	r0, #3
    1a36:	f7ff feb1 	bl	179c <led_matrix_set_state>
    1a3a:	2201      	movs	r2, #1
    1a3c:	2104      	movs	r1, #4
    1a3e:	2002      	movs	r0, #2
    1a40:	f7ff feac 	bl	179c <led_matrix_set_state>
    1a44:	46c0      	nop			; (mov r8, r8)
    1a46:	46c0      	nop			; (mov r8, r8)
    1a48:	46bd      	mov	sp, r7
    1a4a:	b005      	add	sp, #20
    1a4c:	bd90      	pop	{r4, r7, pc}

00001a4e <compass_init>:
    1a4e:	b580      	push	{r7, lr}
    1a50:	b082      	sub	sp, #8
    1a52:	af00      	add	r7, sp, #0
    1a54:	1dfb      	adds	r3, r7, #7
    1a56:	2200      	movs	r2, #0
    1a58:	701a      	strb	r2, [r3, #0]
    1a5a:	1dfa      	adds	r2, r7, #7
    1a5c:	2301      	movs	r3, #1
    1a5e:	2160      	movs	r1, #96	; 0x60
    1a60:	201e      	movs	r0, #30
    1a62:	f7fe fdc3 	bl	5ec <i2c_write>
    1a66:	46c0      	nop			; (mov r8, r8)
    1a68:	46bd      	mov	sp, r7
    1a6a:	b002      	add	sp, #8
    1a6c:	bd80      	pop	{r7, pc}
	...

00001a70 <read_magnetometer_y>:
    1a70:	b5f0      	push	{r4, r5, r6, r7, lr}
    1a72:	b085      	sub	sp, #20
    1a74:	af00      	add	r7, sp, #0
    1a76:	230e      	movs	r3, #14
    1a78:	18fb      	adds	r3, r7, r3
    1a7a:	2200      	movs	r2, #0
    1a7c:	801a      	strh	r2, [r3, #0]
    1a7e:	230c      	movs	r3, #12
    1a80:	18fb      	adds	r3, r7, r3
    1a82:	2200      	movs	r2, #0
    1a84:	801a      	strh	r2, [r3, #0]
    1a86:	230a      	movs	r3, #10
    1a88:	18fb      	adds	r3, r7, r3
    1a8a:	2200      	movs	r2, #0
    1a8c:	801a      	strh	r2, [r3, #0]
    1a8e:	1dfb      	adds	r3, r7, #7
    1a90:	2200      	movs	r2, #0
    1a92:	701a      	strb	r2, [r3, #0]
    1a94:	1dfa      	adds	r2, r7, #7
    1a96:	2301      	movs	r3, #1
    1a98:	2167      	movs	r1, #103	; 0x67
    1a9a:	201e      	movs	r0, #30
    1a9c:	f7fe fe00 	bl	6a0 <i2c_read>
    1aa0:	1dfb      	adds	r3, r7, #7
    1aa2:	781b      	ldrb	r3, [r3, #0]
    1aa4:	001a      	movs	r2, r3
    1aa6:	230f      	movs	r3, #15
    1aa8:	4013      	ands	r3, r2
    1aaa:	2b0f      	cmp	r3, #15
    1aac:	d14a      	bne.n	1b44 <read_magnetometer_y+0xd4>
    1aae:	2408      	movs	r4, #8
    1ab0:	193a      	adds	r2, r7, r4
    1ab2:	2302      	movs	r3, #2
    1ab4:	2168      	movs	r1, #104	; 0x68
    1ab6:	201e      	movs	r0, #30
    1ab8:	f7fe fdf2 	bl	6a0 <i2c_read>
    1abc:	0020      	movs	r0, r4
    1abe:	183b      	adds	r3, r7, r0
    1ac0:	785b      	ldrb	r3, [r3, #1]
    1ac2:	021b      	lsls	r3, r3, #8
    1ac4:	b219      	sxth	r1, r3
    1ac6:	183b      	adds	r3, r7, r0
    1ac8:	781b      	ldrb	r3, [r3, #0]
    1aca:	b21a      	sxth	r2, r3
    1acc:	250c      	movs	r5, #12
    1ace:	197b      	adds	r3, r7, r5
    1ad0:	430a      	orrs	r2, r1
    1ad2:	801a      	strh	r2, [r3, #0]
    1ad4:	0004      	movs	r4, r0
    1ad6:	183a      	adds	r2, r7, r0
    1ad8:	2302      	movs	r3, #2
    1ada:	216a      	movs	r1, #106	; 0x6a
    1adc:	201e      	movs	r0, #30
    1ade:	f7fe fddf 	bl	6a0 <i2c_read>
    1ae2:	0020      	movs	r0, r4
    1ae4:	183b      	adds	r3, r7, r0
    1ae6:	785b      	ldrb	r3, [r3, #1]
    1ae8:	021b      	lsls	r3, r3, #8
    1aea:	b219      	sxth	r1, r3
    1aec:	183b      	adds	r3, r7, r0
    1aee:	781b      	ldrb	r3, [r3, #0]
    1af0:	b21a      	sxth	r2, r3
    1af2:	260e      	movs	r6, #14
    1af4:	19bb      	adds	r3, r7, r6
    1af6:	430a      	orrs	r2, r1
    1af8:	801a      	strh	r2, [r3, #0]
    1afa:	0004      	movs	r4, r0
    1afc:	183a      	adds	r2, r7, r0
    1afe:	2302      	movs	r3, #2
    1b00:	216c      	movs	r1, #108	; 0x6c
    1b02:	201e      	movs	r0, #30
    1b04:	f7fe fdcc 	bl	6a0 <i2c_read>
    1b08:	0020      	movs	r0, r4
    1b0a:	183b      	adds	r3, r7, r0
    1b0c:	785b      	ldrb	r3, [r3, #1]
    1b0e:	021b      	lsls	r3, r3, #8
    1b10:	b219      	sxth	r1, r3
    1b12:	183b      	adds	r3, r7, r0
    1b14:	781b      	ldrb	r3, [r3, #0]
    1b16:	b21a      	sxth	r2, r3
    1b18:	200a      	movs	r0, #10
    1b1a:	183b      	adds	r3, r7, r0
    1b1c:	430a      	orrs	r2, r1
    1b1e:	801a      	strh	r2, [r3, #0]
    1b20:	4b0f      	ldr	r3, [pc, #60]	; (1b60 <read_magnetometer_y+0xf0>)
    1b22:	781b      	ldrb	r3, [r3, #0]
    1b24:	3301      	adds	r3, #1
    1b26:	b2da      	uxtb	r2, r3
    1b28:	4b0d      	ldr	r3, [pc, #52]	; (1b60 <read_magnetometer_y+0xf0>)
    1b2a:	701a      	strb	r2, [r3, #0]
    1b2c:	197b      	adds	r3, r7, r5
    1b2e:	2100      	movs	r1, #0
    1b30:	5e59      	ldrsh	r1, [r3, r1]
    1b32:	19bb      	adds	r3, r7, r6
    1b34:	2200      	movs	r2, #0
    1b36:	5e9a      	ldrsh	r2, [r3, r2]
    1b38:	183b      	adds	r3, r7, r0
    1b3a:	2000      	movs	r0, #0
    1b3c:	5e1b      	ldrsh	r3, [r3, r0]
    1b3e:	4809      	ldr	r0, [pc, #36]	; (1b64 <read_magnetometer_y+0xf4>)
    1b40:	f001 ff00 	bl	3944 <iprintf>
    1b44:	4b06      	ldr	r3, [pc, #24]	; (1b60 <read_magnetometer_y+0xf0>)
    1b46:	781b      	ldrb	r3, [r3, #0]
    1b48:	2b04      	cmp	r3, #4
    1b4a:	d800      	bhi.n	1b4e <read_magnetometer_y+0xde>
    1b4c:	e7a2      	b.n	1a94 <read_magnetometer_y+0x24>
    1b4e:	46c0      	nop			; (mov r8, r8)
    1b50:	230e      	movs	r3, #14
    1b52:	18fb      	adds	r3, r7, r3
    1b54:	2200      	movs	r2, #0
    1b56:	5e9b      	ldrsh	r3, [r3, r2]
    1b58:	0018      	movs	r0, r3
    1b5a:	46bd      	mov	sp, r7
    1b5c:	b005      	add	sp, #20
    1b5e:	bdf0      	pop	{r4, r5, r6, r7, pc}
    1b60:	200000c5 	.word	0x200000c5
    1b64:	00005d20 	.word	0x00005d20

00001b68 <get_orientation>:
    1b68:	b580      	push	{r7, lr}
    1b6a:	af00      	add	r7, sp, #0
    1b6c:	f7ff ff80 	bl	1a70 <read_magnetometer_y>
    1b70:	1e03      	subs	r3, r0, #0
    1b72:	da02      	bge.n	1b7a <get_orientation+0x12>
    1b74:	2301      	movs	r3, #1
    1b76:	425b      	negs	r3, r3
    1b78:	e000      	b.n	1b7c <get_orientation+0x14>
    1b7a:	2301      	movs	r3, #1
    1b7c:	0018      	movs	r0, r3
    1b7e:	46bd      	mov	sp, r7
    1b80:	bd80      	pop	{r7, pc}

00001b82 <get_light_sensors_level>:
    1b82:	b580      	push	{r7, lr}
    1b84:	b082      	sub	sp, #8
    1b86:	af00      	add	r7, sp, #0
    1b88:	2000      	movs	r0, #0
    1b8a:	f000 fecb 	bl	2924 <light_sensor_get_value>
    1b8e:	0002      	movs	r2, r0
    1b90:	1dbb      	adds	r3, r7, #6
    1b92:	801a      	strh	r2, [r3, #0]
    1b94:	2001      	movs	r0, #1
    1b96:	f000 fec5 	bl	2924 <light_sensor_get_value>
    1b9a:	0002      	movs	r2, r0
    1b9c:	1d3b      	adds	r3, r7, #4
    1b9e:	801a      	strh	r2, [r3, #0]
    1ba0:	1dbb      	adds	r3, r7, #6
    1ba2:	881a      	ldrh	r2, [r3, #0]
    1ba4:	1d3b      	adds	r3, r7, #4
    1ba6:	881b      	ldrh	r3, [r3, #0]
    1ba8:	18d3      	adds	r3, r2, r3
    1baa:	2b00      	cmp	r3, #0
    1bac:	da00      	bge.n	1bb0 <get_light_sensors_level+0x2e>
    1bae:	3301      	adds	r3, #1
    1bb0:	105b      	asrs	r3, r3, #1
    1bb2:	001a      	movs	r2, r3
    1bb4:	1cbb      	adds	r3, r7, #2
    1bb6:	801a      	strh	r2, [r3, #0]
    1bb8:	1cbb      	adds	r3, r7, #2
    1bba:	881b      	ldrh	r3, [r3, #0]
    1bbc:	2b4b      	cmp	r3, #75	; 0x4b
    1bbe:	d909      	bls.n	1bd4 <get_light_sensors_level+0x52>
    1bc0:	1dbb      	adds	r3, r7, #6
    1bc2:	881b      	ldrh	r3, [r3, #0]
    1bc4:	2b25      	cmp	r3, #37	; 0x25
    1bc6:	d905      	bls.n	1bd4 <get_light_sensors_level+0x52>
    1bc8:	1d3b      	adds	r3, r7, #4
    1bca:	881b      	ldrh	r3, [r3, #0]
    1bcc:	2b25      	cmp	r3, #37	; 0x25
    1bce:	d901      	bls.n	1bd4 <get_light_sensors_level+0x52>
    1bd0:	2301      	movs	r3, #1
    1bd2:	e000      	b.n	1bd6 <get_light_sensors_level+0x54>
    1bd4:	2300      	movs	r3, #0
    1bd6:	0018      	movs	r0, r3
    1bd8:	46bd      	mov	sp, r7
    1bda:	b002      	add	sp, #8
    1bdc:	bd80      	pop	{r7, pc}
	...

00001be0 <morse_communication>:
    1be0:	b580      	push	{r7, lr}
    1be2:	b082      	sub	sp, #8
    1be4:	af00      	add	r7, sp, #0
    1be6:	f7fe fed1 	bl	98c <timer_get_time_ms>
    1bea:	0003      	movs	r3, r0
    1bec:	607b      	str	r3, [r7, #4]
    1bee:	4b72      	ldr	r3, [pc, #456]	; (1db8 <morse_communication+0x1d8>)
    1bf0:	781b      	ldrb	r3, [r3, #0]
    1bf2:	2b06      	cmp	r3, #6
    1bf4:	d900      	bls.n	1bf8 <morse_communication+0x18>
    1bf6:	e0db      	b.n	1db0 <morse_communication+0x1d0>
    1bf8:	009a      	lsls	r2, r3, #2
    1bfa:	4b70      	ldr	r3, [pc, #448]	; (1dbc <morse_communication+0x1dc>)
    1bfc:	18d3      	adds	r3, r2, r3
    1bfe:	681b      	ldr	r3, [r3, #0]
    1c00:	469f      	mov	pc, r3
    1c02:	f7ff ffbe 	bl	1b82 <get_light_sensors_level>
    1c06:	0003      	movs	r3, r0
    1c08:	001a      	movs	r2, r3
    1c0a:	4b6d      	ldr	r3, [pc, #436]	; (1dc0 <morse_communication+0x1e0>)
    1c0c:	701a      	strb	r2, [r3, #0]
    1c0e:	4b6c      	ldr	r3, [pc, #432]	; (1dc0 <morse_communication+0x1e0>)
    1c10:	781a      	ldrb	r2, [r3, #0]
    1c12:	4b6c      	ldr	r3, [pc, #432]	; (1dc4 <morse_communication+0x1e4>)
    1c14:	781b      	ldrb	r3, [r3, #0]
    1c16:	429a      	cmp	r2, r3
    1c18:	d02b      	beq.n	1c72 <morse_communication+0x92>
    1c1a:	4b6b      	ldr	r3, [pc, #428]	; (1dc8 <morse_communication+0x1e8>)
    1c1c:	781b      	ldrb	r3, [r3, #0]
    1c1e:	2b00      	cmp	r3, #0
    1c20:	d11c      	bne.n	1c5c <morse_communication+0x7c>
    1c22:	4b6a      	ldr	r3, [pc, #424]	; (1dcc <morse_communication+0x1ec>)
    1c24:	681b      	ldr	r3, [r3, #0]
    1c26:	687a      	ldr	r2, [r7, #4]
    1c28:	1ad3      	subs	r3, r2, r3
    1c2a:	2bc7      	cmp	r3, #199	; 0xc7
    1c2c:	d803      	bhi.n	1c36 <morse_communication+0x56>
    1c2e:	4b62      	ldr	r3, [pc, #392]	; (1db8 <morse_communication+0x1d8>)
    1c30:	2204      	movs	r2, #4
    1c32:	701a      	strb	r2, [r3, #0]
    1c34:	e015      	b.n	1c62 <morse_communication+0x82>
    1c36:	4b65      	ldr	r3, [pc, #404]	; (1dcc <morse_communication+0x1ec>)
    1c38:	681b      	ldr	r3, [r3, #0]
    1c3a:	687a      	ldr	r2, [r7, #4]
    1c3c:	1ad2      	subs	r2, r2, r3
    1c3e:	23fa      	movs	r3, #250	; 0xfa
    1c40:	005b      	lsls	r3, r3, #1
    1c42:	429a      	cmp	r2, r3
    1c44:	d203      	bcs.n	1c4e <morse_communication+0x6e>
    1c46:	4b5c      	ldr	r3, [pc, #368]	; (1db8 <morse_communication+0x1d8>)
    1c48:	2205      	movs	r2, #5
    1c4a:	701a      	strb	r2, [r3, #0]
    1c4c:	e009      	b.n	1c62 <morse_communication+0x82>
    1c4e:	4b60      	ldr	r3, [pc, #384]	; (1dd0 <morse_communication+0x1f0>)
    1c50:	2201      	movs	r2, #1
    1c52:	701a      	strb	r2, [r3, #0]
    1c54:	4b58      	ldr	r3, [pc, #352]	; (1db8 <morse_communication+0x1d8>)
    1c56:	2205      	movs	r2, #5
    1c58:	701a      	strb	r2, [r3, #0]
    1c5a:	e002      	b.n	1c62 <morse_communication+0x82>
    1c5c:	4b56      	ldr	r3, [pc, #344]	; (1db8 <morse_communication+0x1d8>)
    1c5e:	2201      	movs	r2, #1
    1c60:	701a      	strb	r2, [r3, #0]
    1c62:	4b5a      	ldr	r3, [pc, #360]	; (1dcc <morse_communication+0x1ec>)
    1c64:	687a      	ldr	r2, [r7, #4]
    1c66:	601a      	str	r2, [r3, #0]
    1c68:	4b55      	ldr	r3, [pc, #340]	; (1dc0 <morse_communication+0x1e0>)
    1c6a:	781a      	ldrb	r2, [r3, #0]
    1c6c:	4b55      	ldr	r3, [pc, #340]	; (1dc4 <morse_communication+0x1e4>)
    1c6e:	701a      	strb	r2, [r3, #0]
    1c70:	e09b      	b.n	1daa <morse_communication+0x1ca>
    1c72:	4b56      	ldr	r3, [pc, #344]	; (1dcc <morse_communication+0x1ec>)
    1c74:	681b      	ldr	r3, [r3, #0]
    1c76:	687a      	ldr	r2, [r7, #4]
    1c78:	1ad2      	subs	r2, r2, r3
    1c7a:	23fa      	movs	r3, #250	; 0xfa
    1c7c:	005b      	lsls	r3, r3, #1
    1c7e:	429a      	cmp	r2, r3
    1c80:	d800      	bhi.n	1c84 <morse_communication+0xa4>
    1c82:	e092      	b.n	1daa <morse_communication+0x1ca>
    1c84:	4b50      	ldr	r3, [pc, #320]	; (1dc8 <morse_communication+0x1e8>)
    1c86:	781b      	ldrb	r3, [r3, #0]
    1c88:	2b00      	cmp	r3, #0
    1c8a:	d000      	beq.n	1c8e <morse_communication+0xae>
    1c8c:	e08d      	b.n	1daa <morse_communication+0x1ca>
    1c8e:	4b50      	ldr	r3, [pc, #320]	; (1dd0 <morse_communication+0x1f0>)
    1c90:	2201      	movs	r2, #1
    1c92:	701a      	strb	r2, [r3, #0]
    1c94:	4b48      	ldr	r3, [pc, #288]	; (1db8 <morse_communication+0x1d8>)
    1c96:	2205      	movs	r2, #5
    1c98:	701a      	strb	r2, [r3, #0]
    1c9a:	e086      	b.n	1daa <morse_communication+0x1ca>
    1c9c:	f7ff ff71 	bl	1b82 <get_light_sensors_level>
    1ca0:	0003      	movs	r3, r0
    1ca2:	001a      	movs	r2, r3
    1ca4:	4b46      	ldr	r3, [pc, #280]	; (1dc0 <morse_communication+0x1e0>)
    1ca6:	701a      	strb	r2, [r3, #0]
    1ca8:	4b45      	ldr	r3, [pc, #276]	; (1dc0 <morse_communication+0x1e0>)
    1caa:	781a      	ldrb	r2, [r3, #0]
    1cac:	4b45      	ldr	r3, [pc, #276]	; (1dc4 <morse_communication+0x1e4>)
    1cae:	781b      	ldrb	r3, [r3, #0]
    1cb0:	429a      	cmp	r2, r3
    1cb2:	d100      	bne.n	1cb6 <morse_communication+0xd6>
    1cb4:	e07b      	b.n	1dae <morse_communication+0x1ce>
    1cb6:	4b45      	ldr	r3, [pc, #276]	; (1dcc <morse_communication+0x1ec>)
    1cb8:	681b      	ldr	r3, [r3, #0]
    1cba:	687a      	ldr	r2, [r7, #4]
    1cbc:	1ad3      	subs	r3, r2, r3
    1cbe:	2bc7      	cmp	r3, #199	; 0xc7
    1cc0:	d803      	bhi.n	1cca <morse_communication+0xea>
    1cc2:	4b3d      	ldr	r3, [pc, #244]	; (1db8 <morse_communication+0x1d8>)
    1cc4:	2202      	movs	r2, #2
    1cc6:	701a      	strb	r2, [r3, #0]
    1cc8:	e002      	b.n	1cd0 <morse_communication+0xf0>
    1cca:	4b3b      	ldr	r3, [pc, #236]	; (1db8 <morse_communication+0x1d8>)
    1ccc:	2203      	movs	r2, #3
    1cce:	701a      	strb	r2, [r3, #0]
    1cd0:	4b3d      	ldr	r3, [pc, #244]	; (1dc8 <morse_communication+0x1e8>)
    1cd2:	2200      	movs	r2, #0
    1cd4:	701a      	strb	r2, [r3, #0]
    1cd6:	4b3d      	ldr	r3, [pc, #244]	; (1dcc <morse_communication+0x1ec>)
    1cd8:	687a      	ldr	r2, [r7, #4]
    1cda:	601a      	str	r2, [r3, #0]
    1cdc:	4b38      	ldr	r3, [pc, #224]	; (1dc0 <morse_communication+0x1e0>)
    1cde:	781a      	ldrb	r2, [r3, #0]
    1ce0:	4b38      	ldr	r3, [pc, #224]	; (1dc4 <morse_communication+0x1e4>)
    1ce2:	701a      	strb	r2, [r3, #0]
    1ce4:	e063      	b.n	1dae <morse_communication+0x1ce>
    1ce6:	4b3b      	ldr	r3, [pc, #236]	; (1dd4 <morse_communication+0x1f4>)
    1ce8:	781b      	ldrb	r3, [r3, #0]
    1cea:	2201      	movs	r2, #1
    1cec:	4313      	orrs	r3, r2
    1cee:	b2da      	uxtb	r2, r3
    1cf0:	4b38      	ldr	r3, [pc, #224]	; (1dd4 <morse_communication+0x1f4>)
    1cf2:	701a      	strb	r2, [r3, #0]
    1cf4:	4b30      	ldr	r3, [pc, #192]	; (1db8 <morse_communication+0x1d8>)
    1cf6:	2200      	movs	r2, #0
    1cf8:	701a      	strb	r2, [r3, #0]
    1cfa:	e059      	b.n	1db0 <morse_communication+0x1d0>
    1cfc:	4b35      	ldr	r3, [pc, #212]	; (1dd4 <morse_communication+0x1f4>)
    1cfe:	781b      	ldrb	r3, [r3, #0]
    1d00:	2202      	movs	r2, #2
    1d02:	4313      	orrs	r3, r2
    1d04:	b2da      	uxtb	r2, r3
    1d06:	4b33      	ldr	r3, [pc, #204]	; (1dd4 <morse_communication+0x1f4>)
    1d08:	701a      	strb	r2, [r3, #0]
    1d0a:	4b2b      	ldr	r3, [pc, #172]	; (1db8 <morse_communication+0x1d8>)
    1d0c:	2200      	movs	r2, #0
    1d0e:	701a      	strb	r2, [r3, #0]
    1d10:	e04e      	b.n	1db0 <morse_communication+0x1d0>
    1d12:	4b30      	ldr	r3, [pc, #192]	; (1dd4 <morse_communication+0x1f4>)
    1d14:	781b      	ldrb	r3, [r3, #0]
    1d16:	009b      	lsls	r3, r3, #2
    1d18:	b2da      	uxtb	r2, r3
    1d1a:	4b2e      	ldr	r3, [pc, #184]	; (1dd4 <morse_communication+0x1f4>)
    1d1c:	701a      	strb	r2, [r3, #0]
    1d1e:	4b26      	ldr	r3, [pc, #152]	; (1db8 <morse_communication+0x1d8>)
    1d20:	2201      	movs	r2, #1
    1d22:	701a      	strb	r2, [r3, #0]
    1d24:	e044      	b.n	1db0 <morse_communication+0x1d0>
    1d26:	4b2b      	ldr	r3, [pc, #172]	; (1dd4 <morse_communication+0x1f4>)
    1d28:	781b      	ldrb	r3, [r3, #0]
    1d2a:	2b6a      	cmp	r3, #106	; 0x6a
    1d2c:	d10e      	bne.n	1d4c <morse_communication+0x16c>
    1d2e:	4b2a      	ldr	r3, [pc, #168]	; (1dd8 <morse_communication+0x1f8>)
    1d30:	881b      	ldrh	r3, [r3, #0]
    1d32:	1c5a      	adds	r2, r3, #1
    1d34:	b291      	uxth	r1, r2
    1d36:	4a28      	ldr	r2, [pc, #160]	; (1dd8 <morse_communication+0x1f8>)
    1d38:	8011      	strh	r1, [r2, #0]
    1d3a:	001a      	movs	r2, r3
    1d3c:	4b27      	ldr	r3, [pc, #156]	; (1ddc <morse_communication+0x1fc>)
    1d3e:	21ff      	movs	r1, #255	; 0xff
    1d40:	5499      	strb	r1, [r3, r2]
    1d42:	4b27      	ldr	r3, [pc, #156]	; (1de0 <morse_communication+0x200>)
    1d44:	0018      	movs	r0, r3
    1d46:	f001 fe89 	bl	3a5c <puts>
    1d4a:	e016      	b.n	1d7a <morse_communication+0x19a>
    1d4c:	4b21      	ldr	r3, [pc, #132]	; (1dd4 <morse_communication+0x1f4>)
    1d4e:	781b      	ldrb	r3, [r3, #0]
    1d50:	2b95      	cmp	r3, #149	; 0x95
    1d52:	d10e      	bne.n	1d72 <morse_communication+0x192>
    1d54:	4b20      	ldr	r3, [pc, #128]	; (1dd8 <morse_communication+0x1f8>)
    1d56:	881b      	ldrh	r3, [r3, #0]
    1d58:	1c5a      	adds	r2, r3, #1
    1d5a:	b291      	uxth	r1, r2
    1d5c:	4a1e      	ldr	r2, [pc, #120]	; (1dd8 <morse_communication+0x1f8>)
    1d5e:	8011      	strh	r1, [r2, #0]
    1d60:	001a      	movs	r2, r3
    1d62:	4b1e      	ldr	r3, [pc, #120]	; (1ddc <morse_communication+0x1fc>)
    1d64:	2101      	movs	r1, #1
    1d66:	5499      	strb	r1, [r3, r2]
    1d68:	4b1e      	ldr	r3, [pc, #120]	; (1de4 <morse_communication+0x204>)
    1d6a:	0018      	movs	r0, r3
    1d6c:	f001 fe76 	bl	3a5c <puts>
    1d70:	e003      	b.n	1d7a <morse_communication+0x19a>
    1d72:	4b1d      	ldr	r3, [pc, #116]	; (1de8 <morse_communication+0x208>)
    1d74:	0018      	movs	r0, r3
    1d76:	f001 fe71 	bl	3a5c <puts>
    1d7a:	4b17      	ldr	r3, [pc, #92]	; (1dd8 <morse_communication+0x1f8>)
    1d7c:	881b      	ldrh	r3, [r3, #0]
    1d7e:	2b0a      	cmp	r3, #10
    1d80:	d902      	bls.n	1d88 <morse_communication+0x1a8>
    1d82:	4b15      	ldr	r3, [pc, #84]	; (1dd8 <morse_communication+0x1f8>)
    1d84:	2200      	movs	r2, #0
    1d86:	801a      	strh	r2, [r3, #0]
    1d88:	4b11      	ldr	r3, [pc, #68]	; (1dd0 <morse_communication+0x1f0>)
    1d8a:	781b      	ldrb	r3, [r3, #0]
    1d8c:	2b01      	cmp	r3, #1
    1d8e:	d103      	bne.n	1d98 <morse_communication+0x1b8>
    1d90:	4b09      	ldr	r3, [pc, #36]	; (1db8 <morse_communication+0x1d8>)
    1d92:	2206      	movs	r2, #6
    1d94:	701a      	strb	r2, [r3, #0]
    1d96:	e002      	b.n	1d9e <morse_communication+0x1be>
    1d98:	4b07      	ldr	r3, [pc, #28]	; (1db8 <morse_communication+0x1d8>)
    1d9a:	2201      	movs	r2, #1
    1d9c:	701a      	strb	r2, [r3, #0]
    1d9e:	4b0d      	ldr	r3, [pc, #52]	; (1dd4 <morse_communication+0x1f4>)
    1da0:	2200      	movs	r2, #0
    1da2:	701a      	strb	r2, [r3, #0]
    1da4:	e004      	b.n	1db0 <morse_communication+0x1d0>
    1da6:	46c0      	nop			; (mov r8, r8)
    1da8:	e002      	b.n	1db0 <morse_communication+0x1d0>
    1daa:	46c0      	nop			; (mov r8, r8)
    1dac:	e000      	b.n	1db0 <morse_communication+0x1d0>
    1dae:	46c0      	nop			; (mov r8, r8)
    1db0:	46c0      	nop			; (mov r8, r8)
    1db2:	46bd      	mov	sp, r7
    1db4:	b002      	add	sp, #8
    1db6:	bd80      	pop	{r7, pc}
    1db8:	200000ce 	.word	0x200000ce
    1dbc:	00005d80 	.word	0x00005d80
    1dc0:	200000cc 	.word	0x200000cc
    1dc4:	200000cd 	.word	0x200000cd
    1dc8:	20000004 	.word	0x20000004
    1dcc:	200000c8 	.word	0x200000c8
    1dd0:	200000dd 	.word	0x200000dd
    1dd4:	200000dc 	.word	0x200000dc
    1dd8:	200000da 	.word	0x200000da
    1ddc:	200000d0 	.word	0x200000d0
    1de0:	00005d40 	.word	0x00005d40
    1de4:	00005d54 	.word	0x00005d54
    1de8:	00005d68 	.word	0x00005d68

00001dec <_write>:
    1dec:	b580      	push	{r7, lr}
    1dee:	b086      	sub	sp, #24
    1df0:	af00      	add	r7, sp, #0
    1df2:	60f8      	str	r0, [r7, #12]
    1df4:	60b9      	str	r1, [r7, #8]
    1df6:	607a      	str	r2, [r7, #4]
    1df8:	2300      	movs	r3, #0
    1dfa:	617b      	str	r3, [r7, #20]
    1dfc:	2300      	movs	r3, #0
    1dfe:	617b      	str	r3, [r7, #20]
    1e00:	e009      	b.n	1e16 <_write+0x2a>
    1e02:	68ba      	ldr	r2, [r7, #8]
    1e04:	697b      	ldr	r3, [r7, #20]
    1e06:	18d3      	adds	r3, r2, r3
    1e08:	781b      	ldrb	r3, [r3, #0]
    1e0a:	0018      	movs	r0, r3
    1e0c:	f7ff fada 	bl	13c4 <uart_tx_byte>
    1e10:	697b      	ldr	r3, [r7, #20]
    1e12:	3301      	adds	r3, #1
    1e14:	617b      	str	r3, [r7, #20]
    1e16:	697a      	ldr	r2, [r7, #20]
    1e18:	687b      	ldr	r3, [r7, #4]
    1e1a:	429a      	cmp	r2, r3
    1e1c:	d3f1      	bcc.n	1e02 <_write+0x16>
    1e1e:	687b      	ldr	r3, [r7, #4]
    1e20:	0018      	movs	r0, r3
    1e22:	46bd      	mov	sp, r7
    1e24:	b006      	add	sp, #24
    1e26:	bd80      	pop	{r7, pc}

00001e28 <_read>:
    1e28:	b5b0      	push	{r4, r5, r7, lr}
    1e2a:	b086      	sub	sp, #24
    1e2c:	af00      	add	r7, sp, #0
    1e2e:	60f8      	str	r0, [r7, #12]
    1e30:	60b9      	str	r1, [r7, #8]
    1e32:	607a      	str	r2, [r7, #4]
    1e34:	2300      	movs	r3, #0
    1e36:	617b      	str	r3, [r7, #20]
    1e38:	2313      	movs	r3, #19
    1e3a:	18fb      	adds	r3, r7, r3
    1e3c:	2200      	movs	r2, #0
    1e3e:	701a      	strb	r2, [r3, #0]
    1e40:	2300      	movs	r3, #0
    1e42:	617b      	str	r3, [r7, #20]
    1e44:	e016      	b.n	1e74 <_read+0x4c>
    1e46:	2513      	movs	r5, #19
    1e48:	197c      	adds	r4, r7, r5
    1e4a:	f7ff faeb 	bl	1424 <uart_rx_byte>
    1e4e:	0003      	movs	r3, r0
    1e50:	7023      	strb	r3, [r4, #0]
    1e52:	697b      	ldr	r3, [r7, #20]
    1e54:	1c5a      	adds	r2, r3, #1
    1e56:	617a      	str	r2, [r7, #20]
    1e58:	68ba      	ldr	r2, [r7, #8]
    1e5a:	18d3      	adds	r3, r2, r3
    1e5c:	197a      	adds	r2, r7, r5
    1e5e:	7812      	ldrb	r2, [r2, #0]
    1e60:	701a      	strb	r2, [r3, #0]
    1e62:	197b      	adds	r3, r7, r5
    1e64:	781b      	ldrb	r3, [r3, #0]
    1e66:	2b0d      	cmp	r3, #13
    1e68:	d009      	beq.n	1e7e <_read+0x56>
    1e6a:	197b      	adds	r3, r7, r5
    1e6c:	781b      	ldrb	r3, [r3, #0]
    1e6e:	0018      	movs	r0, r3
    1e70:	f7ff faa8 	bl	13c4 <uart_tx_byte>
    1e74:	697a      	ldr	r2, [r7, #20]
    1e76:	687b      	ldr	r3, [r7, #4]
    1e78:	429a      	cmp	r2, r3
    1e7a:	d3e4      	bcc.n	1e46 <_read+0x1e>
    1e7c:	e000      	b.n	1e80 <_read+0x58>
    1e7e:	46c0      	nop			; (mov r8, r8)
    1e80:	697b      	ldr	r3, [r7, #20]
    1e82:	0018      	movs	r0, r3
    1e84:	46bd      	mov	sp, r7
    1e86:	b006      	add	sp, #24
    1e88:	bdb0      	pop	{r4, r5, r7, pc}

00001e8a <get_line_state>:
    1e8a:	b580      	push	{r7, lr}
    1e8c:	b084      	sub	sp, #16
    1e8e:	af00      	add	r7, sp, #0
    1e90:	0002      	movs	r2, r0
    1e92:	1dfb      	adds	r3, r7, #7
    1e94:	701a      	strb	r2, [r3, #0]
    1e96:	1dbb      	adds	r3, r7, #6
    1e98:	1c0a      	adds	r2, r1, #0
    1e9a:	701a      	strb	r2, [r3, #0]
    1e9c:	1dfb      	adds	r3, r7, #7
    1e9e:	781b      	ldrb	r3, [r3, #0]
    1ea0:	2201      	movs	r2, #1
    1ea2:	4053      	eors	r3, r2
    1ea4:	b2db      	uxtb	r3, r3
    1ea6:	2b00      	cmp	r3, #0
    1ea8:	d00b      	beq.n	1ec2 <get_line_state+0x38>
    1eaa:	1dbb      	adds	r3, r7, #6
    1eac:	781b      	ldrb	r3, [r3, #0]
    1eae:	2201      	movs	r2, #1
    1eb0:	4053      	eors	r3, r2
    1eb2:	b2db      	uxtb	r3, r3
    1eb4:	2b00      	cmp	r3, #0
    1eb6:	d004      	beq.n	1ec2 <get_line_state+0x38>
    1eb8:	230f      	movs	r3, #15
    1eba:	18fb      	adds	r3, r7, r3
    1ebc:	2200      	movs	r2, #0
    1ebe:	701a      	strb	r2, [r3, #0]
    1ec0:	e019      	b.n	1ef6 <get_line_state+0x6c>
    1ec2:	1dfb      	adds	r3, r7, #7
    1ec4:	781b      	ldrb	r3, [r3, #0]
    1ec6:	2b00      	cmp	r3, #0
    1ec8:	d008      	beq.n	1edc <get_line_state+0x52>
    1eca:	1dbb      	adds	r3, r7, #6
    1ecc:	781b      	ldrb	r3, [r3, #0]
    1ece:	2b00      	cmp	r3, #0
    1ed0:	d004      	beq.n	1edc <get_line_state+0x52>
    1ed2:	230f      	movs	r3, #15
    1ed4:	18fb      	adds	r3, r7, r3
    1ed6:	2202      	movs	r2, #2
    1ed8:	701a      	strb	r2, [r3, #0]
    1eda:	e00c      	b.n	1ef6 <get_line_state+0x6c>
    1edc:	1dfb      	adds	r3, r7, #7
    1ede:	781b      	ldrb	r3, [r3, #0]
    1ee0:	2b00      	cmp	r3, #0
    1ee2:	d004      	beq.n	1eee <get_line_state+0x64>
    1ee4:	230f      	movs	r3, #15
    1ee6:	18fb      	adds	r3, r7, r3
    1ee8:	2201      	movs	r2, #1
    1eea:	701a      	strb	r2, [r3, #0]
    1eec:	e003      	b.n	1ef6 <get_line_state+0x6c>
    1eee:	230f      	movs	r3, #15
    1ef0:	18fb      	adds	r3, r7, r3
    1ef2:	22ff      	movs	r2, #255	; 0xff
    1ef4:	701a      	strb	r2, [r3, #0]
    1ef6:	230f      	movs	r3, #15
    1ef8:	18fb      	adds	r3, r7, r3
    1efa:	781b      	ldrb	r3, [r3, #0]
    1efc:	b25b      	sxtb	r3, r3
    1efe:	0018      	movs	r0, r3
    1f00:	46bd      	mov	sp, r7
    1f02:	b004      	add	sp, #16
    1f04:	bd80      	pop	{r7, pc}
	...

00001f08 <line_following>:
    1f08:	b5b0      	push	{r4, r5, r7, lr}
    1f0a:	b082      	sub	sp, #8
    1f0c:	af00      	add	r7, sp, #0
    1f0e:	0002      	movs	r2, r0
    1f10:	1dfb      	adds	r3, r7, #7
    1f12:	701a      	strb	r2, [r3, #0]
    1f14:	1dfb      	adds	r3, r7, #7
    1f16:	781b      	ldrb	r3, [r3, #0]
    1f18:	b25b      	sxtb	r3, r3
    1f1a:	2b02      	cmp	r3, #2
    1f1c:	d108      	bne.n	1f30 <line_following+0x28>
    1f1e:	2100      	movs	r1, #0
    1f20:	2000      	movs	r0, #0
    1f22:	f000 fdc1 	bl	2aa8 <motor_set_percent>
    1f26:	2100      	movs	r1, #0
    1f28:	2001      	movs	r0, #1
    1f2a:	f000 fdbd 	bl	2aa8 <motor_set_percent>
    1f2e:	e03c      	b.n	1faa <line_following+0xa2>
    1f30:	1dfb      	adds	r3, r7, #7
    1f32:	2200      	movs	r2, #0
    1f34:	569a      	ldrsb	r2, [r3, r2]
    1f36:	0013      	movs	r3, r2
    1f38:	011b      	lsls	r3, r3, #4
    1f3a:	1a9b      	subs	r3, r3, r2
    1f3c:	009b      	lsls	r3, r3, #2
    1f3e:	0018      	movs	r0, r3
    1f40:	f003 fd50 	bl	59e4 <__aeabi_i2d>
    1f44:	0004      	movs	r4, r0
    1f46:	000d      	movs	r5, r1
    1f48:	4b1a      	ldr	r3, [pc, #104]	; (1fb4 <line_following+0xac>)
    1f4a:	681b      	ldr	r3, [r3, #0]
    1f4c:	0018      	movs	r0, r3
    1f4e:	f003 fd49 	bl	59e4 <__aeabi_i2d>
    1f52:	4a19      	ldr	r2, [pc, #100]	; (1fb8 <line_following+0xb0>)
    1f54:	4b19      	ldr	r3, [pc, #100]	; (1fbc <line_following+0xb4>)
    1f56:	f002 ff11 	bl	4d7c <__aeabi_dmul>
    1f5a:	0002      	movs	r2, r0
    1f5c:	000b      	movs	r3, r1
    1f5e:	0020      	movs	r0, r4
    1f60:	0029      	movs	r1, r5
    1f62:	f003 f977 	bl	5254 <__aeabi_dsub>
    1f66:	0002      	movs	r2, r0
    1f68:	000b      	movs	r3, r1
    1f6a:	0010      	movs	r0, r2
    1f6c:	0019      	movs	r1, r3
    1f6e:	f003 fd03 	bl	5978 <__aeabi_d2iz>
    1f72:	0002      	movs	r2, r0
    1f74:	4b12      	ldr	r3, [pc, #72]	; (1fc0 <line_following+0xb8>)
    1f76:	601a      	str	r2, [r3, #0]
    1f78:	4b11      	ldr	r3, [pc, #68]	; (1fc0 <line_following+0xb8>)
    1f7a:	681b      	ldr	r3, [r3, #0]
    1f7c:	2b64      	cmp	r3, #100	; 0x64
    1f7e:	dd03      	ble.n	1f88 <line_following+0x80>
    1f80:	4b0f      	ldr	r3, [pc, #60]	; (1fc0 <line_following+0xb8>)
    1f82:	2264      	movs	r2, #100	; 0x64
    1f84:	601a      	str	r2, [r3, #0]
    1f86:	e007      	b.n	1f98 <line_following+0x90>
    1f88:	4b0d      	ldr	r3, [pc, #52]	; (1fc0 <line_following+0xb8>)
    1f8a:	681b      	ldr	r3, [r3, #0]
    1f8c:	3364      	adds	r3, #100	; 0x64
    1f8e:	da03      	bge.n	1f98 <line_following+0x90>
    1f90:	4b0b      	ldr	r3, [pc, #44]	; (1fc0 <line_following+0xb8>)
    1f92:	2264      	movs	r2, #100	; 0x64
    1f94:	4252      	negs	r2, r2
    1f96:	601a      	str	r2, [r3, #0]
    1f98:	4b09      	ldr	r3, [pc, #36]	; (1fc0 <line_following+0xb8>)
    1f9a:	681b      	ldr	r3, [r3, #0]
    1f9c:	0018      	movs	r0, r3
    1f9e:	f000 f811 	bl	1fc4 <set_motor_diff>
    1fa2:	4b07      	ldr	r3, [pc, #28]	; (1fc0 <line_following+0xb8>)
    1fa4:	681a      	ldr	r2, [r3, #0]
    1fa6:	4b03      	ldr	r3, [pc, #12]	; (1fb4 <line_following+0xac>)
    1fa8:	601a      	str	r2, [r3, #0]
    1faa:	46c0      	nop			; (mov r8, r8)
    1fac:	46bd      	mov	sp, r7
    1fae:	b002      	add	sp, #8
    1fb0:	bdb0      	pop	{r4, r5, r7, pc}
    1fb2:	46c0      	nop			; (mov r8, r8)
    1fb4:	200000e4 	.word	0x200000e4
    1fb8:	9999999a 	.word	0x9999999a
    1fbc:	3fb99999 	.word	0x3fb99999
    1fc0:	200000e0 	.word	0x200000e0

00001fc4 <set_motor_diff>:
    1fc4:	b580      	push	{r7, lr}
    1fc6:	b082      	sub	sp, #8
    1fc8:	af00      	add	r7, sp, #0
    1fca:	6078      	str	r0, [r7, #4]
    1fcc:	687b      	ldr	r3, [r7, #4]
    1fce:	2b64      	cmp	r3, #100	; 0x64
    1fd0:	dd02      	ble.n	1fd8 <set_motor_diff+0x14>
    1fd2:	2364      	movs	r3, #100	; 0x64
    1fd4:	607b      	str	r3, [r7, #4]
    1fd6:	e005      	b.n	1fe4 <set_motor_diff+0x20>
    1fd8:	687b      	ldr	r3, [r7, #4]
    1fda:	3364      	adds	r3, #100	; 0x64
    1fdc:	da02      	bge.n	1fe4 <set_motor_diff+0x20>
    1fde:	2364      	movs	r3, #100	; 0x64
    1fe0:	425b      	negs	r3, r3
    1fe2:	607b      	str	r3, [r7, #4]
    1fe4:	4b2a      	ldr	r3, [pc, #168]	; (2090 <set_motor_diff+0xcc>)
    1fe6:	681a      	ldr	r2, [r3, #0]
    1fe8:	687b      	ldr	r3, [r7, #4]
    1fea:	1ad2      	subs	r2, r2, r3
    1fec:	4b29      	ldr	r3, [pc, #164]	; (2094 <set_motor_diff+0xd0>)
    1fee:	601a      	str	r2, [r3, #0]
    1ff0:	4b27      	ldr	r3, [pc, #156]	; (2090 <set_motor_diff+0xcc>)
    1ff2:	681a      	ldr	r2, [r3, #0]
    1ff4:	687b      	ldr	r3, [r7, #4]
    1ff6:	18d2      	adds	r2, r2, r3
    1ff8:	4b27      	ldr	r3, [pc, #156]	; (2098 <set_motor_diff+0xd4>)
    1ffa:	601a      	str	r2, [r3, #0]
    1ffc:	4b25      	ldr	r3, [pc, #148]	; (2094 <set_motor_diff+0xd0>)
    1ffe:	681b      	ldr	r3, [r3, #0]
    2000:	2b64      	cmp	r3, #100	; 0x64
    2002:	dd08      	ble.n	2016 <set_motor_diff+0x52>
    2004:	4b23      	ldr	r3, [pc, #140]	; (2094 <set_motor_diff+0xd0>)
    2006:	2264      	movs	r2, #100	; 0x64
    2008:	601a      	str	r2, [r3, #0]
    200a:	687b      	ldr	r3, [r7, #4]
    200c:	3332      	adds	r3, #50	; 0x32
    200e:	005a      	lsls	r2, r3, #1
    2010:	4b21      	ldr	r3, [pc, #132]	; (2098 <set_motor_diff+0xd4>)
    2012:	601a      	str	r2, [r3, #0]
    2014:	e02a      	b.n	206c <set_motor_diff+0xa8>
    2016:	4b1f      	ldr	r3, [pc, #124]	; (2094 <set_motor_diff+0xd0>)
    2018:	681b      	ldr	r3, [r3, #0]
    201a:	3364      	adds	r3, #100	; 0x64
    201c:	da09      	bge.n	2032 <set_motor_diff+0x6e>
    201e:	4b1d      	ldr	r3, [pc, #116]	; (2094 <set_motor_diff+0xd0>)
    2020:	2264      	movs	r2, #100	; 0x64
    2022:	4252      	negs	r2, r2
    2024:	601a      	str	r2, [r3, #0]
    2026:	687b      	ldr	r3, [r7, #4]
    2028:	3b32      	subs	r3, #50	; 0x32
    202a:	005a      	lsls	r2, r3, #1
    202c:	4b1a      	ldr	r3, [pc, #104]	; (2098 <set_motor_diff+0xd4>)
    202e:	601a      	str	r2, [r3, #0]
    2030:	e01c      	b.n	206c <set_motor_diff+0xa8>
    2032:	4b19      	ldr	r3, [pc, #100]	; (2098 <set_motor_diff+0xd4>)
    2034:	681b      	ldr	r3, [r3, #0]
    2036:	2b64      	cmp	r3, #100	; 0x64
    2038:	dd09      	ble.n	204e <set_motor_diff+0x8a>
    203a:	4b17      	ldr	r3, [pc, #92]	; (2098 <set_motor_diff+0xd4>)
    203c:	2264      	movs	r2, #100	; 0x64
    203e:	601a      	str	r2, [r3, #0]
    2040:	687b      	ldr	r3, [r7, #4]
    2042:	2232      	movs	r2, #50	; 0x32
    2044:	1ad3      	subs	r3, r2, r3
    2046:	005a      	lsls	r2, r3, #1
    2048:	4b12      	ldr	r3, [pc, #72]	; (2094 <set_motor_diff+0xd0>)
    204a:	601a      	str	r2, [r3, #0]
    204c:	e00e      	b.n	206c <set_motor_diff+0xa8>
    204e:	4b12      	ldr	r3, [pc, #72]	; (2098 <set_motor_diff+0xd4>)
    2050:	681b      	ldr	r3, [r3, #0]
    2052:	3364      	adds	r3, #100	; 0x64
    2054:	da0a      	bge.n	206c <set_motor_diff+0xa8>
    2056:	4b10      	ldr	r3, [pc, #64]	; (2098 <set_motor_diff+0xd4>)
    2058:	2264      	movs	r2, #100	; 0x64
    205a:	4252      	negs	r2, r2
    205c:	601a      	str	r2, [r3, #0]
    205e:	687b      	ldr	r3, [r7, #4]
    2060:	2232      	movs	r2, #50	; 0x32
    2062:	4252      	negs	r2, r2
    2064:	1ad3      	subs	r3, r2, r3
    2066:	005a      	lsls	r2, r3, #1
    2068:	4b0a      	ldr	r3, [pc, #40]	; (2094 <set_motor_diff+0xd0>)
    206a:	601a      	str	r2, [r3, #0]
    206c:	4b09      	ldr	r3, [pc, #36]	; (2094 <set_motor_diff+0xd0>)
    206e:	681b      	ldr	r3, [r3, #0]
    2070:	b25b      	sxtb	r3, r3
    2072:	0019      	movs	r1, r3
    2074:	2000      	movs	r0, #0
    2076:	f000 fd17 	bl	2aa8 <motor_set_percent>
    207a:	4b07      	ldr	r3, [pc, #28]	; (2098 <set_motor_diff+0xd4>)
    207c:	681b      	ldr	r3, [r3, #0]
    207e:	b25b      	sxtb	r3, r3
    2080:	0019      	movs	r1, r3
    2082:	2001      	movs	r0, #1
    2084:	f000 fd10 	bl	2aa8 <motor_set_percent>
    2088:	46c0      	nop			; (mov r8, r8)
    208a:	46bd      	mov	sp, r7
    208c:	b002      	add	sp, #8
    208e:	bd80      	pop	{r7, pc}
    2090:	20000008 	.word	0x20000008
    2094:	20000108 	.word	0x20000108
    2098:	2000010c 	.word	0x2000010c

0000209c <reverse_bitbot>:
    209c:	b590      	push	{r4, r7, lr}
    209e:	b083      	sub	sp, #12
    20a0:	af00      	add	r7, sp, #0
    20a2:	1dfc      	adds	r4, r7, #7
    20a4:	2000      	movs	r0, #0
    20a6:	f000 fedb 	bl	2e60 <line_sensor_is_line_present>
    20aa:	0003      	movs	r3, r0
    20ac:	7023      	strb	r3, [r4, #0]
    20ae:	1dbc      	adds	r4, r7, #6
    20b0:	2001      	movs	r0, #1
    20b2:	f000 fed5 	bl	2e60 <line_sensor_is_line_present>
    20b6:	0003      	movs	r3, r0
    20b8:	7023      	strb	r3, [r4, #0]
    20ba:	1d7c      	adds	r4, r7, #5
    20bc:	1dbb      	adds	r3, r7, #6
    20be:	781a      	ldrb	r2, [r3, #0]
    20c0:	1dfb      	adds	r3, r7, #7
    20c2:	781b      	ldrb	r3, [r3, #0]
    20c4:	0011      	movs	r1, r2
    20c6:	0018      	movs	r0, r3
    20c8:	f7ff fedf 	bl	1e8a <get_line_state>
    20cc:	0003      	movs	r3, r0
    20ce:	7023      	strb	r3, [r4, #0]
    20d0:	4b1f      	ldr	r3, [pc, #124]	; (2150 <reverse_bitbot+0xb4>)
    20d2:	781b      	ldrb	r3, [r3, #0]
    20d4:	2b00      	cmp	r3, #0
    20d6:	d11a      	bne.n	210e <reverse_bitbot+0x72>
    20d8:	211e      	movs	r1, #30
    20da:	2000      	movs	r0, #0
    20dc:	f000 fce4 	bl	2aa8 <motor_set_percent>
    20e0:	231e      	movs	r3, #30
    20e2:	425b      	negs	r3, r3
    20e4:	0019      	movs	r1, r3
    20e6:	2001      	movs	r0, #1
    20e8:	f000 fcde 	bl	2aa8 <motor_set_percent>
    20ec:	20c8      	movs	r0, #200	; 0xc8
    20ee:	f7fe fc71 	bl	9d4 <timer_wait_ms>
    20f2:	1d7b      	adds	r3, r7, #5
    20f4:	781b      	ldrb	r3, [r3, #0]
    20f6:	b25b      	sxtb	r3, r3
    20f8:	2b00      	cmp	r3, #0
    20fa:	d124      	bne.n	2146 <reverse_bitbot+0xaa>
    20fc:	f7fe fc46 	bl	98c <timer_get_time_ms>
    2100:	0002      	movs	r2, r0
    2102:	4b14      	ldr	r3, [pc, #80]	; (2154 <reverse_bitbot+0xb8>)
    2104:	601a      	str	r2, [r3, #0]
    2106:	4b12      	ldr	r3, [pc, #72]	; (2150 <reverse_bitbot+0xb4>)
    2108:	2201      	movs	r2, #1
    210a:	701a      	strb	r2, [r3, #0]
    210c:	e01b      	b.n	2146 <reverse_bitbot+0xaa>
    210e:	211e      	movs	r1, #30
    2110:	2000      	movs	r0, #0
    2112:	f000 fcc9 	bl	2aa8 <motor_set_percent>
    2116:	231e      	movs	r3, #30
    2118:	425b      	negs	r3, r3
    211a:	0019      	movs	r1, r3
    211c:	2001      	movs	r0, #1
    211e:	f000 fcc3 	bl	2aa8 <motor_set_percent>
    2122:	2032      	movs	r0, #50	; 0x32
    2124:	f7fe fc56 	bl	9d4 <timer_wait_ms>
    2128:	1d7b      	adds	r3, r7, #5
    212a:	781b      	ldrb	r3, [r3, #0]
    212c:	b25b      	sxtb	r3, r3
    212e:	2b01      	cmp	r3, #1
    2130:	d004      	beq.n	213c <reverse_bitbot+0xa0>
    2132:	1d7b      	adds	r3, r7, #5
    2134:	781b      	ldrb	r3, [r3, #0]
    2136:	b25b      	sxtb	r3, r3
    2138:	3301      	adds	r3, #1
    213a:	d104      	bne.n	2146 <reverse_bitbot+0xaa>
    213c:	4b04      	ldr	r3, [pc, #16]	; (2150 <reverse_bitbot+0xb4>)
    213e:	2200      	movs	r2, #0
    2140:	701a      	strb	r2, [r3, #0]
    2142:	2301      	movs	r3, #1
    2144:	e000      	b.n	2148 <reverse_bitbot+0xac>
    2146:	2300      	movs	r3, #0
    2148:	0018      	movs	r0, r3
    214a:	46bd      	mov	sp, r7
    214c:	b003      	add	sp, #12
    214e:	bd90      	pop	{r4, r7, pc}
    2150:	200000df 	.word	0x200000df
    2154:	200000e8 	.word	0x200000e8

00002158 <main>:
    2158:	b580      	push	{r7, lr}
    215a:	af00      	add	r7, sp, #0
    215c:	f7ff f90c 	bl	1378 <uart_init>
    2160:	f7fe fbcc 	bl	8fc <timer_init>
    2164:	f7fe f9f2 	bl	54c <i2c_init>
    2168:	f000 fe6c 	bl	2e44 <line_sensor_init>
    216c:	f000 fc80 	bl	2a70 <motor_init>
    2170:	f000 fb98 	bl	28a4 <light_sensor_init>
    2174:	f000 fd84 	bl	2c80 <ultrasonic_sensor_init>
    2178:	f7ff fac6 	bl	1708 <led_matrix_init>
    217c:	f7ff fc67 	bl	1a4e <compass_init>
    2180:	23fa      	movs	r3, #250	; 0xfa
    2182:	009b      	lsls	r3, r3, #2
    2184:	0018      	movs	r0, r3
    2186:	f7fe fc25 	bl	9d4 <timer_wait_ms>
    218a:	4b4c      	ldr	r3, [pc, #304]	; (22bc <main+0x164>)
    218c:	781b      	ldrb	r3, [r3, #0]
    218e:	2b09      	cmp	r3, #9
    2190:	d900      	bls.n	2194 <main+0x3c>
    2192:	e084      	b.n	229e <main+0x146>
    2194:	009a      	lsls	r2, r3, #2
    2196:	4b4a      	ldr	r3, [pc, #296]	; (22c0 <main+0x168>)
    2198:	18d3      	adds	r3, r2, r3
    219a:	681b      	ldr	r3, [r3, #0]
    219c:	469f      	mov	pc, r3
    219e:	f000 fa2b 	bl	25f8 <goto_barrier>
    21a2:	0003      	movs	r3, r0
    21a4:	001a      	movs	r2, r3
    21a6:	4b47      	ldr	r3, [pc, #284]	; (22c4 <main+0x16c>)
    21a8:	701a      	strb	r2, [r3, #0]
    21aa:	4b46      	ldr	r3, [pc, #280]	; (22c4 <main+0x16c>)
    21ac:	781b      	ldrb	r3, [r3, #0]
    21ae:	2b00      	cmp	r3, #0
    21b0:	d100      	bne.n	21b4 <main+0x5c>
    21b2:	e076      	b.n	22a2 <main+0x14a>
    21b4:	4b41      	ldr	r3, [pc, #260]	; (22bc <main+0x164>)
    21b6:	2201      	movs	r2, #1
    21b8:	701a      	strb	r2, [r3, #0]
    21ba:	4b40      	ldr	r3, [pc, #256]	; (22bc <main+0x164>)
    21bc:	781b      	ldrb	r3, [r3, #0]
    21be:	001a      	movs	r2, r3
    21c0:	4b41      	ldr	r3, [pc, #260]	; (22c8 <main+0x170>)
    21c2:	0011      	movs	r1, r2
    21c4:	0018      	movs	r0, r3
    21c6:	f001 fbbd 	bl	3944 <iprintf>
    21ca:	e06a      	b.n	22a2 <main+0x14a>
    21cc:	f000 fa60 	bl	2690 <barrier_lifted>
    21d0:	1e03      	subs	r3, r0, #0
    21d2:	d068      	beq.n	22a6 <main+0x14e>
    21d4:	4b39      	ldr	r3, [pc, #228]	; (22bc <main+0x164>)
    21d6:	2202      	movs	r2, #2
    21d8:	701a      	strb	r2, [r3, #0]
    21da:	4b38      	ldr	r3, [pc, #224]	; (22bc <main+0x164>)
    21dc:	781b      	ldrb	r3, [r3, #0]
    21de:	001a      	movs	r2, r3
    21e0:	4b39      	ldr	r3, [pc, #228]	; (22c8 <main+0x170>)
    21e2:	0011      	movs	r1, r2
    21e4:	0018      	movs	r0, r3
    21e6:	f001 fbad 	bl	3944 <iprintf>
    21ea:	e05c      	b.n	22a6 <main+0x14e>
    21ec:	f000 fa5e 	bl	26ac <goto_lamp>
    21f0:	0003      	movs	r3, r0
    21f2:	001a      	movs	r2, r3
    21f4:	4b33      	ldr	r3, [pc, #204]	; (22c4 <main+0x16c>)
    21f6:	701a      	strb	r2, [r3, #0]
    21f8:	4b32      	ldr	r3, [pc, #200]	; (22c4 <main+0x16c>)
    21fa:	781b      	ldrb	r3, [r3, #0]
    21fc:	2b00      	cmp	r3, #0
    21fe:	d054      	beq.n	22aa <main+0x152>
    2200:	4b2e      	ldr	r3, [pc, #184]	; (22bc <main+0x164>)
    2202:	2203      	movs	r2, #3
    2204:	701a      	strb	r2, [r3, #0]
    2206:	4b2d      	ldr	r3, [pc, #180]	; (22bc <main+0x164>)
    2208:	781b      	ldrb	r3, [r3, #0]
    220a:	001a      	movs	r2, r3
    220c:	4b2e      	ldr	r3, [pc, #184]	; (22c8 <main+0x170>)
    220e:	0011      	movs	r1, r2
    2210:	0018      	movs	r0, r3
    2212:	f001 fb97 	bl	3944 <iprintf>
    2216:	e048      	b.n	22aa <main+0x152>
    2218:	f7ff fce2 	bl	1be0 <morse_communication>
    221c:	4b2b      	ldr	r3, [pc, #172]	; (22cc <main+0x174>)
    221e:	781b      	ldrb	r3, [r3, #0]
    2220:	2b06      	cmp	r3, #6
    2222:	d144      	bne.n	22ae <main+0x156>
    2224:	4b25      	ldr	r3, [pc, #148]	; (22bc <main+0x164>)
    2226:	2205      	movs	r2, #5
    2228:	701a      	strb	r2, [r3, #0]
    222a:	4b24      	ldr	r3, [pc, #144]	; (22bc <main+0x164>)
    222c:	781b      	ldrb	r3, [r3, #0]
    222e:	001a      	movs	r2, r3
    2230:	4b25      	ldr	r3, [pc, #148]	; (22c8 <main+0x170>)
    2232:	0011      	movs	r1, r2
    2234:	0018      	movs	r0, r3
    2236:	f001 fb85 	bl	3944 <iprintf>
    223a:	e038      	b.n	22ae <main+0x156>
    223c:	f000 f85e 	bl	22fc <routing_state_machine>
    2240:	e038      	b.n	22b4 <main+0x15c>
    2242:	f7ff fc91 	bl	1b68 <get_orientation>
    2246:	0003      	movs	r3, r0
    2248:	001a      	movs	r2, r3
    224a:	4b21      	ldr	r3, [pc, #132]	; (22d0 <main+0x178>)
    224c:	801a      	strh	r2, [r3, #0]
    224e:	4b20      	ldr	r3, [pc, #128]	; (22d0 <main+0x178>)
    2250:	2200      	movs	r2, #0
    2252:	5e9b      	ldrsh	r3, [r3, r2]
    2254:	001a      	movs	r2, r3
    2256:	4b1f      	ldr	r3, [pc, #124]	; (22d4 <main+0x17c>)
    2258:	0011      	movs	r1, r2
    225a:	0018      	movs	r0, r3
    225c:	f001 fb72 	bl	3944 <iprintf>
    2260:	f7ff fc06 	bl	1a70 <read_magnetometer_y>
    2264:	0003      	movs	r3, r0
    2266:	001a      	movs	r2, r3
    2268:	4b1b      	ldr	r3, [pc, #108]	; (22d8 <main+0x180>)
    226a:	0011      	movs	r1, r2
    226c:	0018      	movs	r0, r3
    226e:	f001 fb69 	bl	3944 <iprintf>
    2272:	4b12      	ldr	r3, [pc, #72]	; (22bc <main+0x164>)
    2274:	2207      	movs	r2, #7
    2276:	701a      	strb	r2, [r3, #0]
    2278:	e01c      	b.n	22b4 <main+0x15c>
    227a:	f7ff ff0f 	bl	209c <reverse_bitbot>
    227e:	1e03      	subs	r3, r0, #0
    2280:	d017      	beq.n	22b2 <main+0x15a>
    2282:	4b0e      	ldr	r3, [pc, #56]	; (22bc <main+0x164>)
    2284:	2208      	movs	r2, #8
    2286:	701a      	strb	r2, [r3, #0]
    2288:	e013      	b.n	22b2 <main+0x15a>
    228a:	4b11      	ldr	r3, [pc, #68]	; (22d0 <main+0x178>)
    228c:	2200      	movs	r2, #0
    228e:	5e9b      	ldrsh	r3, [r3, r2]
    2290:	0018      	movs	r0, r3
    2292:	f000 f8ff 	bl	2494 <navigate_home>
    2296:	e00d      	b.n	22b4 <main+0x15c>
    2298:	f7ff fab6 	bl	1808 <led_matrix_update>
    229c:	e00a      	b.n	22b4 <main+0x15c>
    229e:	46c0      	nop			; (mov r8, r8)
    22a0:	e008      	b.n	22b4 <main+0x15c>
    22a2:	46c0      	nop			; (mov r8, r8)
    22a4:	e006      	b.n	22b4 <main+0x15c>
    22a6:	46c0      	nop			; (mov r8, r8)
    22a8:	e004      	b.n	22b4 <main+0x15c>
    22aa:	46c0      	nop			; (mov r8, r8)
    22ac:	e002      	b.n	22b4 <main+0x15c>
    22ae:	46c0      	nop			; (mov r8, r8)
    22b0:	e000      	b.n	22b4 <main+0x15c>
    22b2:	46c0      	nop			; (mov r8, r8)
    22b4:	f7ff faa8 	bl	1808 <led_matrix_update>
    22b8:	e767      	b.n	218a <main+0x32>
    22ba:	46c0      	nop			; (mov r8, r8)
    22bc:	200000ec 	.word	0x200000ec
    22c0:	00005dd4 	.word	0x00005dd4
    22c4:	200000ed 	.word	0x200000ed
    22c8:	00005d9c 	.word	0x00005d9c
    22cc:	200000ce 	.word	0x200000ce
    22d0:	200000ee 	.word	0x200000ee
    22d4:	00005da8 	.word	0x00005da8
    22d8:	00005dc0 	.word	0x00005dc0

000022dc <init_edges>:
    22dc:	b580      	push	{r7, lr}
    22de:	af00      	add	r7, sp, #0
    22e0:	4b04      	ldr	r3, [pc, #16]	; (22f4 <init_edges+0x18>)
    22e2:	2201      	movs	r2, #1
    22e4:	801a      	strh	r2, [r3, #0]
    22e6:	4b04      	ldr	r3, [pc, #16]	; (22f8 <init_edges+0x1c>)
    22e8:	2201      	movs	r2, #1
    22ea:	701a      	strb	r2, [r3, #0]
    22ec:	46c0      	nop			; (mov r8, r8)
    22ee:	46bd      	mov	sp, r7
    22f0:	bd80      	pop	{r7, pc}
    22f2:	46c0      	nop			; (mov r8, r8)
    22f4:	200000da 	.word	0x200000da
    22f8:	200000d0 	.word	0x200000d0

000022fc <routing_state_machine>:
    22fc:	b580      	push	{r7, lr}
    22fe:	b082      	sub	sp, #8
    2300:	af00      	add	r7, sp, #0
    2302:	2000      	movs	r0, #0
    2304:	f000 fdac 	bl	2e60 <line_sensor_is_line_present>
    2308:	0003      	movs	r3, r0
    230a:	001a      	movs	r2, r3
    230c:	4b58      	ldr	r3, [pc, #352]	; (2470 <routing_state_machine+0x174>)
    230e:	701a      	strb	r2, [r3, #0]
    2310:	2001      	movs	r0, #1
    2312:	f000 fda5 	bl	2e60 <line_sensor_is_line_present>
    2316:	0003      	movs	r3, r0
    2318:	001a      	movs	r2, r3
    231a:	4b56      	ldr	r3, [pc, #344]	; (2474 <routing_state_machine+0x178>)
    231c:	701a      	strb	r2, [r3, #0]
    231e:	4b54      	ldr	r3, [pc, #336]	; (2470 <routing_state_machine+0x174>)
    2320:	781a      	ldrb	r2, [r3, #0]
    2322:	4b54      	ldr	r3, [pc, #336]	; (2474 <routing_state_machine+0x178>)
    2324:	781b      	ldrb	r3, [r3, #0]
    2326:	0019      	movs	r1, r3
    2328:	0010      	movs	r0, r2
    232a:	f7ff fdae 	bl	1e8a <get_line_state>
    232e:	0003      	movs	r3, r0
    2330:	001a      	movs	r2, r3
    2332:	4b51      	ldr	r3, [pc, #324]	; (2478 <routing_state_machine+0x17c>)
    2334:	701a      	strb	r2, [r3, #0]
    2336:	4b51      	ldr	r3, [pc, #324]	; (247c <routing_state_machine+0x180>)
    2338:	781b      	ldrb	r3, [r3, #0]
    233a:	2b02      	cmp	r3, #2
    233c:	d05a      	beq.n	23f4 <routing_state_machine+0xf8>
    233e:	dd00      	ble.n	2342 <routing_state_machine+0x46>
    2340:	e091      	b.n	2466 <routing_state_machine+0x16a>
    2342:	2b00      	cmp	r3, #0
    2344:	d002      	beq.n	234c <routing_state_machine+0x50>
    2346:	2b01      	cmp	r3, #1
    2348:	d01f      	beq.n	238a <routing_state_machine+0x8e>
    234a:	e08c      	b.n	2466 <routing_state_machine+0x16a>
    234c:	4b4a      	ldr	r3, [pc, #296]	; (2478 <routing_state_machine+0x17c>)
    234e:	781b      	ldrb	r3, [r3, #0]
    2350:	b25b      	sxtb	r3, r3
    2352:	2b02      	cmp	r3, #2
    2354:	d111      	bne.n	237a <routing_state_machine+0x7e>
    2356:	4b49      	ldr	r3, [pc, #292]	; (247c <routing_state_machine+0x180>)
    2358:	2201      	movs	r2, #1
    235a:	701a      	strb	r2, [r3, #0]
    235c:	f7fe fb16 	bl	98c <timer_get_time_ms>
    2360:	0002      	movs	r2, r0
    2362:	4b47      	ldr	r3, [pc, #284]	; (2480 <routing_state_machine+0x184>)
    2364:	601a      	str	r2, [r3, #0]
    2366:	4b47      	ldr	r3, [pc, #284]	; (2484 <routing_state_machine+0x188>)
    2368:	781b      	ldrb	r3, [r3, #0]
    236a:	2b09      	cmp	r3, #9
    236c:	d805      	bhi.n	237a <routing_state_machine+0x7e>
    236e:	4b45      	ldr	r3, [pc, #276]	; (2484 <routing_state_machine+0x188>)
    2370:	781b      	ldrb	r3, [r3, #0]
    2372:	3301      	adds	r3, #1
    2374:	b2da      	uxtb	r2, r3
    2376:	4b43      	ldr	r3, [pc, #268]	; (2484 <routing_state_machine+0x188>)
    2378:	701a      	strb	r2, [r3, #0]
    237a:	4b3f      	ldr	r3, [pc, #252]	; (2478 <routing_state_machine+0x17c>)
    237c:	781b      	ldrb	r3, [r3, #0]
    237e:	b25b      	sxtb	r3, r3
    2380:	0019      	movs	r1, r3
    2382:	2032      	movs	r0, #50	; 0x32
    2384:	f000 f9e4 	bl	2750 <drive>
    2388:	e06d      	b.n	2466 <routing_state_machine+0x16a>
    238a:	4b3e      	ldr	r3, [pc, #248]	; (2484 <routing_state_machine+0x188>)
    238c:	781b      	ldrb	r3, [r3, #0]
    238e:	b29a      	uxth	r2, r3
    2390:	4b3d      	ldr	r3, [pc, #244]	; (2488 <routing_state_machine+0x18c>)
    2392:	881b      	ldrh	r3, [r3, #0]
    2394:	429a      	cmp	r2, r3
    2396:	d816      	bhi.n	23c6 <routing_state_machine+0xca>
    2398:	4b37      	ldr	r3, [pc, #220]	; (2478 <routing_state_machine+0x17c>)
    239a:	781b      	ldrb	r3, [r3, #0]
    239c:	b25b      	sxtb	r3, r3
    239e:	2b02      	cmp	r3, #2
    23a0:	d109      	bne.n	23b6 <routing_state_machine+0xba>
    23a2:	4b38      	ldr	r3, [pc, #224]	; (2484 <routing_state_machine+0x188>)
    23a4:	781b      	ldrb	r3, [r3, #0]
    23a6:	3b01      	subs	r3, #1
    23a8:	4a38      	ldr	r2, [pc, #224]	; (248c <routing_state_machine+0x190>)
    23aa:	56d3      	ldrsb	r3, [r2, r3]
    23ac:	0019      	movs	r1, r3
    23ae:	2032      	movs	r0, #50	; 0x32
    23b0:	f000 f9ce 	bl	2750 <drive>
    23b4:	e00b      	b.n	23ce <routing_state_machine+0xd2>
    23b6:	4b30      	ldr	r3, [pc, #192]	; (2478 <routing_state_machine+0x17c>)
    23b8:	781b      	ldrb	r3, [r3, #0]
    23ba:	b25b      	sxtb	r3, r3
    23bc:	0019      	movs	r1, r3
    23be:	2032      	movs	r0, #50	; 0x32
    23c0:	f000 f9c6 	bl	2750 <drive>
    23c4:	e003      	b.n	23ce <routing_state_machine+0xd2>
    23c6:	4b2d      	ldr	r3, [pc, #180]	; (247c <routing_state_machine+0x180>)
    23c8:	2202      	movs	r2, #2
    23ca:	701a      	strb	r2, [r3, #0]
    23cc:	e04b      	b.n	2466 <routing_state_machine+0x16a>
    23ce:	4b2a      	ldr	r3, [pc, #168]	; (2478 <routing_state_machine+0x17c>)
    23d0:	781b      	ldrb	r3, [r3, #0]
    23d2:	b25b      	sxtb	r3, r3
    23d4:	2b02      	cmp	r3, #2
    23d6:	d045      	beq.n	2464 <routing_state_machine+0x168>
    23d8:	f7fe fad8 	bl	98c <timer_get_time_ms>
    23dc:	0002      	movs	r2, r0
    23de:	4b28      	ldr	r3, [pc, #160]	; (2480 <routing_state_machine+0x184>)
    23e0:	681b      	ldr	r3, [r3, #0]
    23e2:	1ad2      	subs	r2, r2, r3
    23e4:	23fa      	movs	r3, #250	; 0xfa
    23e6:	005b      	lsls	r3, r3, #1
    23e8:	429a      	cmp	r2, r3
    23ea:	d93b      	bls.n	2464 <routing_state_machine+0x168>
    23ec:	4b23      	ldr	r3, [pc, #140]	; (247c <routing_state_machine+0x180>)
    23ee:	2200      	movs	r2, #0
    23f0:	701a      	strb	r2, [r3, #0]
    23f2:	e037      	b.n	2464 <routing_state_machine+0x168>
    23f4:	4b20      	ldr	r3, [pc, #128]	; (2478 <routing_state_machine+0x17c>)
    23f6:	781b      	ldrb	r3, [r3, #0]
    23f8:	b25b      	sxtb	r3, r3
    23fa:	0019      	movs	r1, r3
    23fc:	2000      	movs	r0, #0
    23fe:	f000 f9a7 	bl	2750 <drive>
    2402:	4b1e      	ldr	r3, [pc, #120]	; (247c <routing_state_machine+0x180>)
    2404:	2200      	movs	r2, #0
    2406:	701a      	strb	r2, [r3, #0]
    2408:	4b1e      	ldr	r3, [pc, #120]	; (2484 <routing_state_machine+0x188>)
    240a:	2200      	movs	r2, #0
    240c:	701a      	strb	r2, [r3, #0]
    240e:	1dfb      	adds	r3, r7, #7
    2410:	2200      	movs	r2, #0
    2412:	701a      	strb	r2, [r3, #0]
    2414:	e01b      	b.n	244e <routing_state_machine+0x152>
    2416:	1dfb      	adds	r3, r7, #7
    2418:	781b      	ldrb	r3, [r3, #0]
    241a:	4a1c      	ldr	r2, [pc, #112]	; (248c <routing_state_machine+0x190>)
    241c:	56d3      	ldrsb	r3, [r2, r3]
    241e:	3301      	adds	r3, #1
    2420:	d105      	bne.n	242e <routing_state_machine+0x132>
    2422:	1dfb      	adds	r3, r7, #7
    2424:	781b      	ldrb	r3, [r3, #0]
    2426:	4a19      	ldr	r2, [pc, #100]	; (248c <routing_state_machine+0x190>)
    2428:	2101      	movs	r1, #1
    242a:	54d1      	strb	r1, [r2, r3]
    242c:	e00a      	b.n	2444 <routing_state_machine+0x148>
    242e:	1dfb      	adds	r3, r7, #7
    2430:	781b      	ldrb	r3, [r3, #0]
    2432:	4a16      	ldr	r2, [pc, #88]	; (248c <routing_state_machine+0x190>)
    2434:	56d3      	ldrsb	r3, [r2, r3]
    2436:	2b01      	cmp	r3, #1
    2438:	d104      	bne.n	2444 <routing_state_machine+0x148>
    243a:	1dfb      	adds	r3, r7, #7
    243c:	781b      	ldrb	r3, [r3, #0]
    243e:	4a13      	ldr	r2, [pc, #76]	; (248c <routing_state_machine+0x190>)
    2440:	21ff      	movs	r1, #255	; 0xff
    2442:	54d1      	strb	r1, [r2, r3]
    2444:	1dfb      	adds	r3, r7, #7
    2446:	781a      	ldrb	r2, [r3, #0]
    2448:	1dfb      	adds	r3, r7, #7
    244a:	3201      	adds	r2, #1
    244c:	701a      	strb	r2, [r3, #0]
    244e:	1dfb      	adds	r3, r7, #7
    2450:	781b      	ldrb	r3, [r3, #0]
    2452:	b29a      	uxth	r2, r3
    2454:	4b0c      	ldr	r3, [pc, #48]	; (2488 <routing_state_machine+0x18c>)
    2456:	881b      	ldrh	r3, [r3, #0]
    2458:	429a      	cmp	r2, r3
    245a:	d3dc      	bcc.n	2416 <routing_state_machine+0x11a>
    245c:	4b0c      	ldr	r3, [pc, #48]	; (2490 <routing_state_machine+0x194>)
    245e:	2206      	movs	r2, #6
    2460:	701a      	strb	r2, [r3, #0]
    2462:	e000      	b.n	2466 <routing_state_machine+0x16a>
    2464:	46c0      	nop			; (mov r8, r8)
    2466:	46c0      	nop			; (mov r8, r8)
    2468:	46bd      	mov	sp, r7
    246a:	b002      	add	sp, #8
    246c:	bd80      	pop	{r7, pc}
    246e:	46c0      	nop			; (mov r8, r8)
    2470:	200000f0 	.word	0x200000f0
    2474:	200000f1 	.word	0x200000f1
    2478:	200000f3 	.word	0x200000f3
    247c:	200000f2 	.word	0x200000f2
    2480:	200000f4 	.word	0x200000f4
    2484:	200000f8 	.word	0x200000f8
    2488:	200000da 	.word	0x200000da
    248c:	200000d0 	.word	0x200000d0
    2490:	200000ec 	.word	0x200000ec

00002494 <navigate_home>:
    2494:	b580      	push	{r7, lr}
    2496:	b082      	sub	sp, #8
    2498:	af00      	add	r7, sp, #0
    249a:	0002      	movs	r2, r0
    249c:	1dbb      	adds	r3, r7, #6
    249e:	801a      	strh	r2, [r3, #0]
    24a0:	2000      	movs	r0, #0
    24a2:	f000 fcdd 	bl	2e60 <line_sensor_is_line_present>
    24a6:	0003      	movs	r3, r0
    24a8:	001a      	movs	r2, r3
    24aa:	4b4a      	ldr	r3, [pc, #296]	; (25d4 <navigate_home+0x140>)
    24ac:	701a      	strb	r2, [r3, #0]
    24ae:	2001      	movs	r0, #1
    24b0:	f000 fcd6 	bl	2e60 <line_sensor_is_line_present>
    24b4:	0003      	movs	r3, r0
    24b6:	001a      	movs	r2, r3
    24b8:	4b47      	ldr	r3, [pc, #284]	; (25d8 <navigate_home+0x144>)
    24ba:	701a      	strb	r2, [r3, #0]
    24bc:	4b45      	ldr	r3, [pc, #276]	; (25d4 <navigate_home+0x140>)
    24be:	781a      	ldrb	r2, [r3, #0]
    24c0:	4b45      	ldr	r3, [pc, #276]	; (25d8 <navigate_home+0x144>)
    24c2:	781b      	ldrb	r3, [r3, #0]
    24c4:	0019      	movs	r1, r3
    24c6:	0010      	movs	r0, r2
    24c8:	f7ff fcdf 	bl	1e8a <get_line_state>
    24cc:	0003      	movs	r3, r0
    24ce:	001a      	movs	r2, r3
    24d0:	4b42      	ldr	r3, [pc, #264]	; (25dc <navigate_home+0x148>)
    24d2:	701a      	strb	r2, [r3, #0]
    24d4:	4b42      	ldr	r3, [pc, #264]	; (25e0 <navigate_home+0x14c>)
    24d6:	781b      	ldrb	r3, [r3, #0]
    24d8:	2b02      	cmp	r3, #2
    24da:	d05d      	beq.n	2598 <navigate_home+0x104>
    24dc:	dd00      	ble.n	24e0 <navigate_home+0x4c>
    24de:	e075      	b.n	25cc <navigate_home+0x138>
    24e0:	2b00      	cmp	r3, #0
    24e2:	d002      	beq.n	24ea <navigate_home+0x56>
    24e4:	2b01      	cmp	r3, #1
    24e6:	d01f      	beq.n	2528 <navigate_home+0x94>
    24e8:	e070      	b.n	25cc <navigate_home+0x138>
    24ea:	4b3c      	ldr	r3, [pc, #240]	; (25dc <navigate_home+0x148>)
    24ec:	781b      	ldrb	r3, [r3, #0]
    24ee:	b25b      	sxtb	r3, r3
    24f0:	2b02      	cmp	r3, #2
    24f2:	d111      	bne.n	2518 <navigate_home+0x84>
    24f4:	4b3a      	ldr	r3, [pc, #232]	; (25e0 <navigate_home+0x14c>)
    24f6:	2201      	movs	r2, #1
    24f8:	701a      	strb	r2, [r3, #0]
    24fa:	f7fe fa47 	bl	98c <timer_get_time_ms>
    24fe:	0002      	movs	r2, r0
    2500:	4b38      	ldr	r3, [pc, #224]	; (25e4 <navigate_home+0x150>)
    2502:	601a      	str	r2, [r3, #0]
    2504:	4b38      	ldr	r3, [pc, #224]	; (25e8 <navigate_home+0x154>)
    2506:	781b      	ldrb	r3, [r3, #0]
    2508:	2b09      	cmp	r3, #9
    250a:	d805      	bhi.n	2518 <navigate_home+0x84>
    250c:	4b36      	ldr	r3, [pc, #216]	; (25e8 <navigate_home+0x154>)
    250e:	781b      	ldrb	r3, [r3, #0]
    2510:	3301      	adds	r3, #1
    2512:	b2da      	uxtb	r2, r3
    2514:	4b34      	ldr	r3, [pc, #208]	; (25e8 <navigate_home+0x154>)
    2516:	701a      	strb	r2, [r3, #0]
    2518:	4b30      	ldr	r3, [pc, #192]	; (25dc <navigate_home+0x148>)
    251a:	781b      	ldrb	r3, [r3, #0]
    251c:	b25b      	sxtb	r3, r3
    251e:	0019      	movs	r1, r3
    2520:	2032      	movs	r0, #50	; 0x32
    2522:	f000 f915 	bl	2750 <drive>
    2526:	e051      	b.n	25cc <navigate_home+0x138>
    2528:	4b2f      	ldr	r3, [pc, #188]	; (25e8 <navigate_home+0x154>)
    252a:	781b      	ldrb	r3, [r3, #0]
    252c:	b29a      	uxth	r2, r3
    252e:	4b2f      	ldr	r3, [pc, #188]	; (25ec <navigate_home+0x158>)
    2530:	881b      	ldrh	r3, [r3, #0]
    2532:	429a      	cmp	r2, r3
    2534:	d819      	bhi.n	256a <navigate_home+0xd6>
    2536:	4b29      	ldr	r3, [pc, #164]	; (25dc <navigate_home+0x148>)
    2538:	781b      	ldrb	r3, [r3, #0]
    253a:	b25b      	sxtb	r3, r3
    253c:	2b02      	cmp	r3, #2
    253e:	d10c      	bne.n	255a <navigate_home+0xc6>
    2540:	4b2a      	ldr	r3, [pc, #168]	; (25ec <navigate_home+0x158>)
    2542:	881b      	ldrh	r3, [r3, #0]
    2544:	001a      	movs	r2, r3
    2546:	4b28      	ldr	r3, [pc, #160]	; (25e8 <navigate_home+0x154>)
    2548:	781b      	ldrb	r3, [r3, #0]
    254a:	1ad3      	subs	r3, r2, r3
    254c:	4a28      	ldr	r2, [pc, #160]	; (25f0 <navigate_home+0x15c>)
    254e:	56d3      	ldrsb	r3, [r2, r3]
    2550:	0019      	movs	r1, r3
    2552:	2032      	movs	r0, #50	; 0x32
    2554:	f000 f8fc 	bl	2750 <drive>
    2558:	e00b      	b.n	2572 <navigate_home+0xde>
    255a:	4b20      	ldr	r3, [pc, #128]	; (25dc <navigate_home+0x148>)
    255c:	781b      	ldrb	r3, [r3, #0]
    255e:	b25b      	sxtb	r3, r3
    2560:	0019      	movs	r1, r3
    2562:	2032      	movs	r0, #50	; 0x32
    2564:	f000 f8f4 	bl	2750 <drive>
    2568:	e003      	b.n	2572 <navigate_home+0xde>
    256a:	4b1d      	ldr	r3, [pc, #116]	; (25e0 <navigate_home+0x14c>)
    256c:	2202      	movs	r2, #2
    256e:	701a      	strb	r2, [r3, #0]
    2570:	e02c      	b.n	25cc <navigate_home+0x138>
    2572:	4b1a      	ldr	r3, [pc, #104]	; (25dc <navigate_home+0x148>)
    2574:	781b      	ldrb	r3, [r3, #0]
    2576:	b25b      	sxtb	r3, r3
    2578:	2b02      	cmp	r3, #2
    257a:	d026      	beq.n	25ca <navigate_home+0x136>
    257c:	f7fe fa06 	bl	98c <timer_get_time_ms>
    2580:	0002      	movs	r2, r0
    2582:	4b18      	ldr	r3, [pc, #96]	; (25e4 <navigate_home+0x150>)
    2584:	681b      	ldr	r3, [r3, #0]
    2586:	1ad2      	subs	r2, r2, r3
    2588:	23fa      	movs	r3, #250	; 0xfa
    258a:	005b      	lsls	r3, r3, #1
    258c:	429a      	cmp	r2, r3
    258e:	d91c      	bls.n	25ca <navigate_home+0x136>
    2590:	4b13      	ldr	r3, [pc, #76]	; (25e0 <navigate_home+0x14c>)
    2592:	2200      	movs	r2, #0
    2594:	701a      	strb	r2, [r3, #0]
    2596:	e018      	b.n	25ca <navigate_home+0x136>
    2598:	4b10      	ldr	r3, [pc, #64]	; (25dc <navigate_home+0x148>)
    259a:	781b      	ldrb	r3, [r3, #0]
    259c:	b25b      	sxtb	r3, r3
    259e:	0019      	movs	r1, r3
    25a0:	2000      	movs	r0, #0
    25a2:	f000 f8d5 	bl	2750 <drive>
    25a6:	1dbb      	adds	r3, r7, #6
    25a8:	2200      	movs	r2, #0
    25aa:	5e9b      	ldrsh	r3, [r3, r2]
    25ac:	2b00      	cmp	r3, #0
    25ae:	dd03      	ble.n	25b8 <navigate_home+0x124>
    25b0:	2001      	movs	r0, #1
    25b2:	f7ff f9b9 	bl	1928 <led_matrix_display_symbol>
    25b6:	e004      	b.n	25c2 <navigate_home+0x12e>
    25b8:	2301      	movs	r3, #1
    25ba:	425b      	negs	r3, r3
    25bc:	0018      	movs	r0, r3
    25be:	f7ff f9b3 	bl	1928 <led_matrix_display_symbol>
    25c2:	4b0c      	ldr	r3, [pc, #48]	; (25f4 <navigate_home+0x160>)
    25c4:	2209      	movs	r2, #9
    25c6:	701a      	strb	r2, [r3, #0]
    25c8:	e000      	b.n	25cc <navigate_home+0x138>
    25ca:	46c0      	nop			; (mov r8, r8)
    25cc:	46c0      	nop			; (mov r8, r8)
    25ce:	46bd      	mov	sp, r7
    25d0:	b002      	add	sp, #8
    25d2:	bd80      	pop	{r7, pc}
    25d4:	200000f0 	.word	0x200000f0
    25d8:	200000f1 	.word	0x200000f1
    25dc:	200000f3 	.word	0x200000f3
    25e0:	200000f2 	.word	0x200000f2
    25e4:	200000f4 	.word	0x200000f4
    25e8:	200000f8 	.word	0x200000f8
    25ec:	200000da 	.word	0x200000da
    25f0:	200000d0 	.word	0x200000d0
    25f4:	200000ec 	.word	0x200000ec

000025f8 <goto_barrier>:
    25f8:	b5b0      	push	{r4, r5, r7, lr}
    25fa:	b082      	sub	sp, #8
    25fc:	af00      	add	r7, sp, #0
    25fe:	f000 fb47 	bl	2c90 <ultrasonic_sensor_get_distance_cm>
    2602:	0003      	movs	r3, r0
    2604:	603b      	str	r3, [r7, #0]
    2606:	683a      	ldr	r2, [r7, #0]
    2608:	4b1f      	ldr	r3, [pc, #124]	; (2688 <goto_barrier+0x90>)
    260a:	0011      	movs	r1, r2
    260c:	0018      	movs	r0, r3
    260e:	f001 f999 	bl	3944 <iprintf>
    2612:	2000      	movs	r0, #0
    2614:	f000 f986 	bl	2924 <light_sensor_get_value>
    2618:	0002      	movs	r2, r0
    261a:	4b1c      	ldr	r3, [pc, #112]	; (268c <goto_barrier+0x94>)
    261c:	0011      	movs	r1, r2
    261e:	0018      	movs	r0, r3
    2620:	f001 f990 	bl	3944 <iprintf>
    2624:	683b      	ldr	r3, [r7, #0]
    2626:	2b05      	cmp	r3, #5
    2628:	d109      	bne.n	263e <goto_barrier+0x46>
    262a:	2100      	movs	r1, #0
    262c:	2000      	movs	r0, #0
    262e:	f000 fa3b 	bl	2aa8 <motor_set_percent>
    2632:	2100      	movs	r1, #0
    2634:	2001      	movs	r0, #1
    2636:	f000 fa37 	bl	2aa8 <motor_set_percent>
    263a:	2301      	movs	r3, #1
    263c:	e01f      	b.n	267e <goto_barrier+0x86>
    263e:	2000      	movs	r0, #0
    2640:	f000 fc0e 	bl	2e60 <line_sensor_is_line_present>
    2644:	0003      	movs	r3, r0
    2646:	001d      	movs	r5, r3
    2648:	2001      	movs	r0, #1
    264a:	f000 fc09 	bl	2e60 <line_sensor_is_line_present>
    264e:	0003      	movs	r3, r0
    2650:	1dfc      	adds	r4, r7, #7
    2652:	0019      	movs	r1, r3
    2654:	0028      	movs	r0, r5
    2656:	f7ff fc18 	bl	1e8a <get_line_state>
    265a:	0003      	movs	r3, r0
    265c:	7023      	strb	r3, [r4, #0]
    265e:	1dfb      	adds	r3, r7, #7
    2660:	781b      	ldrb	r3, [r3, #0]
    2662:	b25b      	sxtb	r3, r3
    2664:	2b02      	cmp	r3, #2
    2666:	d102      	bne.n	266e <goto_barrier+0x76>
    2668:	1dfb      	adds	r3, r7, #7
    266a:	2200      	movs	r2, #0
    266c:	701a      	strb	r2, [r3, #0]
    266e:	1dfb      	adds	r3, r7, #7
    2670:	781b      	ldrb	r3, [r3, #0]
    2672:	b25b      	sxtb	r3, r3
    2674:	0019      	movs	r1, r3
    2676:	201e      	movs	r0, #30
    2678:	f000 f86a 	bl	2750 <drive>
    267c:	2300      	movs	r3, #0
    267e:	0018      	movs	r0, r3
    2680:	46bd      	mov	sp, r7
    2682:	b002      	add	sp, #8
    2684:	bdb0      	pop	{r4, r5, r7, pc}
    2686:	46c0      	nop			; (mov r8, r8)
    2688:	00005dfc 	.word	0x00005dfc
    268c:	00005e14 	.word	0x00005e14

00002690 <barrier_lifted>:
    2690:	b580      	push	{r7, lr}
    2692:	af00      	add	r7, sp, #0
    2694:	f000 fafc 	bl	2c90 <ultrasonic_sensor_get_distance_cm>
    2698:	0003      	movs	r3, r0
    269a:	2b0f      	cmp	r3, #15
    269c:	d901      	bls.n	26a2 <barrier_lifted+0x12>
    269e:	2301      	movs	r3, #1
    26a0:	e000      	b.n	26a4 <barrier_lifted+0x14>
    26a2:	2300      	movs	r3, #0
    26a4:	0018      	movs	r0, r3
    26a6:	46bd      	mov	sp, r7
    26a8:	bd80      	pop	{r7, pc}
	...

000026ac <goto_lamp>:
    26ac:	b5b0      	push	{r4, r5, r7, lr}
    26ae:	b082      	sub	sp, #8
    26b0:	af00      	add	r7, sp, #0
    26b2:	2000      	movs	r0, #0
    26b4:	f000 f936 	bl	2924 <light_sensor_get_value>
    26b8:	0002      	movs	r2, r0
    26ba:	4b23      	ldr	r3, [pc, #140]	; (2748 <goto_lamp+0x9c>)
    26bc:	0011      	movs	r1, r2
    26be:	0018      	movs	r0, r3
    26c0:	f001 f940 	bl	3944 <iprintf>
    26c4:	2000      	movs	r0, #0
    26c6:	f000 f92d 	bl	2924 <light_sensor_get_value>
    26ca:	0004      	movs	r4, r0
    26cc:	4b1f      	ldr	r3, [pc, #124]	; (274c <goto_lamp+0xa0>)
    26ce:	881b      	ldrh	r3, [r3, #0]
    26d0:	2103      	movs	r1, #3
    26d2:	0018      	movs	r0, r3
    26d4:	f002 f9dc 	bl	4a90 <__udivsi3>
    26d8:	0003      	movs	r3, r0
    26da:	b29b      	uxth	r3, r3
    26dc:	429c      	cmp	r4, r3
    26de:	da17      	bge.n	2710 <goto_lamp+0x64>
    26e0:	2001      	movs	r0, #1
    26e2:	f000 f91f 	bl	2924 <light_sensor_get_value>
    26e6:	0004      	movs	r4, r0
    26e8:	4b18      	ldr	r3, [pc, #96]	; (274c <goto_lamp+0xa0>)
    26ea:	881b      	ldrh	r3, [r3, #0]
    26ec:	2103      	movs	r1, #3
    26ee:	0018      	movs	r0, r3
    26f0:	f002 f9ce 	bl	4a90 <__udivsi3>
    26f4:	0003      	movs	r3, r0
    26f6:	b29b      	uxth	r3, r3
    26f8:	429c      	cmp	r4, r3
    26fa:	da09      	bge.n	2710 <goto_lamp+0x64>
    26fc:	2100      	movs	r1, #0
    26fe:	2000      	movs	r0, #0
    2700:	f000 f9d2 	bl	2aa8 <motor_set_percent>
    2704:	2100      	movs	r1, #0
    2706:	2001      	movs	r0, #1
    2708:	f000 f9ce 	bl	2aa8 <motor_set_percent>
    270c:	2301      	movs	r3, #1
    270e:	e017      	b.n	2740 <goto_lamp+0x94>
    2710:	2000      	movs	r0, #0
    2712:	f000 fba5 	bl	2e60 <line_sensor_is_line_present>
    2716:	0003      	movs	r3, r0
    2718:	001d      	movs	r5, r3
    271a:	2001      	movs	r0, #1
    271c:	f000 fba0 	bl	2e60 <line_sensor_is_line_present>
    2720:	0003      	movs	r3, r0
    2722:	1dfc      	adds	r4, r7, #7
    2724:	0019      	movs	r1, r3
    2726:	0028      	movs	r0, r5
    2728:	f7ff fbaf 	bl	1e8a <get_line_state>
    272c:	0003      	movs	r3, r0
    272e:	7023      	strb	r3, [r4, #0]
    2730:	1dfb      	adds	r3, r7, #7
    2732:	781b      	ldrb	r3, [r3, #0]
    2734:	b25b      	sxtb	r3, r3
    2736:	0019      	movs	r1, r3
    2738:	2032      	movs	r0, #50	; 0x32
    273a:	f000 f809 	bl	2750 <drive>
    273e:	2300      	movs	r3, #0
    2740:	0018      	movs	r0, r3
    2742:	46bd      	mov	sp, r7
    2744:	b002      	add	sp, #8
    2746:	bdb0      	pop	{r4, r5, r7, pc}
    2748:	00005e24 	.word	0x00005e24
    274c:	200000fa 	.word	0x200000fa

00002750 <drive>:
    2750:	b580      	push	{r7, lr}
    2752:	b082      	sub	sp, #8
    2754:	af00      	add	r7, sp, #0
    2756:	0002      	movs	r2, r0
    2758:	1dbb      	adds	r3, r7, #6
    275a:	801a      	strh	r2, [r3, #0]
    275c:	1d7b      	adds	r3, r7, #5
    275e:	1c0a      	adds	r2, r1, #0
    2760:	701a      	strb	r2, [r3, #0]
    2762:	1dbb      	adds	r3, r7, #6
    2764:	2200      	movs	r2, #0
    2766:	5e9a      	ldrsh	r2, [r3, r2]
    2768:	4b05      	ldr	r3, [pc, #20]	; (2780 <drive+0x30>)
    276a:	601a      	str	r2, [r3, #0]
    276c:	1d7b      	adds	r3, r7, #5
    276e:	781b      	ldrb	r3, [r3, #0]
    2770:	b25b      	sxtb	r3, r3
    2772:	0018      	movs	r0, r3
    2774:	f7ff fbc8 	bl	1f08 <line_following>
    2778:	46c0      	nop			; (mov r8, r8)
    277a:	46bd      	mov	sp, r7
    277c:	b002      	add	sp, #8
    277e:	bd80      	pop	{r7, pc}
    2780:	20000008 	.word	0x20000008

00002784 <nrf_gpio_cfg>:
    2784:	b590      	push	{r4, r7, lr}
    2786:	b083      	sub	sp, #12
    2788:	af00      	add	r7, sp, #0
    278a:	6078      	str	r0, [r7, #4]
    278c:	000c      	movs	r4, r1
    278e:	0010      	movs	r0, r2
    2790:	0019      	movs	r1, r3
    2792:	1cfb      	adds	r3, r7, #3
    2794:	1c22      	adds	r2, r4, #0
    2796:	701a      	strb	r2, [r3, #0]
    2798:	1cbb      	adds	r3, r7, #2
    279a:	1c02      	adds	r2, r0, #0
    279c:	701a      	strb	r2, [r3, #0]
    279e:	1c7b      	adds	r3, r7, #1
    27a0:	1c0a      	adds	r2, r1, #0
    27a2:	701a      	strb	r2, [r3, #0]
    27a4:	1cfb      	adds	r3, r7, #3
    27a6:	781a      	ldrb	r2, [r3, #0]
    27a8:	1cbb      	adds	r3, r7, #2
    27aa:	781b      	ldrb	r3, [r3, #0]
    27ac:	005b      	lsls	r3, r3, #1
    27ae:	431a      	orrs	r2, r3
    27b0:	1c7b      	adds	r3, r7, #1
    27b2:	781b      	ldrb	r3, [r3, #0]
    27b4:	009b      	lsls	r3, r3, #2
    27b6:	431a      	orrs	r2, r3
    27b8:	2318      	movs	r3, #24
    27ba:	18fb      	adds	r3, r7, r3
    27bc:	781b      	ldrb	r3, [r3, #0]
    27be:	021b      	lsls	r3, r3, #8
    27c0:	431a      	orrs	r2, r3
    27c2:	0011      	movs	r1, r2
    27c4:	231c      	movs	r3, #28
    27c6:	18fb      	adds	r3, r7, r3
    27c8:	781b      	ldrb	r3, [r3, #0]
    27ca:	041a      	lsls	r2, r3, #16
    27cc:	23a0      	movs	r3, #160	; 0xa0
    27ce:	05db      	lsls	r3, r3, #23
    27d0:	4311      	orrs	r1, r2
    27d2:	687a      	ldr	r2, [r7, #4]
    27d4:	32c1      	adds	r2, #193	; 0xc1
    27d6:	32ff      	adds	r2, #255	; 0xff
    27d8:	0092      	lsls	r2, r2, #2
    27da:	50d1      	str	r1, [r2, r3]
    27dc:	46c0      	nop			; (mov r8, r8)
    27de:	46bd      	mov	sp, r7
    27e0:	b003      	add	sp, #12
    27e2:	bd90      	pop	{r4, r7, pc}

000027e4 <nrf_gpio_cfg_output>:
    27e4:	b580      	push	{r7, lr}
    27e6:	b084      	sub	sp, #16
    27e8:	af02      	add	r7, sp, #8
    27ea:	6078      	str	r0, [r7, #4]
    27ec:	6878      	ldr	r0, [r7, #4]
    27ee:	2300      	movs	r3, #0
    27f0:	9301      	str	r3, [sp, #4]
    27f2:	2300      	movs	r3, #0
    27f4:	9300      	str	r3, [sp, #0]
    27f6:	2300      	movs	r3, #0
    27f8:	2201      	movs	r2, #1
    27fa:	2101      	movs	r1, #1
    27fc:	f7ff ffc2 	bl	2784 <nrf_gpio_cfg>
    2800:	46c0      	nop			; (mov r8, r8)
    2802:	46bd      	mov	sp, r7
    2804:	b002      	add	sp, #8
    2806:	bd80      	pop	{r7, pc}

00002808 <nrf_gpio_cfg_input>:
    2808:	b580      	push	{r7, lr}
    280a:	b084      	sub	sp, #16
    280c:	af02      	add	r7, sp, #8
    280e:	6078      	str	r0, [r7, #4]
    2810:	000a      	movs	r2, r1
    2812:	1cfb      	adds	r3, r7, #3
    2814:	701a      	strb	r2, [r3, #0]
    2816:	1cfb      	adds	r3, r7, #3
    2818:	781b      	ldrb	r3, [r3, #0]
    281a:	6878      	ldr	r0, [r7, #4]
    281c:	2200      	movs	r2, #0
    281e:	9201      	str	r2, [sp, #4]
    2820:	2200      	movs	r2, #0
    2822:	9200      	str	r2, [sp, #0]
    2824:	2200      	movs	r2, #0
    2826:	2100      	movs	r1, #0
    2828:	f7ff ffac 	bl	2784 <nrf_gpio_cfg>
    282c:	46c0      	nop			; (mov r8, r8)
    282e:	46bd      	mov	sp, r7
    2830:	b002      	add	sp, #8
    2832:	bd80      	pop	{r7, pc}

00002834 <nrf_gpio_pin_set>:
    2834:	b580      	push	{r7, lr}
    2836:	b082      	sub	sp, #8
    2838:	af00      	add	r7, sp, #0
    283a:	6078      	str	r0, [r7, #4]
    283c:	23a0      	movs	r3, #160	; 0xa0
    283e:	05da      	lsls	r2, r3, #23
    2840:	2101      	movs	r1, #1
    2842:	687b      	ldr	r3, [r7, #4]
    2844:	4099      	lsls	r1, r3
    2846:	23a1      	movs	r3, #161	; 0xa1
    2848:	00db      	lsls	r3, r3, #3
    284a:	50d1      	str	r1, [r2, r3]
    284c:	46c0      	nop			; (mov r8, r8)
    284e:	46bd      	mov	sp, r7
    2850:	b002      	add	sp, #8
    2852:	bd80      	pop	{r7, pc}

00002854 <nrf_gpio_pin_clear>:
    2854:	b580      	push	{r7, lr}
    2856:	b082      	sub	sp, #8
    2858:	af00      	add	r7, sp, #0
    285a:	6078      	str	r0, [r7, #4]
    285c:	23a0      	movs	r3, #160	; 0xa0
    285e:	05db      	lsls	r3, r3, #23
    2860:	2101      	movs	r1, #1
    2862:	687a      	ldr	r2, [r7, #4]
    2864:	4091      	lsls	r1, r2
    2866:	000a      	movs	r2, r1
    2868:	4902      	ldr	r1, [pc, #8]	; (2874 <nrf_gpio_pin_clear+0x20>)
    286a:	505a      	str	r2, [r3, r1]
    286c:	46c0      	nop			; (mov r8, r8)
    286e:	46bd      	mov	sp, r7
    2870:	b002      	add	sp, #8
    2872:	bd80      	pop	{r7, pc}
    2874:	0000050c 	.word	0x0000050c

00002878 <nrf_gpio_pin_write>:
    2878:	b580      	push	{r7, lr}
    287a:	b082      	sub	sp, #8
    287c:	af00      	add	r7, sp, #0
    287e:	6078      	str	r0, [r7, #4]
    2880:	6039      	str	r1, [r7, #0]
    2882:	683b      	ldr	r3, [r7, #0]
    2884:	2b00      	cmp	r3, #0
    2886:	d104      	bne.n	2892 <nrf_gpio_pin_write+0x1a>
    2888:	687b      	ldr	r3, [r7, #4]
    288a:	0018      	movs	r0, r3
    288c:	f7ff ffe2 	bl	2854 <nrf_gpio_pin_clear>
    2890:	e003      	b.n	289a <nrf_gpio_pin_write+0x22>
    2892:	687b      	ldr	r3, [r7, #4]
    2894:	0018      	movs	r0, r3
    2896:	f7ff ffcd 	bl	2834 <nrf_gpio_pin_set>
    289a:	46c0      	nop			; (mov r8, r8)
    289c:	46bd      	mov	sp, r7
    289e:	b002      	add	sp, #8
    28a0:	bd80      	pop	{r7, pc}
	...

000028a4 <light_sensor_init>:
    28a4:	b580      	push	{r7, lr}
    28a6:	b082      	sub	sp, #8
    28a8:	af00      	add	r7, sp, #0
    28aa:	f7fe fde3 	bl	1474 <adc_init>
    28ae:	2010      	movs	r0, #16
    28b0:	f7ff ff98 	bl	27e4 <nrf_gpio_cfg_output>
    28b4:	2100      	movs	r1, #0
    28b6:	2002      	movs	r0, #2
    28b8:	f7ff ffa6 	bl	2808 <nrf_gpio_cfg_input>
    28bc:	23fa      	movs	r3, #250	; 0xfa
    28be:	00db      	lsls	r3, r3, #3
    28c0:	0018      	movs	r0, r3
    28c2:	f7fe f887 	bl	9d4 <timer_wait_ms>
    28c6:	2300      	movs	r3, #0
    28c8:	607b      	str	r3, [r7, #4]
    28ca:	e018      	b.n	28fe <light_sensor_init+0x5a>
    28cc:	2000      	movs	r0, #0
    28ce:	f000 f829 	bl	2924 <light_sensor_get_value>
    28d2:	0003      	movs	r3, r0
    28d4:	b29a      	uxth	r2, r3
    28d6:	4b12      	ldr	r3, [pc, #72]	; (2920 <light_sensor_init+0x7c>)
    28d8:	881b      	ldrh	r3, [r3, #0]
    28da:	18d3      	adds	r3, r2, r3
    28dc:	b29a      	uxth	r2, r3
    28de:	4b10      	ldr	r3, [pc, #64]	; (2920 <light_sensor_init+0x7c>)
    28e0:	801a      	strh	r2, [r3, #0]
    28e2:	2001      	movs	r0, #1
    28e4:	f000 f81e 	bl	2924 <light_sensor_get_value>
    28e8:	0003      	movs	r3, r0
    28ea:	b29a      	uxth	r2, r3
    28ec:	4b0c      	ldr	r3, [pc, #48]	; (2920 <light_sensor_init+0x7c>)
    28ee:	881b      	ldrh	r3, [r3, #0]
    28f0:	18d3      	adds	r3, r2, r3
    28f2:	b29a      	uxth	r2, r3
    28f4:	4b0a      	ldr	r3, [pc, #40]	; (2920 <light_sensor_init+0x7c>)
    28f6:	801a      	strh	r2, [r3, #0]
    28f8:	687b      	ldr	r3, [r7, #4]
    28fa:	3301      	adds	r3, #1
    28fc:	607b      	str	r3, [r7, #4]
    28fe:	687b      	ldr	r3, [r7, #4]
    2900:	2b04      	cmp	r3, #4
    2902:	dde3      	ble.n	28cc <light_sensor_init+0x28>
    2904:	4b06      	ldr	r3, [pc, #24]	; (2920 <light_sensor_init+0x7c>)
    2906:	881b      	ldrh	r3, [r3, #0]
    2908:	210a      	movs	r1, #10
    290a:	0018      	movs	r0, r3
    290c:	f002 f8c0 	bl	4a90 <__udivsi3>
    2910:	0003      	movs	r3, r0
    2912:	b29a      	uxth	r2, r3
    2914:	4b02      	ldr	r3, [pc, #8]	; (2920 <light_sensor_init+0x7c>)
    2916:	801a      	strh	r2, [r3, #0]
    2918:	46c0      	nop			; (mov r8, r8)
    291a:	46bd      	mov	sp, r7
    291c:	b002      	add	sp, #8
    291e:	bd80      	pop	{r7, pc}
    2920:	200000fa 	.word	0x200000fa

00002924 <light_sensor_get_value>:
    2924:	b580      	push	{r7, lr}
    2926:	b082      	sub	sp, #8
    2928:	af00      	add	r7, sp, #0
    292a:	0002      	movs	r2, r0
    292c:	1dfb      	adds	r3, r7, #7
    292e:	701a      	strb	r2, [r3, #0]
    2930:	1dfb      	adds	r3, r7, #7
    2932:	781b      	ldrb	r3, [r3, #0]
    2934:	2b00      	cmp	r3, #0
    2936:	d009      	beq.n	294c <light_sensor_get_value+0x28>
    2938:	1dfb      	adds	r3, r7, #7
    293a:	781b      	ldrb	r3, [r3, #0]
    293c:	2b01      	cmp	r3, #1
    293e:	d005      	beq.n	294c <light_sensor_get_value+0x28>
    2940:	4b0b      	ldr	r3, [pc, #44]	; (2970 <light_sensor_get_value+0x4c>)
    2942:	4a0c      	ldr	r2, [pc, #48]	; (2974 <light_sensor_get_value+0x50>)
    2944:	480c      	ldr	r0, [pc, #48]	; (2978 <light_sensor_get_value+0x54>)
    2946:	2123      	movs	r1, #35	; 0x23
    2948:	f000 fc68 	bl	321c <__assert_func>
    294c:	1dfb      	adds	r3, r7, #7
    294e:	781b      	ldrb	r3, [r3, #0]
    2950:	3b01      	subs	r3, #1
    2952:	425a      	negs	r2, r3
    2954:	4153      	adcs	r3, r2
    2956:	b2db      	uxtb	r3, r3
    2958:	0019      	movs	r1, r3
    295a:	2010      	movs	r0, #16
    295c:	f7ff ff8c 	bl	2878 <nrf_gpio_pin_write>
    2960:	2002      	movs	r0, #2
    2962:	f7fe fd99 	bl	1498 <adc_get_value>
    2966:	0003      	movs	r3, r0
    2968:	0018      	movs	r0, r3
    296a:	46bd      	mov	sp, r7
    296c:	b002      	add	sp, #8
    296e:	bd80      	pop	{r7, pc}
    2970:	00005e34 	.word	0x00005e34
    2974:	00005e88 	.word	0x00005e88
    2978:	00005e70 	.word	0x00005e70

0000297c <nrf_gpio_cfg>:
    297c:	b590      	push	{r4, r7, lr}
    297e:	b083      	sub	sp, #12
    2980:	af00      	add	r7, sp, #0
    2982:	6078      	str	r0, [r7, #4]
    2984:	000c      	movs	r4, r1
    2986:	0010      	movs	r0, r2
    2988:	0019      	movs	r1, r3
    298a:	1cfb      	adds	r3, r7, #3
    298c:	1c22      	adds	r2, r4, #0
    298e:	701a      	strb	r2, [r3, #0]
    2990:	1cbb      	adds	r3, r7, #2
    2992:	1c02      	adds	r2, r0, #0
    2994:	701a      	strb	r2, [r3, #0]
    2996:	1c7b      	adds	r3, r7, #1
    2998:	1c0a      	adds	r2, r1, #0
    299a:	701a      	strb	r2, [r3, #0]
    299c:	1cfb      	adds	r3, r7, #3
    299e:	781a      	ldrb	r2, [r3, #0]
    29a0:	1cbb      	adds	r3, r7, #2
    29a2:	781b      	ldrb	r3, [r3, #0]
    29a4:	005b      	lsls	r3, r3, #1
    29a6:	431a      	orrs	r2, r3
    29a8:	1c7b      	adds	r3, r7, #1
    29aa:	781b      	ldrb	r3, [r3, #0]
    29ac:	009b      	lsls	r3, r3, #2
    29ae:	431a      	orrs	r2, r3
    29b0:	2318      	movs	r3, #24
    29b2:	18fb      	adds	r3, r7, r3
    29b4:	781b      	ldrb	r3, [r3, #0]
    29b6:	021b      	lsls	r3, r3, #8
    29b8:	431a      	orrs	r2, r3
    29ba:	0011      	movs	r1, r2
    29bc:	231c      	movs	r3, #28
    29be:	18fb      	adds	r3, r7, r3
    29c0:	781b      	ldrb	r3, [r3, #0]
    29c2:	041a      	lsls	r2, r3, #16
    29c4:	23a0      	movs	r3, #160	; 0xa0
    29c6:	05db      	lsls	r3, r3, #23
    29c8:	4311      	orrs	r1, r2
    29ca:	687a      	ldr	r2, [r7, #4]
    29cc:	32c1      	adds	r2, #193	; 0xc1
    29ce:	32ff      	adds	r2, #255	; 0xff
    29d0:	0092      	lsls	r2, r2, #2
    29d2:	50d1      	str	r1, [r2, r3]
    29d4:	46c0      	nop			; (mov r8, r8)
    29d6:	46bd      	mov	sp, r7
    29d8:	b003      	add	sp, #12
    29da:	bd90      	pop	{r4, r7, pc}

000029dc <nrf_gpio_cfg_output>:
    29dc:	b580      	push	{r7, lr}
    29de:	b084      	sub	sp, #16
    29e0:	af02      	add	r7, sp, #8
    29e2:	6078      	str	r0, [r7, #4]
    29e4:	6878      	ldr	r0, [r7, #4]
    29e6:	2300      	movs	r3, #0
    29e8:	9301      	str	r3, [sp, #4]
    29ea:	2300      	movs	r3, #0
    29ec:	9300      	str	r3, [sp, #0]
    29ee:	2300      	movs	r3, #0
    29f0:	2201      	movs	r2, #1
    29f2:	2101      	movs	r1, #1
    29f4:	f7ff ffc2 	bl	297c <nrf_gpio_cfg>
    29f8:	46c0      	nop			; (mov r8, r8)
    29fa:	46bd      	mov	sp, r7
    29fc:	b002      	add	sp, #8
    29fe:	bd80      	pop	{r7, pc}

00002a00 <nrf_gpio_pin_set>:
    2a00:	b580      	push	{r7, lr}
    2a02:	b082      	sub	sp, #8
    2a04:	af00      	add	r7, sp, #0
    2a06:	6078      	str	r0, [r7, #4]
    2a08:	23a0      	movs	r3, #160	; 0xa0
    2a0a:	05da      	lsls	r2, r3, #23
    2a0c:	2101      	movs	r1, #1
    2a0e:	687b      	ldr	r3, [r7, #4]
    2a10:	4099      	lsls	r1, r3
    2a12:	23a1      	movs	r3, #161	; 0xa1
    2a14:	00db      	lsls	r3, r3, #3
    2a16:	50d1      	str	r1, [r2, r3]
    2a18:	46c0      	nop			; (mov r8, r8)
    2a1a:	46bd      	mov	sp, r7
    2a1c:	b002      	add	sp, #8
    2a1e:	bd80      	pop	{r7, pc}

00002a20 <nrf_gpio_pin_clear>:
    2a20:	b580      	push	{r7, lr}
    2a22:	b082      	sub	sp, #8
    2a24:	af00      	add	r7, sp, #0
    2a26:	6078      	str	r0, [r7, #4]
    2a28:	23a0      	movs	r3, #160	; 0xa0
    2a2a:	05db      	lsls	r3, r3, #23
    2a2c:	2101      	movs	r1, #1
    2a2e:	687a      	ldr	r2, [r7, #4]
    2a30:	4091      	lsls	r1, r2
    2a32:	000a      	movs	r2, r1
    2a34:	4902      	ldr	r1, [pc, #8]	; (2a40 <nrf_gpio_pin_clear+0x20>)
    2a36:	505a      	str	r2, [r3, r1]
    2a38:	46c0      	nop			; (mov r8, r8)
    2a3a:	46bd      	mov	sp, r7
    2a3c:	b002      	add	sp, #8
    2a3e:	bd80      	pop	{r7, pc}
    2a40:	0000050c 	.word	0x0000050c

00002a44 <nrf_gpio_pin_write>:
    2a44:	b580      	push	{r7, lr}
    2a46:	b082      	sub	sp, #8
    2a48:	af00      	add	r7, sp, #0
    2a4a:	6078      	str	r0, [r7, #4]
    2a4c:	6039      	str	r1, [r7, #0]
    2a4e:	683b      	ldr	r3, [r7, #0]
    2a50:	2b00      	cmp	r3, #0
    2a52:	d104      	bne.n	2a5e <nrf_gpio_pin_write+0x1a>
    2a54:	687b      	ldr	r3, [r7, #4]
    2a56:	0018      	movs	r0, r3
    2a58:	f7ff ffe2 	bl	2a20 <nrf_gpio_pin_clear>
    2a5c:	e003      	b.n	2a66 <nrf_gpio_pin_write+0x22>
    2a5e:	687b      	ldr	r3, [r7, #4]
    2a60:	0018      	movs	r0, r3
    2a62:	f7ff ffcd 	bl	2a00 <nrf_gpio_pin_set>
    2a66:	46c0      	nop			; (mov r8, r8)
    2a68:	46bd      	mov	sp, r7
    2a6a:	b002      	add	sp, #8
    2a6c:	bd80      	pop	{r7, pc}
	...

00002a70 <motor_init>:
    2a70:	b580      	push	{r7, lr}
    2a72:	af00      	add	r7, sp, #0
    2a74:	4b0b      	ldr	r3, [pc, #44]	; (2aa4 <motor_init+0x34>)
    2a76:	0018      	movs	r0, r3
    2a78:	f7fe fa26 	bl	ec8 <pwm_init>
    2a7c:	2200      	movs	r2, #0
    2a7e:	2103      	movs	r1, #3
    2a80:	2000      	movs	r0, #0
    2a82:	f7fe fabd 	bl	1000 <pwm_channel_init>
    2a86:	2200      	movs	r2, #0
    2a88:	2102      	movs	r1, #2
    2a8a:	2001      	movs	r0, #1
    2a8c:	f7fe fab8 	bl	1000 <pwm_channel_init>
    2a90:	2012      	movs	r0, #18
    2a92:	f7ff ffa3 	bl	29dc <nrf_gpio_cfg_output>
    2a96:	2014      	movs	r0, #20
    2a98:	f7ff ffa0 	bl	29dc <nrf_gpio_cfg_output>
    2a9c:	46c0      	nop			; (mov r8, r8)
    2a9e:	46bd      	mov	sp, r7
    2aa0:	bd80      	pop	{r7, pc}
    2aa2:	46c0      	nop			; (mov r8, r8)
    2aa4:	00004e20 	.word	0x00004e20

00002aa8 <motor_set_percent>:
    2aa8:	b580      	push	{r7, lr}
    2aaa:	b084      	sub	sp, #16
    2aac:	af00      	add	r7, sp, #0
    2aae:	0002      	movs	r2, r0
    2ab0:	1dfb      	adds	r3, r7, #7
    2ab2:	701a      	strb	r2, [r3, #0]
    2ab4:	1dbb      	adds	r3, r7, #6
    2ab6:	1c0a      	adds	r2, r1, #0
    2ab8:	701a      	strb	r2, [r3, #0]
    2aba:	2300      	movs	r3, #0
    2abc:	60fb      	str	r3, [r7, #12]
    2abe:	2300      	movs	r3, #0
    2ac0:	60bb      	str	r3, [r7, #8]
    2ac2:	1dfb      	adds	r3, r7, #7
    2ac4:	781b      	ldrb	r3, [r3, #0]
    2ac6:	2b00      	cmp	r3, #0
    2ac8:	d009      	beq.n	2ade <motor_set_percent+0x36>
    2aca:	1dfb      	adds	r3, r7, #7
    2acc:	781b      	ldrb	r3, [r3, #0]
    2ace:	2b01      	cmp	r3, #1
    2ad0:	d005      	beq.n	2ade <motor_set_percent+0x36>
    2ad2:	4b22      	ldr	r3, [pc, #136]	; (2b5c <motor_set_percent+0xb4>)
    2ad4:	4a22      	ldr	r2, [pc, #136]	; (2b60 <motor_set_percent+0xb8>)
    2ad6:	4823      	ldr	r0, [pc, #140]	; (2b64 <motor_set_percent+0xbc>)
    2ad8:	2122      	movs	r1, #34	; 0x22
    2ada:	f000 fb9f 	bl	321c <__assert_func>
    2ade:	1dfb      	adds	r3, r7, #7
    2ae0:	781b      	ldrb	r3, [r3, #0]
    2ae2:	2b00      	cmp	r3, #0
    2ae4:	d101      	bne.n	2aea <motor_set_percent+0x42>
    2ae6:	2312      	movs	r3, #18
    2ae8:	e000      	b.n	2aec <motor_set_percent+0x44>
    2aea:	2314      	movs	r3, #20
    2aec:	60bb      	str	r3, [r7, #8]
    2aee:	1dbb      	adds	r3, r7, #6
    2af0:	781b      	ldrb	r3, [r3, #0]
    2af2:	09db      	lsrs	r3, r3, #7
    2af4:	b2db      	uxtb	r3, r3
    2af6:	001a      	movs	r2, r3
    2af8:	68bb      	ldr	r3, [r7, #8]
    2afa:	0011      	movs	r1, r2
    2afc:	0018      	movs	r0, r3
    2afe:	f7ff ffa1 	bl	2a44 <nrf_gpio_pin_write>
    2b02:	1dbb      	adds	r3, r7, #6
    2b04:	781b      	ldrb	r3, [r3, #0]
    2b06:	b25b      	sxtb	r3, r3
    2b08:	3364      	adds	r3, #100	; 0x64
    2b0a:	da03      	bge.n	2b14 <motor_set_percent+0x6c>
    2b0c:	1dbb      	adds	r3, r7, #6
    2b0e:	229c      	movs	r2, #156	; 0x9c
    2b10:	701a      	strb	r2, [r3, #0]
    2b12:	e007      	b.n	2b24 <motor_set_percent+0x7c>
    2b14:	1dbb      	adds	r3, r7, #6
    2b16:	781b      	ldrb	r3, [r3, #0]
    2b18:	b25b      	sxtb	r3, r3
    2b1a:	2b64      	cmp	r3, #100	; 0x64
    2b1c:	dd02      	ble.n	2b24 <motor_set_percent+0x7c>
    2b1e:	1dbb      	adds	r3, r7, #6
    2b20:	2264      	movs	r2, #100	; 0x64
    2b22:	701a      	strb	r2, [r3, #0]
    2b24:	1dbb      	adds	r3, r7, #6
    2b26:	781b      	ldrb	r3, [r3, #0]
    2b28:	2b7f      	cmp	r3, #127	; 0x7f
    2b2a:	d905      	bls.n	2b38 <motor_set_percent+0x90>
    2b2c:	1dbb      	adds	r3, r7, #6
    2b2e:	781b      	ldrb	r3, [r3, #0]
    2b30:	3364      	adds	r3, #100	; 0x64
    2b32:	b2da      	uxtb	r2, r3
    2b34:	1dbb      	adds	r3, r7, #6
    2b36:	701a      	strb	r2, [r3, #0]
    2b38:	1dbb      	adds	r3, r7, #6
    2b3a:	781b      	ldrb	r3, [r3, #0]
    2b3c:	b25b      	sxtb	r3, r3
    2b3e:	22c8      	movs	r2, #200	; 0xc8
    2b40:	4353      	muls	r3, r2
    2b42:	60fb      	str	r3, [r7, #12]
    2b44:	68fb      	ldr	r3, [r7, #12]
    2b46:	b29a      	uxth	r2, r3
    2b48:	1dfb      	adds	r3, r7, #7
    2b4a:	781b      	ldrb	r3, [r3, #0]
    2b4c:	0011      	movs	r1, r2
    2b4e:	0018      	movs	r0, r3
    2b50:	f7fe fad8 	bl	1104 <pwm_set_pulse_width>
    2b54:	46c0      	nop			; (mov r8, r8)
    2b56:	46bd      	mov	sp, r7
    2b58:	b004      	add	sp, #16
    2b5a:	bd80      	pop	{r7, pc}
    2b5c:	00005ea0 	.word	0x00005ea0
    2b60:	00005edc 	.word	0x00005edc
    2b64:	00005ecc 	.word	0x00005ecc

00002b68 <nrf_gpio_cfg>:
    2b68:	b590      	push	{r4, r7, lr}
    2b6a:	b083      	sub	sp, #12
    2b6c:	af00      	add	r7, sp, #0
    2b6e:	6078      	str	r0, [r7, #4]
    2b70:	000c      	movs	r4, r1
    2b72:	0010      	movs	r0, r2
    2b74:	0019      	movs	r1, r3
    2b76:	1cfb      	adds	r3, r7, #3
    2b78:	1c22      	adds	r2, r4, #0
    2b7a:	701a      	strb	r2, [r3, #0]
    2b7c:	1cbb      	adds	r3, r7, #2
    2b7e:	1c02      	adds	r2, r0, #0
    2b80:	701a      	strb	r2, [r3, #0]
    2b82:	1c7b      	adds	r3, r7, #1
    2b84:	1c0a      	adds	r2, r1, #0
    2b86:	701a      	strb	r2, [r3, #0]
    2b88:	1cfb      	adds	r3, r7, #3
    2b8a:	781a      	ldrb	r2, [r3, #0]
    2b8c:	1cbb      	adds	r3, r7, #2
    2b8e:	781b      	ldrb	r3, [r3, #0]
    2b90:	005b      	lsls	r3, r3, #1
    2b92:	431a      	orrs	r2, r3
    2b94:	1c7b      	adds	r3, r7, #1
    2b96:	781b      	ldrb	r3, [r3, #0]
    2b98:	009b      	lsls	r3, r3, #2
    2b9a:	431a      	orrs	r2, r3
    2b9c:	2318      	movs	r3, #24
    2b9e:	18fb      	adds	r3, r7, r3
    2ba0:	781b      	ldrb	r3, [r3, #0]
    2ba2:	021b      	lsls	r3, r3, #8
    2ba4:	431a      	orrs	r2, r3
    2ba6:	0011      	movs	r1, r2
    2ba8:	231c      	movs	r3, #28
    2baa:	18fb      	adds	r3, r7, r3
    2bac:	781b      	ldrb	r3, [r3, #0]
    2bae:	041a      	lsls	r2, r3, #16
    2bb0:	23a0      	movs	r3, #160	; 0xa0
    2bb2:	05db      	lsls	r3, r3, #23
    2bb4:	4311      	orrs	r1, r2
    2bb6:	687a      	ldr	r2, [r7, #4]
    2bb8:	32c1      	adds	r2, #193	; 0xc1
    2bba:	32ff      	adds	r2, #255	; 0xff
    2bbc:	0092      	lsls	r2, r2, #2
    2bbe:	50d1      	str	r1, [r2, r3]
    2bc0:	46c0      	nop			; (mov r8, r8)
    2bc2:	46bd      	mov	sp, r7
    2bc4:	b003      	add	sp, #12
    2bc6:	bd90      	pop	{r4, r7, pc}

00002bc8 <nrf_gpio_cfg_output>:
    2bc8:	b580      	push	{r7, lr}
    2bca:	b084      	sub	sp, #16
    2bcc:	af02      	add	r7, sp, #8
    2bce:	6078      	str	r0, [r7, #4]
    2bd0:	6878      	ldr	r0, [r7, #4]
    2bd2:	2300      	movs	r3, #0
    2bd4:	9301      	str	r3, [sp, #4]
    2bd6:	2300      	movs	r3, #0
    2bd8:	9300      	str	r3, [sp, #0]
    2bda:	2300      	movs	r3, #0
    2bdc:	2201      	movs	r2, #1
    2bde:	2101      	movs	r1, #1
    2be0:	f7ff ffc2 	bl	2b68 <nrf_gpio_cfg>
    2be4:	46c0      	nop			; (mov r8, r8)
    2be6:	46bd      	mov	sp, r7
    2be8:	b002      	add	sp, #8
    2bea:	bd80      	pop	{r7, pc}

00002bec <nrf_gpio_cfg_input>:
    2bec:	b580      	push	{r7, lr}
    2bee:	b084      	sub	sp, #16
    2bf0:	af02      	add	r7, sp, #8
    2bf2:	6078      	str	r0, [r7, #4]
    2bf4:	000a      	movs	r2, r1
    2bf6:	1cfb      	adds	r3, r7, #3
    2bf8:	701a      	strb	r2, [r3, #0]
    2bfa:	1cfb      	adds	r3, r7, #3
    2bfc:	781b      	ldrb	r3, [r3, #0]
    2bfe:	6878      	ldr	r0, [r7, #4]
    2c00:	2200      	movs	r2, #0
    2c02:	9201      	str	r2, [sp, #4]
    2c04:	2200      	movs	r2, #0
    2c06:	9200      	str	r2, [sp, #0]
    2c08:	2200      	movs	r2, #0
    2c0a:	2100      	movs	r1, #0
    2c0c:	f7ff ffac 	bl	2b68 <nrf_gpio_cfg>
    2c10:	46c0      	nop			; (mov r8, r8)
    2c12:	46bd      	mov	sp, r7
    2c14:	b002      	add	sp, #8
    2c16:	bd80      	pop	{r7, pc}

00002c18 <nrf_gpio_pin_set>:
    2c18:	b580      	push	{r7, lr}
    2c1a:	b082      	sub	sp, #8
    2c1c:	af00      	add	r7, sp, #0
    2c1e:	6078      	str	r0, [r7, #4]
    2c20:	23a0      	movs	r3, #160	; 0xa0
    2c22:	05da      	lsls	r2, r3, #23
    2c24:	2101      	movs	r1, #1
    2c26:	687b      	ldr	r3, [r7, #4]
    2c28:	4099      	lsls	r1, r3
    2c2a:	23a1      	movs	r3, #161	; 0xa1
    2c2c:	00db      	lsls	r3, r3, #3
    2c2e:	50d1      	str	r1, [r2, r3]
    2c30:	46c0      	nop			; (mov r8, r8)
    2c32:	46bd      	mov	sp, r7
    2c34:	b002      	add	sp, #8
    2c36:	bd80      	pop	{r7, pc}

00002c38 <nrf_gpio_pin_clear>:
    2c38:	b580      	push	{r7, lr}
    2c3a:	b082      	sub	sp, #8
    2c3c:	af00      	add	r7, sp, #0
    2c3e:	6078      	str	r0, [r7, #4]
    2c40:	23a0      	movs	r3, #160	; 0xa0
    2c42:	05db      	lsls	r3, r3, #23
    2c44:	2101      	movs	r1, #1
    2c46:	687a      	ldr	r2, [r7, #4]
    2c48:	4091      	lsls	r1, r2
    2c4a:	000a      	movs	r2, r1
    2c4c:	4902      	ldr	r1, [pc, #8]	; (2c58 <nrf_gpio_pin_clear+0x20>)
    2c4e:	505a      	str	r2, [r3, r1]
    2c50:	46c0      	nop			; (mov r8, r8)
    2c52:	46bd      	mov	sp, r7
    2c54:	b002      	add	sp, #8
    2c56:	bd80      	pop	{r7, pc}
    2c58:	0000050c 	.word	0x0000050c

00002c5c <nrf_gpio_pin_read>:
    2c5c:	b580      	push	{r7, lr}
    2c5e:	b082      	sub	sp, #8
    2c60:	af00      	add	r7, sp, #0
    2c62:	6078      	str	r0, [r7, #4]
    2c64:	23a0      	movs	r3, #160	; 0xa0
    2c66:	05da      	lsls	r2, r3, #23
    2c68:	23a2      	movs	r3, #162	; 0xa2
    2c6a:	00db      	lsls	r3, r3, #3
    2c6c:	58d2      	ldr	r2, [r2, r3]
    2c6e:	687b      	ldr	r3, [r7, #4]
    2c70:	40da      	lsrs	r2, r3
    2c72:	0013      	movs	r3, r2
    2c74:	2201      	movs	r2, #1
    2c76:	4013      	ands	r3, r2
    2c78:	0018      	movs	r0, r3
    2c7a:	46bd      	mov	sp, r7
    2c7c:	b002      	add	sp, #8
    2c7e:	bd80      	pop	{r7, pc}

00002c80 <ultrasonic_sensor_init>:
    2c80:	b580      	push	{r7, lr}
    2c82:	af00      	add	r7, sp, #0
    2c84:	f7fd fe3a 	bl	8fc <timer_init>
    2c88:	46c0      	nop			; (mov r8, r8)
    2c8a:	46bd      	mov	sp, r7
    2c8c:	bd80      	pop	{r7, pc}
	...

00002c90 <ultrasonic_sensor_get_distance_cm>:
    2c90:	b580      	push	{r7, lr}
    2c92:	b084      	sub	sp, #16
    2c94:	af00      	add	r7, sp, #0
    2c96:	2300      	movs	r3, #0
    2c98:	60fb      	str	r3, [r7, #12]
    2c9a:	2300      	movs	r3, #0
    2c9c:	60bb      	str	r3, [r7, #8]
    2c9e:	2015      	movs	r0, #21
    2ca0:	f7ff ff92 	bl	2bc8 <nrf_gpio_cfg_output>
    2ca4:	2015      	movs	r0, #21
    2ca6:	f7ff ffc7 	bl	2c38 <nrf_gpio_pin_clear>
    2caa:	2302      	movs	r3, #2
    2cac:	607b      	str	r3, [r7, #4]
    2cae:	687b      	ldr	r3, [r7, #4]
    2cb0:	0018      	movs	r0, r3
    2cb2:	3801      	subs	r0, #1
    2cb4:	46c0      	nop			; (mov r8, r8)
    2cb6:	46c0      	nop			; (mov r8, r8)
    2cb8:	46c0      	nop			; (mov r8, r8)
    2cba:	46c0      	nop			; (mov r8, r8)
    2cbc:	46c0      	nop			; (mov r8, r8)
    2cbe:	46c0      	nop			; (mov r8, r8)
    2cc0:	46c0      	nop			; (mov r8, r8)
    2cc2:	46c0      	nop			; (mov r8, r8)
    2cc4:	46c0      	nop			; (mov r8, r8)
    2cc6:	46c0      	nop			; (mov r8, r8)
    2cc8:	46c0      	nop			; (mov r8, r8)
    2cca:	46c0      	nop			; (mov r8, r8)
    2ccc:	d1f1      	bne.n	2cb2 <ultrasonic_sensor_get_distance_cm+0x22>
    2cce:	46c0      	nop			; (mov r8, r8)
    2cd0:	2015      	movs	r0, #21
    2cd2:	f7ff ffa1 	bl	2c18 <nrf_gpio_pin_set>
    2cd6:	230a      	movs	r3, #10
    2cd8:	603b      	str	r3, [r7, #0]
    2cda:	683b      	ldr	r3, [r7, #0]
    2cdc:	0018      	movs	r0, r3
    2cde:	3801      	subs	r0, #1
    2ce0:	46c0      	nop			; (mov r8, r8)
    2ce2:	46c0      	nop			; (mov r8, r8)
    2ce4:	46c0      	nop			; (mov r8, r8)
    2ce6:	46c0      	nop			; (mov r8, r8)
    2ce8:	46c0      	nop			; (mov r8, r8)
    2cea:	46c0      	nop			; (mov r8, r8)
    2cec:	46c0      	nop			; (mov r8, r8)
    2cee:	46c0      	nop			; (mov r8, r8)
    2cf0:	46c0      	nop			; (mov r8, r8)
    2cf2:	46c0      	nop			; (mov r8, r8)
    2cf4:	46c0      	nop			; (mov r8, r8)
    2cf6:	46c0      	nop			; (mov r8, r8)
    2cf8:	d1f1      	bne.n	2cde <ultrasonic_sensor_get_distance_cm+0x4e>
    2cfa:	46c0      	nop			; (mov r8, r8)
    2cfc:	2015      	movs	r0, #21
    2cfe:	f7ff ff9b 	bl	2c38 <nrf_gpio_pin_clear>
    2d02:	2100      	movs	r1, #0
    2d04:	2015      	movs	r0, #21
    2d06:	f7ff ff71 	bl	2bec <nrf_gpio_cfg_input>
    2d0a:	f7fd fe2d 	bl	968 <timer_get_time_us>
    2d0e:	0003      	movs	r3, r0
    2d10:	60fb      	str	r3, [r7, #12]
    2d12:	e00b      	b.n	2d2c <ultrasonic_sensor_get_distance_cm+0x9c>
    2d14:	f7fd fe28 	bl	968 <timer_get_time_us>
    2d18:	0002      	movs	r2, r0
    2d1a:	68fb      	ldr	r3, [r7, #12]
    2d1c:	1ad2      	subs	r2, r2, r3
    2d1e:	4b1a      	ldr	r3, [pc, #104]	; (2d88 <ultrasonic_sensor_get_distance_cm+0xf8>)
    2d20:	681b      	ldr	r3, [r3, #0]
    2d22:	429a      	cmp	r2, r3
    2d24:	d902      	bls.n	2d2c <ultrasonic_sensor_get_distance_cm+0x9c>
    2d26:	2301      	movs	r3, #1
    2d28:	425b      	negs	r3, r3
    2d2a:	e028      	b.n	2d7e <ultrasonic_sensor_get_distance_cm+0xee>
    2d2c:	2015      	movs	r0, #21
    2d2e:	f7ff ff95 	bl	2c5c <nrf_gpio_pin_read>
    2d32:	1e03      	subs	r3, r0, #0
    2d34:	d0ee      	beq.n	2d14 <ultrasonic_sensor_get_distance_cm+0x84>
    2d36:	f7fd fe17 	bl	968 <timer_get_time_us>
    2d3a:	0003      	movs	r3, r0
    2d3c:	60fb      	str	r3, [r7, #12]
    2d3e:	e00b      	b.n	2d58 <ultrasonic_sensor_get_distance_cm+0xc8>
    2d40:	f7fd fe12 	bl	968 <timer_get_time_us>
    2d44:	0002      	movs	r2, r0
    2d46:	68fb      	ldr	r3, [r7, #12]
    2d48:	1ad2      	subs	r2, r2, r3
    2d4a:	4b10      	ldr	r3, [pc, #64]	; (2d8c <ultrasonic_sensor_get_distance_cm+0xfc>)
    2d4c:	681b      	ldr	r3, [r3, #0]
    2d4e:	429a      	cmp	r2, r3
    2d50:	d902      	bls.n	2d58 <ultrasonic_sensor_get_distance_cm+0xc8>
    2d52:	2301      	movs	r3, #1
    2d54:	425b      	negs	r3, r3
    2d56:	e012      	b.n	2d7e <ultrasonic_sensor_get_distance_cm+0xee>
    2d58:	2015      	movs	r0, #21
    2d5a:	f7ff ff7f 	bl	2c5c <nrf_gpio_pin_read>
    2d5e:	1e03      	subs	r3, r0, #0
    2d60:	d1ee      	bne.n	2d40 <ultrasonic_sensor_get_distance_cm+0xb0>
    2d62:	f7fd fe01 	bl	968 <timer_get_time_us>
    2d66:	0003      	movs	r3, r0
    2d68:	60bb      	str	r3, [r7, #8]
    2d6a:	68ba      	ldr	r2, [r7, #8]
    2d6c:	68fb      	ldr	r3, [r7, #12]
    2d6e:	1ad2      	subs	r2, r2, r3
    2d70:	4b07      	ldr	r3, [pc, #28]	; (2d90 <ultrasonic_sensor_get_distance_cm+0x100>)
    2d72:	681b      	ldr	r3, [r3, #0]
    2d74:	0019      	movs	r1, r3
    2d76:	0010      	movs	r0, r2
    2d78:	f001 fe8a 	bl	4a90 <__udivsi3>
    2d7c:	0003      	movs	r3, r0
    2d7e:	0018      	movs	r0, r3
    2d80:	46bd      	mov	sp, r7
    2d82:	b004      	add	sp, #16
    2d84:	bd80      	pop	{r7, pc}
    2d86:	46c0      	nop			; (mov r8, r8)
    2d88:	00005ef0 	.word	0x00005ef0
    2d8c:	00005ef4 	.word	0x00005ef4
    2d90:	00005ef8 	.word	0x00005ef8

00002d94 <nrf_gpio_cfg>:
    2d94:	b590      	push	{r4, r7, lr}
    2d96:	b083      	sub	sp, #12
    2d98:	af00      	add	r7, sp, #0
    2d9a:	6078      	str	r0, [r7, #4]
    2d9c:	000c      	movs	r4, r1
    2d9e:	0010      	movs	r0, r2
    2da0:	0019      	movs	r1, r3
    2da2:	1cfb      	adds	r3, r7, #3
    2da4:	1c22      	adds	r2, r4, #0
    2da6:	701a      	strb	r2, [r3, #0]
    2da8:	1cbb      	adds	r3, r7, #2
    2daa:	1c02      	adds	r2, r0, #0
    2dac:	701a      	strb	r2, [r3, #0]
    2dae:	1c7b      	adds	r3, r7, #1
    2db0:	1c0a      	adds	r2, r1, #0
    2db2:	701a      	strb	r2, [r3, #0]
    2db4:	1cfb      	adds	r3, r7, #3
    2db6:	781a      	ldrb	r2, [r3, #0]
    2db8:	1cbb      	adds	r3, r7, #2
    2dba:	781b      	ldrb	r3, [r3, #0]
    2dbc:	005b      	lsls	r3, r3, #1
    2dbe:	431a      	orrs	r2, r3
    2dc0:	1c7b      	adds	r3, r7, #1
    2dc2:	781b      	ldrb	r3, [r3, #0]
    2dc4:	009b      	lsls	r3, r3, #2
    2dc6:	431a      	orrs	r2, r3
    2dc8:	2318      	movs	r3, #24
    2dca:	18fb      	adds	r3, r7, r3
    2dcc:	781b      	ldrb	r3, [r3, #0]
    2dce:	021b      	lsls	r3, r3, #8
    2dd0:	431a      	orrs	r2, r3
    2dd2:	0011      	movs	r1, r2
    2dd4:	231c      	movs	r3, #28
    2dd6:	18fb      	adds	r3, r7, r3
    2dd8:	781b      	ldrb	r3, [r3, #0]
    2dda:	041a      	lsls	r2, r3, #16
    2ddc:	23a0      	movs	r3, #160	; 0xa0
    2dde:	05db      	lsls	r3, r3, #23
    2de0:	4311      	orrs	r1, r2
    2de2:	687a      	ldr	r2, [r7, #4]
    2de4:	32c1      	adds	r2, #193	; 0xc1
    2de6:	32ff      	adds	r2, #255	; 0xff
    2de8:	0092      	lsls	r2, r2, #2
    2dea:	50d1      	str	r1, [r2, r3]
    2dec:	46c0      	nop			; (mov r8, r8)
    2dee:	46bd      	mov	sp, r7
    2df0:	b003      	add	sp, #12
    2df2:	bd90      	pop	{r4, r7, pc}

00002df4 <nrf_gpio_cfg_input>:
    2df4:	b580      	push	{r7, lr}
    2df6:	b084      	sub	sp, #16
    2df8:	af02      	add	r7, sp, #8
    2dfa:	6078      	str	r0, [r7, #4]
    2dfc:	000a      	movs	r2, r1
    2dfe:	1cfb      	adds	r3, r7, #3
    2e00:	701a      	strb	r2, [r3, #0]
    2e02:	1cfb      	adds	r3, r7, #3
    2e04:	781b      	ldrb	r3, [r3, #0]
    2e06:	6878      	ldr	r0, [r7, #4]
    2e08:	2200      	movs	r2, #0
    2e0a:	9201      	str	r2, [sp, #4]
    2e0c:	2200      	movs	r2, #0
    2e0e:	9200      	str	r2, [sp, #0]
    2e10:	2200      	movs	r2, #0
    2e12:	2100      	movs	r1, #0
    2e14:	f7ff ffbe 	bl	2d94 <nrf_gpio_cfg>
    2e18:	46c0      	nop			; (mov r8, r8)
    2e1a:	46bd      	mov	sp, r7
    2e1c:	b002      	add	sp, #8
    2e1e:	bd80      	pop	{r7, pc}

00002e20 <nrf_gpio_pin_read>:
    2e20:	b580      	push	{r7, lr}
    2e22:	b082      	sub	sp, #8
    2e24:	af00      	add	r7, sp, #0
    2e26:	6078      	str	r0, [r7, #4]
    2e28:	23a0      	movs	r3, #160	; 0xa0
    2e2a:	05da      	lsls	r2, r3, #23
    2e2c:	23a2      	movs	r3, #162	; 0xa2
    2e2e:	00db      	lsls	r3, r3, #3
    2e30:	58d2      	ldr	r2, [r2, r3]
    2e32:	687b      	ldr	r3, [r7, #4]
    2e34:	40da      	lsrs	r2, r3
    2e36:	0013      	movs	r3, r2
    2e38:	2201      	movs	r2, #1
    2e3a:	4013      	ands	r3, r2
    2e3c:	0018      	movs	r0, r3
    2e3e:	46bd      	mov	sp, r7
    2e40:	b002      	add	sp, #8
    2e42:	bd80      	pop	{r7, pc}

00002e44 <line_sensor_init>:
    2e44:	b580      	push	{r7, lr}
    2e46:	af00      	add	r7, sp, #0
    2e48:	2100      	movs	r1, #0
    2e4a:	201a      	movs	r0, #26
    2e4c:	f7ff ffd2 	bl	2df4 <nrf_gpio_cfg_input>
    2e50:	2100      	movs	r1, #0
    2e52:	2011      	movs	r0, #17
    2e54:	f7ff ffce 	bl	2df4 <nrf_gpio_cfg_input>
    2e58:	46c0      	nop			; (mov r8, r8)
    2e5a:	46bd      	mov	sp, r7
    2e5c:	bd80      	pop	{r7, pc}
	...

00002e60 <line_sensor_is_line_present>:
    2e60:	b580      	push	{r7, lr}
    2e62:	b084      	sub	sp, #16
    2e64:	af00      	add	r7, sp, #0
    2e66:	0002      	movs	r2, r0
    2e68:	1dfb      	adds	r3, r7, #7
    2e6a:	701a      	strb	r2, [r3, #0]
    2e6c:	2300      	movs	r3, #0
    2e6e:	60fb      	str	r3, [r7, #12]
    2e70:	1dfb      	adds	r3, r7, #7
    2e72:	781b      	ldrb	r3, [r3, #0]
    2e74:	2b00      	cmp	r3, #0
    2e76:	d009      	beq.n	2e8c <line_sensor_is_line_present+0x2c>
    2e78:	1dfb      	adds	r3, r7, #7
    2e7a:	781b      	ldrb	r3, [r3, #0]
    2e7c:	2b01      	cmp	r3, #1
    2e7e:	d005      	beq.n	2e8c <line_sensor_is_line_present+0x2c>
    2e80:	4b0c      	ldr	r3, [pc, #48]	; (2eb4 <line_sensor_is_line_present+0x54>)
    2e82:	4a0d      	ldr	r2, [pc, #52]	; (2eb8 <line_sensor_is_line_present+0x58>)
    2e84:	480d      	ldr	r0, [pc, #52]	; (2ebc <line_sensor_is_line_present+0x5c>)
    2e86:	2116      	movs	r1, #22
    2e88:	f000 f9c8 	bl	321c <__assert_func>
    2e8c:	1dfb      	adds	r3, r7, #7
    2e8e:	781b      	ldrb	r3, [r3, #0]
    2e90:	2b00      	cmp	r3, #0
    2e92:	d101      	bne.n	2e98 <line_sensor_is_line_present+0x38>
    2e94:	231a      	movs	r3, #26
    2e96:	e000      	b.n	2e9a <line_sensor_is_line_present+0x3a>
    2e98:	2311      	movs	r3, #17
    2e9a:	60fb      	str	r3, [r7, #12]
    2e9c:	68fb      	ldr	r3, [r7, #12]
    2e9e:	0018      	movs	r0, r3
    2ea0:	f7ff ffbe 	bl	2e20 <nrf_gpio_pin_read>
    2ea4:	0003      	movs	r3, r0
    2ea6:	1e5a      	subs	r2, r3, #1
    2ea8:	4193      	sbcs	r3, r2
    2eaa:	b2db      	uxtb	r3, r3
    2eac:	0018      	movs	r0, r3
    2eae:	46bd      	mov	sp, r7
    2eb0:	b004      	add	sp, #16
    2eb2:	bd80      	pop	{r7, pc}
    2eb4:	00005f00 	.word	0x00005f00
    2eb8:	00005f54 	.word	0x00005f54
    2ebc:	00005f3c 	.word	0x00005f3c

00002ec0 <SystemCoreClockUpdate>:
    2ec0:	b580      	push	{r7, lr}
    2ec2:	af00      	add	r7, sp, #0
    2ec4:	4b02      	ldr	r3, [pc, #8]	; (2ed0 <SystemCoreClockUpdate+0x10>)
    2ec6:	4a03      	ldr	r2, [pc, #12]	; (2ed4 <SystemCoreClockUpdate+0x14>)
    2ec8:	601a      	str	r2, [r3, #0]
    2eca:	46c0      	nop			; (mov r8, r8)
    2ecc:	46bd      	mov	sp, r7
    2ece:	bd80      	pop	{r7, pc}
    2ed0:	2000000c 	.word	0x2000000c
    2ed4:	00f42400 	.word	0x00f42400

00002ed8 <SystemInit>:
    2ed8:	b580      	push	{r7, lr}
    2eda:	af00      	add	r7, sp, #0
    2edc:	f000 f81c 	bl	2f18 <is_manual_peripheral_setup_needed>
    2ee0:	1e03      	subs	r3, r0, #0
    2ee2:	d006      	beq.n	2ef2 <SystemInit+0x1a>
    2ee4:	4b09      	ldr	r3, [pc, #36]	; (2f0c <SystemInit+0x34>)
    2ee6:	4a0a      	ldr	r2, [pc, #40]	; (2f10 <SystemInit+0x38>)
    2ee8:	601a      	str	r2, [r3, #0]
    2eea:	4b0a      	ldr	r3, [pc, #40]	; (2f14 <SystemInit+0x3c>)
    2eec:	2280      	movs	r2, #128	; 0x80
    2eee:	0212      	lsls	r2, r2, #8
    2ef0:	601a      	str	r2, [r3, #0]
    2ef2:	f000 f851 	bl	2f98 <is_disabled_in_debug_needed>
    2ef6:	1e03      	subs	r3, r0, #0
    2ef8:	d005      	beq.n	2f06 <SystemInit+0x2e>
    2efa:	2380      	movs	r3, #128	; 0x80
    2efc:	05da      	lsls	r2, r3, #23
    2efe:	23c1      	movs	r3, #193	; 0xc1
    2f00:	00db      	lsls	r3, r3, #3
    2f02:	2101      	movs	r1, #1
    2f04:	50d1      	str	r1, [r2, r3]
    2f06:	46c0      	nop			; (mov r8, r8)
    2f08:	46bd      	mov	sp, r7
    2f0a:	bd80      	pop	{r7, pc}
    2f0c:	40000504 	.word	0x40000504
    2f10:	c007ffdf 	.word	0xc007ffdf
    2f14:	40006c18 	.word	0x40006c18

00002f18 <is_manual_peripheral_setup_needed>:
    2f18:	b580      	push	{r7, lr}
    2f1a:	af00      	add	r7, sp, #0
    2f1c:	4b1a      	ldr	r3, [pc, #104]	; (2f88 <is_manual_peripheral_setup_needed+0x70>)
    2f1e:	681b      	ldr	r3, [r3, #0]
    2f20:	22ff      	movs	r2, #255	; 0xff
    2f22:	4013      	ands	r3, r2
    2f24:	2b01      	cmp	r3, #1
    2f26:	d12a      	bne.n	2f7e <is_manual_peripheral_setup_needed+0x66>
    2f28:	4b18      	ldr	r3, [pc, #96]	; (2f8c <is_manual_peripheral_setup_needed+0x74>)
    2f2a:	681b      	ldr	r3, [r3, #0]
    2f2c:	220f      	movs	r2, #15
    2f2e:	4013      	ands	r3, r2
    2f30:	d125      	bne.n	2f7e <is_manual_peripheral_setup_needed+0x66>
    2f32:	4b17      	ldr	r3, [pc, #92]	; (2f90 <is_manual_peripheral_setup_needed+0x78>)
    2f34:	681b      	ldr	r3, [r3, #0]
    2f36:	22f0      	movs	r2, #240	; 0xf0
    2f38:	4013      	ands	r3, r2
    2f3a:	d106      	bne.n	2f4a <is_manual_peripheral_setup_needed+0x32>
    2f3c:	4b15      	ldr	r3, [pc, #84]	; (2f94 <is_manual_peripheral_setup_needed+0x7c>)
    2f3e:	681b      	ldr	r3, [r3, #0]
    2f40:	22f0      	movs	r2, #240	; 0xf0
    2f42:	4013      	ands	r3, r2
    2f44:	d101      	bne.n	2f4a <is_manual_peripheral_setup_needed+0x32>
    2f46:	2301      	movs	r3, #1
    2f48:	e01a      	b.n	2f80 <is_manual_peripheral_setup_needed+0x68>
    2f4a:	4b11      	ldr	r3, [pc, #68]	; (2f90 <is_manual_peripheral_setup_needed+0x78>)
    2f4c:	681b      	ldr	r3, [r3, #0]
    2f4e:	22f0      	movs	r2, #240	; 0xf0
    2f50:	4013      	ands	r3, r2
    2f52:	2b10      	cmp	r3, #16
    2f54:	d106      	bne.n	2f64 <is_manual_peripheral_setup_needed+0x4c>
    2f56:	4b0f      	ldr	r3, [pc, #60]	; (2f94 <is_manual_peripheral_setup_needed+0x7c>)
    2f58:	681b      	ldr	r3, [r3, #0]
    2f5a:	22f0      	movs	r2, #240	; 0xf0
    2f5c:	4013      	ands	r3, r2
    2f5e:	d101      	bne.n	2f64 <is_manual_peripheral_setup_needed+0x4c>
    2f60:	2301      	movs	r3, #1
    2f62:	e00d      	b.n	2f80 <is_manual_peripheral_setup_needed+0x68>
    2f64:	4b0a      	ldr	r3, [pc, #40]	; (2f90 <is_manual_peripheral_setup_needed+0x78>)
    2f66:	681b      	ldr	r3, [r3, #0]
    2f68:	22f0      	movs	r2, #240	; 0xf0
    2f6a:	4013      	ands	r3, r2
    2f6c:	2b30      	cmp	r3, #48	; 0x30
    2f6e:	d106      	bne.n	2f7e <is_manual_peripheral_setup_needed+0x66>
    2f70:	4b08      	ldr	r3, [pc, #32]	; (2f94 <is_manual_peripheral_setup_needed+0x7c>)
    2f72:	681b      	ldr	r3, [r3, #0]
    2f74:	22f0      	movs	r2, #240	; 0xf0
    2f76:	4013      	ands	r3, r2
    2f78:	d101      	bne.n	2f7e <is_manual_peripheral_setup_needed+0x66>
    2f7a:	2301      	movs	r3, #1
    2f7c:	e000      	b.n	2f80 <is_manual_peripheral_setup_needed+0x68>
    2f7e:	2300      	movs	r3, #0
    2f80:	0018      	movs	r0, r3
    2f82:	46bd      	mov	sp, r7
    2f84:	bd80      	pop	{r7, pc}
    2f86:	46c0      	nop			; (mov r8, r8)
    2f88:	f0000fe0 	.word	0xf0000fe0
    2f8c:	f0000fe4 	.word	0xf0000fe4
    2f90:	f0000fe8 	.word	0xf0000fe8
    2f94:	f0000fec 	.word	0xf0000fec

00002f98 <is_disabled_in_debug_needed>:
    2f98:	b580      	push	{r7, lr}
    2f9a:	af00      	add	r7, sp, #0
    2f9c:	4b0d      	ldr	r3, [pc, #52]	; (2fd4 <is_disabled_in_debug_needed+0x3c>)
    2f9e:	681b      	ldr	r3, [r3, #0]
    2fa0:	22ff      	movs	r2, #255	; 0xff
    2fa2:	4013      	ands	r3, r2
    2fa4:	2b01      	cmp	r3, #1
    2fa6:	d111      	bne.n	2fcc <is_disabled_in_debug_needed+0x34>
    2fa8:	4b0b      	ldr	r3, [pc, #44]	; (2fd8 <is_disabled_in_debug_needed+0x40>)
    2faa:	681b      	ldr	r3, [r3, #0]
    2fac:	220f      	movs	r2, #15
    2fae:	4013      	ands	r3, r2
    2fb0:	d10c      	bne.n	2fcc <is_disabled_in_debug_needed+0x34>
    2fb2:	4b0a      	ldr	r3, [pc, #40]	; (2fdc <is_disabled_in_debug_needed+0x44>)
    2fb4:	681b      	ldr	r3, [r3, #0]
    2fb6:	22f0      	movs	r2, #240	; 0xf0
    2fb8:	4013      	ands	r3, r2
    2fba:	2b40      	cmp	r3, #64	; 0x40
    2fbc:	d106      	bne.n	2fcc <is_disabled_in_debug_needed+0x34>
    2fbe:	4b08      	ldr	r3, [pc, #32]	; (2fe0 <is_disabled_in_debug_needed+0x48>)
    2fc0:	681b      	ldr	r3, [r3, #0]
    2fc2:	22f0      	movs	r2, #240	; 0xf0
    2fc4:	4013      	ands	r3, r2
    2fc6:	d101      	bne.n	2fcc <is_disabled_in_debug_needed+0x34>
    2fc8:	2301      	movs	r3, #1
    2fca:	e000      	b.n	2fce <is_disabled_in_debug_needed+0x36>
    2fcc:	2300      	movs	r3, #0
    2fce:	0018      	movs	r0, r3
    2fd0:	46bd      	mov	sp, r7
    2fd2:	bd80      	pop	{r7, pc}
    2fd4:	f0000fe0 	.word	0xf0000fe0
    2fd8:	f0000fe4 	.word	0xf0000fe4
    2fdc:	f0000fe8 	.word	0xf0000fe8
    2fe0:	f0000fec 	.word	0xf0000fec

00002fe4 <nrf_delay_ms>:
    2fe4:	b580      	push	{r7, lr}
    2fe6:	b084      	sub	sp, #16
    2fe8:	af00      	add	r7, sp, #0
    2fea:	6078      	str	r0, [r7, #4]
    2fec:	e015      	b.n	301a <nrf_delay_ms+0x36>
    2fee:	687b      	ldr	r3, [r7, #4]
    2ff0:	3b01      	subs	r3, #1
    2ff2:	607b      	str	r3, [r7, #4]
    2ff4:	4b0d      	ldr	r3, [pc, #52]	; (302c <nrf_delay_ms+0x48>)
    2ff6:	60fb      	str	r3, [r7, #12]
    2ff8:	68fb      	ldr	r3, [r7, #12]
    2ffa:	0018      	movs	r0, r3
    2ffc:	3801      	subs	r0, #1
    2ffe:	46c0      	nop			; (mov r8, r8)
    3000:	46c0      	nop			; (mov r8, r8)
    3002:	46c0      	nop			; (mov r8, r8)
    3004:	46c0      	nop			; (mov r8, r8)
    3006:	46c0      	nop			; (mov r8, r8)
    3008:	46c0      	nop			; (mov r8, r8)
    300a:	46c0      	nop			; (mov r8, r8)
    300c:	46c0      	nop			; (mov r8, r8)
    300e:	46c0      	nop			; (mov r8, r8)
    3010:	46c0      	nop			; (mov r8, r8)
    3012:	46c0      	nop			; (mov r8, r8)
    3014:	46c0      	nop			; (mov r8, r8)
    3016:	d1f1      	bne.n	2ffc <nrf_delay_ms+0x18>
    3018:	46c0      	nop			; (mov r8, r8)
    301a:	687b      	ldr	r3, [r7, #4]
    301c:	2b00      	cmp	r3, #0
    301e:	d1e6      	bne.n	2fee <nrf_delay_ms+0xa>
    3020:	46c0      	nop			; (mov r8, r8)
    3022:	46c0      	nop			; (mov r8, r8)
    3024:	46bd      	mov	sp, r7
    3026:	b004      	add	sp, #16
    3028:	bd80      	pop	{r7, pc}
    302a:	46c0      	nop			; (mov r8, r8)
    302c:	000003e7 	.word	0x000003e7

00003030 <nrf_adc_input_select>:
    3030:	b580      	push	{r7, lr}
    3032:	b082      	sub	sp, #8
    3034:	af00      	add	r7, sp, #0
    3036:	0002      	movs	r2, r0
    3038:	1dfb      	adds	r3, r7, #7
    303a:	701a      	strb	r2, [r3, #0]
    303c:	1dfb      	adds	r3, r7, #7
    303e:	781b      	ldrb	r3, [r3, #0]
    3040:	021a      	lsls	r2, r3, #8
    3042:	490e      	ldr	r1, [pc, #56]	; (307c <nrf_adc_input_select+0x4c>)
    3044:	4b0e      	ldr	r3, [pc, #56]	; (3080 <nrf_adc_input_select+0x50>)
    3046:	58cb      	ldr	r3, [r1, r3]
    3048:	490e      	ldr	r1, [pc, #56]	; (3084 <nrf_adc_input_select+0x54>)
    304a:	400b      	ands	r3, r1
    304c:	490b      	ldr	r1, [pc, #44]	; (307c <nrf_adc_input_select+0x4c>)
    304e:	4313      	orrs	r3, r2
    3050:	4a0b      	ldr	r2, [pc, #44]	; (3080 <nrf_adc_input_select+0x50>)
    3052:	508b      	str	r3, [r1, r2]
    3054:	1dfb      	adds	r3, r7, #7
    3056:	781b      	ldrb	r3, [r3, #0]
    3058:	2b00      	cmp	r3, #0
    305a:	d005      	beq.n	3068 <nrf_adc_input_select+0x38>
    305c:	4a07      	ldr	r2, [pc, #28]	; (307c <nrf_adc_input_select+0x4c>)
    305e:	23a0      	movs	r3, #160	; 0xa0
    3060:	00db      	lsls	r3, r3, #3
    3062:	2101      	movs	r1, #1
    3064:	50d1      	str	r1, [r2, r3]
    3066:	e004      	b.n	3072 <nrf_adc_input_select+0x42>
    3068:	4a04      	ldr	r2, [pc, #16]	; (307c <nrf_adc_input_select+0x4c>)
    306a:	23a0      	movs	r3, #160	; 0xa0
    306c:	00db      	lsls	r3, r3, #3
    306e:	2100      	movs	r1, #0
    3070:	50d1      	str	r1, [r2, r3]
    3072:	46c0      	nop			; (mov r8, r8)
    3074:	46bd      	mov	sp, r7
    3076:	b002      	add	sp, #8
    3078:	bd80      	pop	{r7, pc}
    307a:	46c0      	nop			; (mov r8, r8)
    307c:	40007000 	.word	0x40007000
    3080:	00000504 	.word	0x00000504
    3084:	ffff00ff 	.word	0xffff00ff

00003088 <nrf_adc_result_get>:
    3088:	b580      	push	{r7, lr}
    308a:	af00      	add	r7, sp, #0
    308c:	4a03      	ldr	r2, [pc, #12]	; (309c <nrf_adc_result_get+0x14>)
    308e:	23a1      	movs	r3, #161	; 0xa1
    3090:	00db      	lsls	r3, r3, #3
    3092:	58d3      	ldr	r3, [r2, r3]
    3094:	0018      	movs	r0, r3
    3096:	46bd      	mov	sp, r7
    3098:	bd80      	pop	{r7, pc}
    309a:	46c0      	nop			; (mov r8, r8)
    309c:	40007000 	.word	0x40007000

000030a0 <nrf_adc_start>:
    30a0:	b580      	push	{r7, lr}
    30a2:	af00      	add	r7, sp, #0
    30a4:	4b02      	ldr	r3, [pc, #8]	; (30b0 <nrf_adc_start+0x10>)
    30a6:	2201      	movs	r2, #1
    30a8:	601a      	str	r2, [r3, #0]
    30aa:	46c0      	nop			; (mov r8, r8)
    30ac:	46bd      	mov	sp, r7
    30ae:	bd80      	pop	{r7, pc}
    30b0:	40007000 	.word	0x40007000

000030b4 <nrf_adc_stop>:
    30b4:	b580      	push	{r7, lr}
    30b6:	af00      	add	r7, sp, #0
    30b8:	4b02      	ldr	r3, [pc, #8]	; (30c4 <nrf_adc_stop+0x10>)
    30ba:	2201      	movs	r2, #1
    30bc:	605a      	str	r2, [r3, #4]
    30be:	46c0      	nop			; (mov r8, r8)
    30c0:	46bd      	mov	sp, r7
    30c2:	bd80      	pop	{r7, pc}
    30c4:	40007000 	.word	0x40007000

000030c8 <nrf_adc_conversion_finished>:
    30c8:	b580      	push	{r7, lr}
    30ca:	af00      	add	r7, sp, #0
    30cc:	4a04      	ldr	r2, [pc, #16]	; (30e0 <nrf_adc_conversion_finished+0x18>)
    30ce:	2380      	movs	r3, #128	; 0x80
    30d0:	005b      	lsls	r3, r3, #1
    30d2:	58d3      	ldr	r3, [r2, r3]
    30d4:	1e5a      	subs	r2, r3, #1
    30d6:	4193      	sbcs	r3, r2
    30d8:	b2db      	uxtb	r3, r3
    30da:	0018      	movs	r0, r3
    30dc:	46bd      	mov	sp, r7
    30de:	bd80      	pop	{r7, pc}
    30e0:	40007000 	.word	0x40007000

000030e4 <nrf_adc_conversion_event_clean>:
    30e4:	b580      	push	{r7, lr}
    30e6:	af00      	add	r7, sp, #0
    30e8:	4a03      	ldr	r2, [pc, #12]	; (30f8 <nrf_adc_conversion_event_clean+0x14>)
    30ea:	2380      	movs	r3, #128	; 0x80
    30ec:	005b      	lsls	r3, r3, #1
    30ee:	2100      	movs	r1, #0
    30f0:	50d1      	str	r1, [r2, r3]
    30f2:	46c0      	nop			; (mov r8, r8)
    30f4:	46bd      	mov	sp, r7
    30f6:	bd80      	pop	{r7, pc}
    30f8:	40007000 	.word	0x40007000

000030fc <nrf_adc_configure>:
    30fc:	b580      	push	{r7, lr}
    30fe:	b084      	sub	sp, #16
    3100:	af00      	add	r7, sp, #0
    3102:	6078      	str	r0, [r7, #4]
    3104:	2300      	movs	r3, #0
    3106:	60fb      	str	r3, [r7, #12]
    3108:	687b      	ldr	r3, [r7, #4]
    310a:	781b      	ldrb	r3, [r3, #0]
    310c:	001a      	movs	r2, r3
    310e:	2303      	movs	r3, #3
    3110:	4013      	ands	r3, r2
    3112:	68fa      	ldr	r2, [r7, #12]
    3114:	4313      	orrs	r3, r2
    3116:	60fb      	str	r3, [r7, #12]
    3118:	687b      	ldr	r3, [r7, #4]
    311a:	785b      	ldrb	r3, [r3, #1]
    311c:	009b      	lsls	r3, r3, #2
    311e:	221c      	movs	r2, #28
    3120:	4013      	ands	r3, r2
    3122:	68fa      	ldr	r2, [r7, #12]
    3124:	4313      	orrs	r3, r2
    3126:	60fb      	str	r3, [r7, #12]
    3128:	687b      	ldr	r3, [r7, #4]
    312a:	685b      	ldr	r3, [r3, #4]
    312c:	015b      	lsls	r3, r3, #5
    312e:	2260      	movs	r2, #96	; 0x60
    3130:	4013      	ands	r3, r2
    3132:	68fa      	ldr	r2, [r7, #12]
    3134:	4313      	orrs	r3, r2
    3136:	60fb      	str	r3, [r7, #12]
    3138:	687b      	ldr	r3, [r7, #4]
    313a:	685a      	ldr	r2, [r3, #4]
    313c:	23c0      	movs	r3, #192	; 0xc0
    313e:	029b      	lsls	r3, r3, #10
    3140:	4013      	ands	r3, r2
    3142:	d007      	beq.n	3154 <nrf_adc_configure+0x58>
    3144:	687b      	ldr	r3, [r7, #4]
    3146:	685a      	ldr	r2, [r3, #4]
    3148:	23c0      	movs	r3, #192	; 0xc0
    314a:	029b      	lsls	r3, r3, #10
    314c:	4013      	ands	r3, r2
    314e:	68fa      	ldr	r2, [r7, #12]
    3150:	4313      	orrs	r3, r2
    3152:	60fb      	str	r3, [r7, #12]
    3154:	2000      	movs	r0, #0
    3156:	f7ff ff6b 	bl	3030 <nrf_adc_input_select>
    315a:	4a07      	ldr	r2, [pc, #28]	; (3178 <nrf_adc_configure+0x7c>)
    315c:	4b07      	ldr	r3, [pc, #28]	; (317c <nrf_adc_configure+0x80>)
    315e:	58d2      	ldr	r2, [r2, r3]
    3160:	23ff      	movs	r3, #255	; 0xff
    3162:	021b      	lsls	r3, r3, #8
    3164:	401a      	ands	r2, r3
    3166:	4904      	ldr	r1, [pc, #16]	; (3178 <nrf_adc_configure+0x7c>)
    3168:	68fb      	ldr	r3, [r7, #12]
    316a:	4313      	orrs	r3, r2
    316c:	4a03      	ldr	r2, [pc, #12]	; (317c <nrf_adc_configure+0x80>)
    316e:	508b      	str	r3, [r1, r2]
    3170:	46c0      	nop			; (mov r8, r8)
    3172:	46bd      	mov	sp, r7
    3174:	b004      	add	sp, #16
    3176:	bd80      	pop	{r7, pc}
    3178:	40007000 	.word	0x40007000
    317c:	00000504 	.word	0x00000504

00003180 <nrf_adc_convert_single>:
    3180:	b580      	push	{r7, lr}
    3182:	b084      	sub	sp, #16
    3184:	af00      	add	r7, sp, #0
    3186:	0002      	movs	r2, r0
    3188:	1dfb      	adds	r3, r7, #7
    318a:	701a      	strb	r2, [r3, #0]
    318c:	1dfb      	adds	r3, r7, #7
    318e:	781b      	ldrb	r3, [r3, #0]
    3190:	0018      	movs	r0, r3
    3192:	f7ff ff4d 	bl	3030 <nrf_adc_input_select>
    3196:	f7ff ff83 	bl	30a0 <nrf_adc_start>
    319a:	46c0      	nop			; (mov r8, r8)
    319c:	f7ff ff94 	bl	30c8 <nrf_adc_conversion_finished>
    31a0:	0003      	movs	r3, r0
    31a2:	001a      	movs	r2, r3
    31a4:	2301      	movs	r3, #1
    31a6:	4053      	eors	r3, r2
    31a8:	b2db      	uxtb	r3, r3
    31aa:	2b00      	cmp	r3, #0
    31ac:	d1f6      	bne.n	319c <nrf_adc_convert_single+0x1c>
    31ae:	f7ff ff99 	bl	30e4 <nrf_adc_conversion_event_clean>
    31b2:	f7ff ff69 	bl	3088 <nrf_adc_result_get>
    31b6:	0003      	movs	r3, r0
    31b8:	60fb      	str	r3, [r7, #12]
    31ba:	f7ff ff7b 	bl	30b4 <nrf_adc_stop>
    31be:	68fb      	ldr	r3, [r7, #12]
    31c0:	0018      	movs	r0, r3
    31c2:	46bd      	mov	sp, r7
    31c4:	b004      	add	sp, #16
    31c6:	bd80      	pop	{r7, pc}

000031c8 <Reset_Handler>:
    31c8:	2103      	movs	r1, #3
    31ca:	480a      	ldr	r0, [pc, #40]	; (31f4 <Reset_Handler+0x2c>)
    31cc:	6802      	ldr	r2, [r0, #0]
    31ce:	430a      	orrs	r2, r1
    31d0:	6002      	str	r2, [r0, #0]
    31d2:	4809      	ldr	r0, [pc, #36]	; (31f8 <Reset_Handler+0x30>)
    31d4:	6802      	ldr	r2, [r0, #0]
    31d6:	430a      	orrs	r2, r1
    31d8:	6002      	str	r2, [r0, #0]
    31da:	4908      	ldr	r1, [pc, #32]	; (31fc <Reset_Handler+0x34>)
    31dc:	4a08      	ldr	r2, [pc, #32]	; (3200 <Reset_Handler+0x38>)
    31de:	4b09      	ldr	r3, [pc, #36]	; (3204 <Reset_Handler+0x3c>)
    31e0:	1a9b      	subs	r3, r3, r2
    31e2:	dd03      	ble.n	31ec <Reset_Handler+0x24>
    31e4:	3b04      	subs	r3, #4
    31e6:	58c8      	ldr	r0, [r1, r3]
    31e8:	50d0      	str	r0, [r2, r3]
    31ea:	dcfb      	bgt.n	31e4 <Reset_Handler+0x1c>
    31ec:	4806      	ldr	r0, [pc, #24]	; (3208 <Reset_Handler+0x40>)
    31ee:	4780      	blx	r0
    31f0:	4806      	ldr	r0, [pc, #24]	; (320c <Reset_Handler+0x44>)
    31f2:	4700      	bx	r0
    31f4:	40000524 	.word	0x40000524
    31f8:	40000554 	.word	0x40000554
    31fc:	00006090 	.word	0x00006090
    3200:	20000000 	.word	0x20000000
    3204:	2000007c 	.word	0x2000007c
    3208:	00002ed9 	.word	0x00002ed9
    320c:	00000109 	.word	0x00000109

00003210 <NMI_Handler>:
    3210:	e7fe      	b.n	3210 <NMI_Handler>

00003212 <HardFault_Handler>:
    3212:	e7fe      	b.n	3212 <HardFault_Handler>

00003214 <SVC_Handler>:
    3214:	e7fe      	b.n	3214 <SVC_Handler>

00003216 <PendSV_Handler>:
    3216:	e7fe      	b.n	3216 <PendSV_Handler>

00003218 <SysTick_Handler>:
    3218:	e7fe      	b.n	3218 <SysTick_Handler>

0000321a <Default_Handler>:
    321a:	e7fe      	b.n	321a <Default_Handler>

0000321c <__assert_func>:
    321c:	b530      	push	{r4, r5, lr}
    321e:	0014      	movs	r4, r2
    3220:	001a      	movs	r2, r3
    3222:	4b09      	ldr	r3, [pc, #36]	; (3248 <__assert_func+0x2c>)
    3224:	0005      	movs	r5, r0
    3226:	681b      	ldr	r3, [r3, #0]
    3228:	b085      	sub	sp, #20
    322a:	68d8      	ldr	r0, [r3, #12]
    322c:	4b07      	ldr	r3, [pc, #28]	; (324c <__assert_func+0x30>)
    322e:	2c00      	cmp	r4, #0
    3230:	d101      	bne.n	3236 <__assert_func+0x1a>
    3232:	4b07      	ldr	r3, [pc, #28]	; (3250 <__assert_func+0x34>)
    3234:	001c      	movs	r4, r3
    3236:	9301      	str	r3, [sp, #4]
    3238:	9100      	str	r1, [sp, #0]
    323a:	002b      	movs	r3, r5
    323c:	4905      	ldr	r1, [pc, #20]	; (3254 <__assert_func+0x38>)
    323e:	9402      	str	r4, [sp, #8]
    3240:	f000 f832 	bl	32a8 <fiprintf>
    3244:	f000 fcec 	bl	3c20 <abort>
    3248:	20000010 	.word	0x20000010
    324c:	00005f70 	.word	0x00005f70
    3250:	00005fab 	.word	0x00005fab
    3254:	00005f7d 	.word	0x00005f7d

00003258 <__assert>:
    3258:	0013      	movs	r3, r2
    325a:	b510      	push	{r4, lr}
    325c:	2200      	movs	r2, #0
    325e:	f7ff ffdd 	bl	321c <__assert_func>
	...

00003264 <exit>:
    3264:	4b08      	ldr	r3, [pc, #32]	; (3288 <exit+0x24>)
    3266:	b510      	push	{r4, lr}
    3268:	0004      	movs	r4, r0
    326a:	2b00      	cmp	r3, #0
    326c:	d002      	beq.n	3274 <exit+0x10>
    326e:	2100      	movs	r1, #0
    3270:	e000      	b.n	3274 <exit+0x10>
    3272:	bf00      	nop
    3274:	4b05      	ldr	r3, [pc, #20]	; (328c <exit+0x28>)
    3276:	6818      	ldr	r0, [r3, #0]
    3278:	6a83      	ldr	r3, [r0, #40]	; 0x28
    327a:	2b00      	cmp	r3, #0
    327c:	d000      	beq.n	3280 <exit+0x1c>
    327e:	4798      	blx	r3
    3280:	0020      	movs	r0, r4
    3282:	f002 fc3b 	bl	5afc <_exit>
    3286:	46c0      	nop			; (mov r8, r8)
    3288:	00000000 	.word	0x00000000
    328c:	00005fac 	.word	0x00005fac

00003290 <_fiprintf_r>:
    3290:	b40c      	push	{r2, r3}
    3292:	b507      	push	{r0, r1, r2, lr}
    3294:	ab04      	add	r3, sp, #16
    3296:	cb04      	ldmia	r3!, {r2}
    3298:	9301      	str	r3, [sp, #4]
    329a:	f000 f877 	bl	338c <_vfiprintf_r>
    329e:	b003      	add	sp, #12
    32a0:	bc08      	pop	{r3}
    32a2:	b002      	add	sp, #8
    32a4:	4718      	bx	r3
	...

000032a8 <fiprintf>:
    32a8:	b40e      	push	{r1, r2, r3}
    32aa:	b503      	push	{r0, r1, lr}
    32ac:	0001      	movs	r1, r0
    32ae:	ab03      	add	r3, sp, #12
    32b0:	4804      	ldr	r0, [pc, #16]	; (32c4 <fiprintf+0x1c>)
    32b2:	cb04      	ldmia	r3!, {r2}
    32b4:	6800      	ldr	r0, [r0, #0]
    32b6:	9301      	str	r3, [sp, #4]
    32b8:	f000 f868 	bl	338c <_vfiprintf_r>
    32bc:	b002      	add	sp, #8
    32be:	bc08      	pop	{r3}
    32c0:	b003      	add	sp, #12
    32c2:	4718      	bx	r3
    32c4:	20000010 	.word	0x20000010

000032c8 <__libc_init_array>:
    32c8:	b570      	push	{r4, r5, r6, lr}
    32ca:	2600      	movs	r6, #0
    32cc:	4d0c      	ldr	r5, [pc, #48]	; (3300 <__libc_init_array+0x38>)
    32ce:	4c0d      	ldr	r4, [pc, #52]	; (3304 <__libc_init_array+0x3c>)
    32d0:	1b64      	subs	r4, r4, r5
    32d2:	10a4      	asrs	r4, r4, #2
    32d4:	42a6      	cmp	r6, r4
    32d6:	d109      	bne.n	32ec <__libc_init_array+0x24>
    32d8:	2600      	movs	r6, #0
    32da:	f002 fc11 	bl	5b00 <_init>
    32de:	4d0a      	ldr	r5, [pc, #40]	; (3308 <__libc_init_array+0x40>)
    32e0:	4c0a      	ldr	r4, [pc, #40]	; (330c <__libc_init_array+0x44>)
    32e2:	1b64      	subs	r4, r4, r5
    32e4:	10a4      	asrs	r4, r4, #2
    32e6:	42a6      	cmp	r6, r4
    32e8:	d105      	bne.n	32f6 <__libc_init_array+0x2e>
    32ea:	bd70      	pop	{r4, r5, r6, pc}
    32ec:	00b3      	lsls	r3, r6, #2
    32ee:	58eb      	ldr	r3, [r5, r3]
    32f0:	4798      	blx	r3
    32f2:	3601      	adds	r6, #1
    32f4:	e7ee      	b.n	32d4 <__libc_init_array+0xc>
    32f6:	00b3      	lsls	r3, r6, #2
    32f8:	58eb      	ldr	r3, [r5, r3]
    32fa:	4798      	blx	r3
    32fc:	3601      	adds	r6, #1
    32fe:	e7f2      	b.n	32e6 <__libc_init_array+0x1e>
    3300:	20000074 	.word	0x20000074
    3304:	20000074 	.word	0x20000074
    3308:	20000074 	.word	0x20000074
    330c:	20000078 	.word	0x20000078

00003310 <memset>:
    3310:	0003      	movs	r3, r0
    3312:	1882      	adds	r2, r0, r2
    3314:	4293      	cmp	r3, r2
    3316:	d100      	bne.n	331a <memset+0xa>
    3318:	4770      	bx	lr
    331a:	7019      	strb	r1, [r3, #0]
    331c:	3301      	adds	r3, #1
    331e:	e7f9      	b.n	3314 <memset+0x4>

00003320 <__sfputc_r>:
    3320:	6893      	ldr	r3, [r2, #8]
    3322:	b510      	push	{r4, lr}
    3324:	3b01      	subs	r3, #1
    3326:	6093      	str	r3, [r2, #8]
    3328:	2b00      	cmp	r3, #0
    332a:	da04      	bge.n	3336 <__sfputc_r+0x16>
    332c:	6994      	ldr	r4, [r2, #24]
    332e:	42a3      	cmp	r3, r4
    3330:	db07      	blt.n	3342 <__sfputc_r+0x22>
    3332:	290a      	cmp	r1, #10
    3334:	d005      	beq.n	3342 <__sfputc_r+0x22>
    3336:	6813      	ldr	r3, [r2, #0]
    3338:	1c58      	adds	r0, r3, #1
    333a:	6010      	str	r0, [r2, #0]
    333c:	7019      	strb	r1, [r3, #0]
    333e:	0008      	movs	r0, r1
    3340:	bd10      	pop	{r4, pc}
    3342:	f000 fb95 	bl	3a70 <__swbuf_r>
    3346:	0001      	movs	r1, r0
    3348:	e7f9      	b.n	333e <__sfputc_r+0x1e>

0000334a <__sfputs_r>:
    334a:	b5f8      	push	{r3, r4, r5, r6, r7, lr}
    334c:	0006      	movs	r6, r0
    334e:	000f      	movs	r7, r1
    3350:	0014      	movs	r4, r2
    3352:	18d5      	adds	r5, r2, r3
    3354:	42ac      	cmp	r4, r5
    3356:	d101      	bne.n	335c <__sfputs_r+0x12>
    3358:	2000      	movs	r0, #0
    335a:	e007      	b.n	336c <__sfputs_r+0x22>
    335c:	7821      	ldrb	r1, [r4, #0]
    335e:	003a      	movs	r2, r7
    3360:	0030      	movs	r0, r6
    3362:	f7ff ffdd 	bl	3320 <__sfputc_r>
    3366:	3401      	adds	r4, #1
    3368:	1c43      	adds	r3, r0, #1
    336a:	d1f3      	bne.n	3354 <__sfputs_r+0xa>
    336c:	bdf8      	pop	{r3, r4, r5, r6, r7, pc}

0000336e <__sprint_r>:
    336e:	6893      	ldr	r3, [r2, #8]
    3370:	b510      	push	{r4, lr}
    3372:	0014      	movs	r4, r2
    3374:	2b00      	cmp	r3, #0
    3376:	d102      	bne.n	337e <__sprint_r+0x10>
    3378:	0018      	movs	r0, r3
    337a:	6053      	str	r3, [r2, #4]
    337c:	bd10      	pop	{r4, pc}
    337e:	f000 fe57 	bl	4030 <__sfvwrite_r>
    3382:	2300      	movs	r3, #0
    3384:	60a3      	str	r3, [r4, #8]
    3386:	6063      	str	r3, [r4, #4]
    3388:	e7f8      	b.n	337c <__sprint_r+0xe>
	...

0000338c <_vfiprintf_r>:
    338c:	b5f0      	push	{r4, r5, r6, r7, lr}
    338e:	b0a1      	sub	sp, #132	; 0x84
    3390:	0006      	movs	r6, r0
    3392:	000c      	movs	r4, r1
    3394:	001f      	movs	r7, r3
    3396:	9203      	str	r2, [sp, #12]
    3398:	2800      	cmp	r0, #0
    339a:	d004      	beq.n	33a6 <_vfiprintf_r+0x1a>
    339c:	6983      	ldr	r3, [r0, #24]
    339e:	2b00      	cmp	r3, #0
    33a0:	d101      	bne.n	33a6 <_vfiprintf_r+0x1a>
    33a2:	f000 fda9 	bl	3ef8 <__sinit>
    33a6:	4b8e      	ldr	r3, [pc, #568]	; (35e0 <_vfiprintf_r+0x254>)
    33a8:	429c      	cmp	r4, r3
    33aa:	d11c      	bne.n	33e6 <_vfiprintf_r+0x5a>
    33ac:	6874      	ldr	r4, [r6, #4]
    33ae:	6e63      	ldr	r3, [r4, #100]	; 0x64
    33b0:	07db      	lsls	r3, r3, #31
    33b2:	d405      	bmi.n	33c0 <_vfiprintf_r+0x34>
    33b4:	89a3      	ldrh	r3, [r4, #12]
    33b6:	059b      	lsls	r3, r3, #22
    33b8:	d402      	bmi.n	33c0 <_vfiprintf_r+0x34>
    33ba:	6da0      	ldr	r0, [r4, #88]	; 0x58
    33bc:	f000 ffde 	bl	437c <__retarget_lock_acquire_recursive>
    33c0:	89a3      	ldrh	r3, [r4, #12]
    33c2:	071b      	lsls	r3, r3, #28
    33c4:	d502      	bpl.n	33cc <_vfiprintf_r+0x40>
    33c6:	6923      	ldr	r3, [r4, #16]
    33c8:	2b00      	cmp	r3, #0
    33ca:	d11d      	bne.n	3408 <_vfiprintf_r+0x7c>
    33cc:	0021      	movs	r1, r4
    33ce:	0030      	movs	r0, r6
    33d0:	f000 fbae 	bl	3b30 <__swsetup_r>
    33d4:	2800      	cmp	r0, #0
    33d6:	d017      	beq.n	3408 <_vfiprintf_r+0x7c>
    33d8:	6e63      	ldr	r3, [r4, #100]	; 0x64
    33da:	07db      	lsls	r3, r3, #31
    33dc:	d50d      	bpl.n	33fa <_vfiprintf_r+0x6e>
    33de:	2001      	movs	r0, #1
    33e0:	4240      	negs	r0, r0
    33e2:	b021      	add	sp, #132	; 0x84
    33e4:	bdf0      	pop	{r4, r5, r6, r7, pc}
    33e6:	4b7f      	ldr	r3, [pc, #508]	; (35e4 <_vfiprintf_r+0x258>)
    33e8:	429c      	cmp	r4, r3
    33ea:	d101      	bne.n	33f0 <_vfiprintf_r+0x64>
    33ec:	68b4      	ldr	r4, [r6, #8]
    33ee:	e7de      	b.n	33ae <_vfiprintf_r+0x22>
    33f0:	4b7d      	ldr	r3, [pc, #500]	; (35e8 <_vfiprintf_r+0x25c>)
    33f2:	429c      	cmp	r4, r3
    33f4:	d1db      	bne.n	33ae <_vfiprintf_r+0x22>
    33f6:	68f4      	ldr	r4, [r6, #12]
    33f8:	e7d9      	b.n	33ae <_vfiprintf_r+0x22>
    33fa:	89a3      	ldrh	r3, [r4, #12]
    33fc:	059b      	lsls	r3, r3, #22
    33fe:	d4ee      	bmi.n	33de <_vfiprintf_r+0x52>
    3400:	6da0      	ldr	r0, [r4, #88]	; 0x58
    3402:	f000 ffc1 	bl	4388 <__retarget_lock_release_recursive>
    3406:	e7ea      	b.n	33de <_vfiprintf_r+0x52>
    3408:	2300      	movs	r3, #0
    340a:	ad08      	add	r5, sp, #32
    340c:	616b      	str	r3, [r5, #20]
    340e:	3320      	adds	r3, #32
    3410:	766b      	strb	r3, [r5, #25]
    3412:	3310      	adds	r3, #16
    3414:	76ab      	strb	r3, [r5, #26]
    3416:	9707      	str	r7, [sp, #28]
    3418:	9f03      	ldr	r7, [sp, #12]
    341a:	783b      	ldrb	r3, [r7, #0]
    341c:	2b00      	cmp	r3, #0
    341e:	d001      	beq.n	3424 <_vfiprintf_r+0x98>
    3420:	2b25      	cmp	r3, #37	; 0x25
    3422:	d14e      	bne.n	34c2 <_vfiprintf_r+0x136>
    3424:	9b03      	ldr	r3, [sp, #12]
    3426:	1afb      	subs	r3, r7, r3
    3428:	9305      	str	r3, [sp, #20]
    342a:	9b03      	ldr	r3, [sp, #12]
    342c:	429f      	cmp	r7, r3
    342e:	d00d      	beq.n	344c <_vfiprintf_r+0xc0>
    3430:	9b05      	ldr	r3, [sp, #20]
    3432:	0021      	movs	r1, r4
    3434:	0030      	movs	r0, r6
    3436:	9a03      	ldr	r2, [sp, #12]
    3438:	f7ff ff87 	bl	334a <__sfputs_r>
    343c:	1c43      	adds	r3, r0, #1
    343e:	d100      	bne.n	3442 <_vfiprintf_r+0xb6>
    3440:	e0b5      	b.n	35ae <_vfiprintf_r+0x222>
    3442:	696a      	ldr	r2, [r5, #20]
    3444:	9b05      	ldr	r3, [sp, #20]
    3446:	4694      	mov	ip, r2
    3448:	4463      	add	r3, ip
    344a:	616b      	str	r3, [r5, #20]
    344c:	783b      	ldrb	r3, [r7, #0]
    344e:	2b00      	cmp	r3, #0
    3450:	d100      	bne.n	3454 <_vfiprintf_r+0xc8>
    3452:	e0ac      	b.n	35ae <_vfiprintf_r+0x222>
    3454:	2201      	movs	r2, #1
    3456:	1c7b      	adds	r3, r7, #1
    3458:	9303      	str	r3, [sp, #12]
    345a:	2300      	movs	r3, #0
    345c:	4252      	negs	r2, r2
    345e:	606a      	str	r2, [r5, #4]
    3460:	a904      	add	r1, sp, #16
    3462:	3254      	adds	r2, #84	; 0x54
    3464:	1852      	adds	r2, r2, r1
    3466:	602b      	str	r3, [r5, #0]
    3468:	60eb      	str	r3, [r5, #12]
    346a:	60ab      	str	r3, [r5, #8]
    346c:	7013      	strb	r3, [r2, #0]
    346e:	65ab      	str	r3, [r5, #88]	; 0x58
    3470:	9b03      	ldr	r3, [sp, #12]
    3472:	2205      	movs	r2, #5
    3474:	7819      	ldrb	r1, [r3, #0]
    3476:	485d      	ldr	r0, [pc, #372]	; (35ec <_vfiprintf_r+0x260>)
    3478:	f000 fff4 	bl	4464 <memchr>
    347c:	9b03      	ldr	r3, [sp, #12]
    347e:	1c5f      	adds	r7, r3, #1
    3480:	2800      	cmp	r0, #0
    3482:	d120      	bne.n	34c6 <_vfiprintf_r+0x13a>
    3484:	682a      	ldr	r2, [r5, #0]
    3486:	06d3      	lsls	r3, r2, #27
    3488:	d504      	bpl.n	3494 <_vfiprintf_r+0x108>
    348a:	2353      	movs	r3, #83	; 0x53
    348c:	a904      	add	r1, sp, #16
    348e:	185b      	adds	r3, r3, r1
    3490:	2120      	movs	r1, #32
    3492:	7019      	strb	r1, [r3, #0]
    3494:	0713      	lsls	r3, r2, #28
    3496:	d504      	bpl.n	34a2 <_vfiprintf_r+0x116>
    3498:	2353      	movs	r3, #83	; 0x53
    349a:	a904      	add	r1, sp, #16
    349c:	185b      	adds	r3, r3, r1
    349e:	212b      	movs	r1, #43	; 0x2b
    34a0:	7019      	strb	r1, [r3, #0]
    34a2:	9b03      	ldr	r3, [sp, #12]
    34a4:	781b      	ldrb	r3, [r3, #0]
    34a6:	2b2a      	cmp	r3, #42	; 0x2a
    34a8:	d016      	beq.n	34d8 <_vfiprintf_r+0x14c>
    34aa:	2100      	movs	r1, #0
    34ac:	68eb      	ldr	r3, [r5, #12]
    34ae:	9f03      	ldr	r7, [sp, #12]
    34b0:	783a      	ldrb	r2, [r7, #0]
    34b2:	1c78      	adds	r0, r7, #1
    34b4:	3a30      	subs	r2, #48	; 0x30
    34b6:	4684      	mov	ip, r0
    34b8:	2a09      	cmp	r2, #9
    34ba:	d94f      	bls.n	355c <_vfiprintf_r+0x1d0>
    34bc:	2900      	cmp	r1, #0
    34be:	d111      	bne.n	34e4 <_vfiprintf_r+0x158>
    34c0:	e017      	b.n	34f2 <_vfiprintf_r+0x166>
    34c2:	3701      	adds	r7, #1
    34c4:	e7a9      	b.n	341a <_vfiprintf_r+0x8e>
    34c6:	4b49      	ldr	r3, [pc, #292]	; (35ec <_vfiprintf_r+0x260>)
    34c8:	682a      	ldr	r2, [r5, #0]
    34ca:	1ac0      	subs	r0, r0, r3
    34cc:	2301      	movs	r3, #1
    34ce:	4083      	lsls	r3, r0
    34d0:	4313      	orrs	r3, r2
    34d2:	602b      	str	r3, [r5, #0]
    34d4:	9703      	str	r7, [sp, #12]
    34d6:	e7cb      	b.n	3470 <_vfiprintf_r+0xe4>
    34d8:	9b07      	ldr	r3, [sp, #28]
    34da:	1d19      	adds	r1, r3, #4
    34dc:	681b      	ldr	r3, [r3, #0]
    34de:	9107      	str	r1, [sp, #28]
    34e0:	2b00      	cmp	r3, #0
    34e2:	db01      	blt.n	34e8 <_vfiprintf_r+0x15c>
    34e4:	930b      	str	r3, [sp, #44]	; 0x2c
    34e6:	e004      	b.n	34f2 <_vfiprintf_r+0x166>
    34e8:	425b      	negs	r3, r3
    34ea:	60eb      	str	r3, [r5, #12]
    34ec:	2302      	movs	r3, #2
    34ee:	4313      	orrs	r3, r2
    34f0:	602b      	str	r3, [r5, #0]
    34f2:	783b      	ldrb	r3, [r7, #0]
    34f4:	2b2e      	cmp	r3, #46	; 0x2e
    34f6:	d10a      	bne.n	350e <_vfiprintf_r+0x182>
    34f8:	787b      	ldrb	r3, [r7, #1]
    34fa:	2b2a      	cmp	r3, #42	; 0x2a
    34fc:	d137      	bne.n	356e <_vfiprintf_r+0x1e2>
    34fe:	9b07      	ldr	r3, [sp, #28]
    3500:	3702      	adds	r7, #2
    3502:	1d1a      	adds	r2, r3, #4
    3504:	681b      	ldr	r3, [r3, #0]
    3506:	9207      	str	r2, [sp, #28]
    3508:	2b00      	cmp	r3, #0
    350a:	db2d      	blt.n	3568 <_vfiprintf_r+0x1dc>
    350c:	9309      	str	r3, [sp, #36]	; 0x24
    350e:	2203      	movs	r2, #3
    3510:	7839      	ldrb	r1, [r7, #0]
    3512:	4837      	ldr	r0, [pc, #220]	; (35f0 <_vfiprintf_r+0x264>)
    3514:	f000 ffa6 	bl	4464 <memchr>
    3518:	2800      	cmp	r0, #0
    351a:	d007      	beq.n	352c <_vfiprintf_r+0x1a0>
    351c:	4b34      	ldr	r3, [pc, #208]	; (35f0 <_vfiprintf_r+0x264>)
    351e:	682a      	ldr	r2, [r5, #0]
    3520:	1ac0      	subs	r0, r0, r3
    3522:	2340      	movs	r3, #64	; 0x40
    3524:	4083      	lsls	r3, r0
    3526:	4313      	orrs	r3, r2
    3528:	3701      	adds	r7, #1
    352a:	602b      	str	r3, [r5, #0]
    352c:	7839      	ldrb	r1, [r7, #0]
    352e:	1c7b      	adds	r3, r7, #1
    3530:	2206      	movs	r2, #6
    3532:	4830      	ldr	r0, [pc, #192]	; (35f4 <_vfiprintf_r+0x268>)
    3534:	9303      	str	r3, [sp, #12]
    3536:	7629      	strb	r1, [r5, #24]
    3538:	f000 ff94 	bl	4464 <memchr>
    353c:	2800      	cmp	r0, #0
    353e:	d045      	beq.n	35cc <_vfiprintf_r+0x240>
    3540:	4b2d      	ldr	r3, [pc, #180]	; (35f8 <_vfiprintf_r+0x26c>)
    3542:	2b00      	cmp	r3, #0
    3544:	d127      	bne.n	3596 <_vfiprintf_r+0x20a>
    3546:	2207      	movs	r2, #7
    3548:	9b07      	ldr	r3, [sp, #28]
    354a:	3307      	adds	r3, #7
    354c:	4393      	bics	r3, r2
    354e:	3308      	adds	r3, #8
    3550:	9307      	str	r3, [sp, #28]
    3552:	696b      	ldr	r3, [r5, #20]
    3554:	9a04      	ldr	r2, [sp, #16]
    3556:	189b      	adds	r3, r3, r2
    3558:	616b      	str	r3, [r5, #20]
    355a:	e75d      	b.n	3418 <_vfiprintf_r+0x8c>
    355c:	210a      	movs	r1, #10
    355e:	434b      	muls	r3, r1
    3560:	4667      	mov	r7, ip
    3562:	189b      	adds	r3, r3, r2
    3564:	3909      	subs	r1, #9
    3566:	e7a3      	b.n	34b0 <_vfiprintf_r+0x124>
    3568:	2301      	movs	r3, #1
    356a:	425b      	negs	r3, r3
    356c:	e7ce      	b.n	350c <_vfiprintf_r+0x180>
    356e:	2300      	movs	r3, #0
    3570:	001a      	movs	r2, r3
    3572:	3701      	adds	r7, #1
    3574:	606b      	str	r3, [r5, #4]
    3576:	7839      	ldrb	r1, [r7, #0]
    3578:	1c78      	adds	r0, r7, #1
    357a:	3930      	subs	r1, #48	; 0x30
    357c:	4684      	mov	ip, r0
    357e:	2909      	cmp	r1, #9
    3580:	d903      	bls.n	358a <_vfiprintf_r+0x1fe>
    3582:	2b00      	cmp	r3, #0
    3584:	d0c3      	beq.n	350e <_vfiprintf_r+0x182>
    3586:	9209      	str	r2, [sp, #36]	; 0x24
    3588:	e7c1      	b.n	350e <_vfiprintf_r+0x182>
    358a:	230a      	movs	r3, #10
    358c:	435a      	muls	r2, r3
    358e:	4667      	mov	r7, ip
    3590:	1852      	adds	r2, r2, r1
    3592:	3b09      	subs	r3, #9
    3594:	e7ef      	b.n	3576 <_vfiprintf_r+0x1ea>
    3596:	ab07      	add	r3, sp, #28
    3598:	9300      	str	r3, [sp, #0]
    359a:	0022      	movs	r2, r4
    359c:	0029      	movs	r1, r5
    359e:	0030      	movs	r0, r6
    35a0:	4b16      	ldr	r3, [pc, #88]	; (35fc <_vfiprintf_r+0x270>)
    35a2:	e000      	b.n	35a6 <_vfiprintf_r+0x21a>
    35a4:	bf00      	nop
    35a6:	9004      	str	r0, [sp, #16]
    35a8:	9b04      	ldr	r3, [sp, #16]
    35aa:	3301      	adds	r3, #1
    35ac:	d1d1      	bne.n	3552 <_vfiprintf_r+0x1c6>
    35ae:	6e63      	ldr	r3, [r4, #100]	; 0x64
    35b0:	07db      	lsls	r3, r3, #31
    35b2:	d405      	bmi.n	35c0 <_vfiprintf_r+0x234>
    35b4:	89a3      	ldrh	r3, [r4, #12]
    35b6:	059b      	lsls	r3, r3, #22
    35b8:	d402      	bmi.n	35c0 <_vfiprintf_r+0x234>
    35ba:	6da0      	ldr	r0, [r4, #88]	; 0x58
    35bc:	f000 fee4 	bl	4388 <__retarget_lock_release_recursive>
    35c0:	89a3      	ldrh	r3, [r4, #12]
    35c2:	065b      	lsls	r3, r3, #25
    35c4:	d500      	bpl.n	35c8 <_vfiprintf_r+0x23c>
    35c6:	e70a      	b.n	33de <_vfiprintf_r+0x52>
    35c8:	980d      	ldr	r0, [sp, #52]	; 0x34
    35ca:	e70a      	b.n	33e2 <_vfiprintf_r+0x56>
    35cc:	ab07      	add	r3, sp, #28
    35ce:	9300      	str	r3, [sp, #0]
    35d0:	0022      	movs	r2, r4
    35d2:	0029      	movs	r1, r5
    35d4:	0030      	movs	r0, r6
    35d6:	4b09      	ldr	r3, [pc, #36]	; (35fc <_vfiprintf_r+0x270>)
    35d8:	f000 f88e 	bl	36f8 <_printf_i>
    35dc:	e7e3      	b.n	35a6 <_vfiprintf_r+0x21a>
    35de:	46c0      	nop			; (mov r8, r8)
    35e0:	00006004 	.word	0x00006004
    35e4:	00006024 	.word	0x00006024
    35e8:	00005fe4 	.word	0x00005fe4
    35ec:	00005fb0 	.word	0x00005fb0
    35f0:	00005fb6 	.word	0x00005fb6
    35f4:	00005fba 	.word	0x00005fba
    35f8:	00000000 	.word	0x00000000
    35fc:	0000334b 	.word	0x0000334b

00003600 <vfiprintf>:
    3600:	b510      	push	{r4, lr}
    3602:	0013      	movs	r3, r2
    3604:	000a      	movs	r2, r1
    3606:	0001      	movs	r1, r0
    3608:	4802      	ldr	r0, [pc, #8]	; (3614 <vfiprintf+0x14>)
    360a:	6800      	ldr	r0, [r0, #0]
    360c:	f7ff febe 	bl	338c <_vfiprintf_r>
    3610:	bd10      	pop	{r4, pc}
    3612:	46c0      	nop			; (mov r8, r8)
    3614:	20000010 	.word	0x20000010

00003618 <_printf_common>:
    3618:	b5f7      	push	{r0, r1, r2, r4, r5, r6, r7, lr}
    361a:	0015      	movs	r5, r2
    361c:	9301      	str	r3, [sp, #4]
    361e:	688a      	ldr	r2, [r1, #8]
    3620:	690b      	ldr	r3, [r1, #16]
    3622:	000c      	movs	r4, r1
    3624:	9000      	str	r0, [sp, #0]
    3626:	4293      	cmp	r3, r2
    3628:	da00      	bge.n	362c <_printf_common+0x14>
    362a:	0013      	movs	r3, r2
    362c:	0022      	movs	r2, r4
    362e:	602b      	str	r3, [r5, #0]
    3630:	3243      	adds	r2, #67	; 0x43
    3632:	7812      	ldrb	r2, [r2, #0]
    3634:	2a00      	cmp	r2, #0
    3636:	d001      	beq.n	363c <_printf_common+0x24>
    3638:	3301      	adds	r3, #1
    363a:	602b      	str	r3, [r5, #0]
    363c:	6823      	ldr	r3, [r4, #0]
    363e:	069b      	lsls	r3, r3, #26
    3640:	d502      	bpl.n	3648 <_printf_common+0x30>
    3642:	682b      	ldr	r3, [r5, #0]
    3644:	3302      	adds	r3, #2
    3646:	602b      	str	r3, [r5, #0]
    3648:	6822      	ldr	r2, [r4, #0]
    364a:	2306      	movs	r3, #6
    364c:	0017      	movs	r7, r2
    364e:	401f      	ands	r7, r3
    3650:	421a      	tst	r2, r3
    3652:	d027      	beq.n	36a4 <_printf_common+0x8c>
    3654:	0023      	movs	r3, r4
    3656:	3343      	adds	r3, #67	; 0x43
    3658:	781b      	ldrb	r3, [r3, #0]
    365a:	1e5a      	subs	r2, r3, #1
    365c:	4193      	sbcs	r3, r2
    365e:	6822      	ldr	r2, [r4, #0]
    3660:	0692      	lsls	r2, r2, #26
    3662:	d430      	bmi.n	36c6 <_printf_common+0xae>
    3664:	0022      	movs	r2, r4
    3666:	9901      	ldr	r1, [sp, #4]
    3668:	9800      	ldr	r0, [sp, #0]
    366a:	9e08      	ldr	r6, [sp, #32]
    366c:	3243      	adds	r2, #67	; 0x43
    366e:	47b0      	blx	r6
    3670:	1c43      	adds	r3, r0, #1
    3672:	d025      	beq.n	36c0 <_printf_common+0xa8>
    3674:	2306      	movs	r3, #6
    3676:	6820      	ldr	r0, [r4, #0]
    3678:	682a      	ldr	r2, [r5, #0]
    367a:	68e1      	ldr	r1, [r4, #12]
    367c:	2500      	movs	r5, #0
    367e:	4003      	ands	r3, r0
    3680:	2b04      	cmp	r3, #4
    3682:	d103      	bne.n	368c <_printf_common+0x74>
    3684:	1a8d      	subs	r5, r1, r2
    3686:	43eb      	mvns	r3, r5
    3688:	17db      	asrs	r3, r3, #31
    368a:	401d      	ands	r5, r3
    368c:	68a3      	ldr	r3, [r4, #8]
    368e:	6922      	ldr	r2, [r4, #16]
    3690:	4293      	cmp	r3, r2
    3692:	dd01      	ble.n	3698 <_printf_common+0x80>
    3694:	1a9b      	subs	r3, r3, r2
    3696:	18ed      	adds	r5, r5, r3
    3698:	2700      	movs	r7, #0
    369a:	42bd      	cmp	r5, r7
    369c:	d120      	bne.n	36e0 <_printf_common+0xc8>
    369e:	2000      	movs	r0, #0
    36a0:	e010      	b.n	36c4 <_printf_common+0xac>
    36a2:	3701      	adds	r7, #1
    36a4:	68e3      	ldr	r3, [r4, #12]
    36a6:	682a      	ldr	r2, [r5, #0]
    36a8:	1a9b      	subs	r3, r3, r2
    36aa:	42bb      	cmp	r3, r7
    36ac:	ddd2      	ble.n	3654 <_printf_common+0x3c>
    36ae:	0022      	movs	r2, r4
    36b0:	2301      	movs	r3, #1
    36b2:	9901      	ldr	r1, [sp, #4]
    36b4:	9800      	ldr	r0, [sp, #0]
    36b6:	9e08      	ldr	r6, [sp, #32]
    36b8:	3219      	adds	r2, #25
    36ba:	47b0      	blx	r6
    36bc:	1c43      	adds	r3, r0, #1
    36be:	d1f0      	bne.n	36a2 <_printf_common+0x8a>
    36c0:	2001      	movs	r0, #1
    36c2:	4240      	negs	r0, r0
    36c4:	bdfe      	pop	{r1, r2, r3, r4, r5, r6, r7, pc}
    36c6:	2030      	movs	r0, #48	; 0x30
    36c8:	18e1      	adds	r1, r4, r3
    36ca:	3143      	adds	r1, #67	; 0x43
    36cc:	7008      	strb	r0, [r1, #0]
    36ce:	0021      	movs	r1, r4
    36d0:	1c5a      	adds	r2, r3, #1
    36d2:	3145      	adds	r1, #69	; 0x45
    36d4:	7809      	ldrb	r1, [r1, #0]
    36d6:	18a2      	adds	r2, r4, r2
    36d8:	3243      	adds	r2, #67	; 0x43
    36da:	3302      	adds	r3, #2
    36dc:	7011      	strb	r1, [r2, #0]
    36de:	e7c1      	b.n	3664 <_printf_common+0x4c>
    36e0:	0022      	movs	r2, r4
    36e2:	2301      	movs	r3, #1
    36e4:	9901      	ldr	r1, [sp, #4]
    36e6:	9800      	ldr	r0, [sp, #0]
    36e8:	9e08      	ldr	r6, [sp, #32]
    36ea:	321a      	adds	r2, #26
    36ec:	47b0      	blx	r6
    36ee:	1c43      	adds	r3, r0, #1
    36f0:	d0e6      	beq.n	36c0 <_printf_common+0xa8>
    36f2:	3701      	adds	r7, #1
    36f4:	e7d1      	b.n	369a <_printf_common+0x82>
	...

000036f8 <_printf_i>:
    36f8:	b5f0      	push	{r4, r5, r6, r7, lr}
    36fa:	b08b      	sub	sp, #44	; 0x2c
    36fc:	9206      	str	r2, [sp, #24]
    36fe:	000a      	movs	r2, r1
    3700:	3243      	adds	r2, #67	; 0x43
    3702:	9307      	str	r3, [sp, #28]
    3704:	9005      	str	r0, [sp, #20]
    3706:	9204      	str	r2, [sp, #16]
    3708:	7e0a      	ldrb	r2, [r1, #24]
    370a:	000c      	movs	r4, r1
    370c:	9b10      	ldr	r3, [sp, #64]	; 0x40
    370e:	2a78      	cmp	r2, #120	; 0x78
    3710:	d806      	bhi.n	3720 <_printf_i+0x28>
    3712:	2a62      	cmp	r2, #98	; 0x62
    3714:	d808      	bhi.n	3728 <_printf_i+0x30>
    3716:	2a00      	cmp	r2, #0
    3718:	d100      	bne.n	371c <_printf_i+0x24>
    371a:	e0c0      	b.n	389e <_printf_i+0x1a6>
    371c:	2a58      	cmp	r2, #88	; 0x58
    371e:	d052      	beq.n	37c6 <_printf_i+0xce>
    3720:	0026      	movs	r6, r4
    3722:	3642      	adds	r6, #66	; 0x42
    3724:	7032      	strb	r2, [r6, #0]
    3726:	e022      	b.n	376e <_printf_i+0x76>
    3728:	0010      	movs	r0, r2
    372a:	3863      	subs	r0, #99	; 0x63
    372c:	2815      	cmp	r0, #21
    372e:	d8f7      	bhi.n	3720 <_printf_i+0x28>
    3730:	f001 f9a4 	bl	4a7c <__gnu_thumb1_case_shi>
    3734:	001f0016 	.word	0x001f0016
    3738:	fff6fff6 	.word	0xfff6fff6
    373c:	fff6fff6 	.word	0xfff6fff6
    3740:	fff6001f 	.word	0xfff6001f
    3744:	fff6fff6 	.word	0xfff6fff6
    3748:	00a8fff6 	.word	0x00a8fff6
    374c:	009a0036 	.word	0x009a0036
    3750:	fff6fff6 	.word	0xfff6fff6
    3754:	fff600b9 	.word	0xfff600b9
    3758:	fff60036 	.word	0xfff60036
    375c:	009efff6 	.word	0x009efff6
    3760:	0026      	movs	r6, r4
    3762:	681a      	ldr	r2, [r3, #0]
    3764:	3642      	adds	r6, #66	; 0x42
    3766:	1d11      	adds	r1, r2, #4
    3768:	6019      	str	r1, [r3, #0]
    376a:	6813      	ldr	r3, [r2, #0]
    376c:	7033      	strb	r3, [r6, #0]
    376e:	2301      	movs	r3, #1
    3770:	e0a7      	b.n	38c2 <_printf_i+0x1ca>
    3772:	6808      	ldr	r0, [r1, #0]
    3774:	6819      	ldr	r1, [r3, #0]
    3776:	1d0a      	adds	r2, r1, #4
    3778:	0605      	lsls	r5, r0, #24
    377a:	d50b      	bpl.n	3794 <_printf_i+0x9c>
    377c:	680d      	ldr	r5, [r1, #0]
    377e:	601a      	str	r2, [r3, #0]
    3780:	2d00      	cmp	r5, #0
    3782:	da03      	bge.n	378c <_printf_i+0x94>
    3784:	232d      	movs	r3, #45	; 0x2d
    3786:	9a04      	ldr	r2, [sp, #16]
    3788:	426d      	negs	r5, r5
    378a:	7013      	strb	r3, [r2, #0]
    378c:	4b61      	ldr	r3, [pc, #388]	; (3914 <_printf_i+0x21c>)
    378e:	270a      	movs	r7, #10
    3790:	9303      	str	r3, [sp, #12]
    3792:	e032      	b.n	37fa <_printf_i+0x102>
    3794:	680d      	ldr	r5, [r1, #0]
    3796:	601a      	str	r2, [r3, #0]
    3798:	0641      	lsls	r1, r0, #25
    379a:	d5f1      	bpl.n	3780 <_printf_i+0x88>
    379c:	b22d      	sxth	r5, r5
    379e:	e7ef      	b.n	3780 <_printf_i+0x88>
    37a0:	680d      	ldr	r5, [r1, #0]
    37a2:	6819      	ldr	r1, [r3, #0]
    37a4:	1d08      	adds	r0, r1, #4
    37a6:	6018      	str	r0, [r3, #0]
    37a8:	062e      	lsls	r6, r5, #24
    37aa:	d501      	bpl.n	37b0 <_printf_i+0xb8>
    37ac:	680d      	ldr	r5, [r1, #0]
    37ae:	e003      	b.n	37b8 <_printf_i+0xc0>
    37b0:	066d      	lsls	r5, r5, #25
    37b2:	d5fb      	bpl.n	37ac <_printf_i+0xb4>
    37b4:	680d      	ldr	r5, [r1, #0]
    37b6:	b2ad      	uxth	r5, r5
    37b8:	4b56      	ldr	r3, [pc, #344]	; (3914 <_printf_i+0x21c>)
    37ba:	270a      	movs	r7, #10
    37bc:	9303      	str	r3, [sp, #12]
    37be:	2a6f      	cmp	r2, #111	; 0x6f
    37c0:	d117      	bne.n	37f2 <_printf_i+0xfa>
    37c2:	2708      	movs	r7, #8
    37c4:	e015      	b.n	37f2 <_printf_i+0xfa>
    37c6:	3145      	adds	r1, #69	; 0x45
    37c8:	700a      	strb	r2, [r1, #0]
    37ca:	4a52      	ldr	r2, [pc, #328]	; (3914 <_printf_i+0x21c>)
    37cc:	9203      	str	r2, [sp, #12]
    37ce:	681a      	ldr	r2, [r3, #0]
    37d0:	6821      	ldr	r1, [r4, #0]
    37d2:	ca20      	ldmia	r2!, {r5}
    37d4:	601a      	str	r2, [r3, #0]
    37d6:	0608      	lsls	r0, r1, #24
    37d8:	d550      	bpl.n	387c <_printf_i+0x184>
    37da:	07cb      	lsls	r3, r1, #31
    37dc:	d502      	bpl.n	37e4 <_printf_i+0xec>
    37de:	2320      	movs	r3, #32
    37e0:	4319      	orrs	r1, r3
    37e2:	6021      	str	r1, [r4, #0]
    37e4:	2710      	movs	r7, #16
    37e6:	2d00      	cmp	r5, #0
    37e8:	d103      	bne.n	37f2 <_printf_i+0xfa>
    37ea:	2320      	movs	r3, #32
    37ec:	6822      	ldr	r2, [r4, #0]
    37ee:	439a      	bics	r2, r3
    37f0:	6022      	str	r2, [r4, #0]
    37f2:	0023      	movs	r3, r4
    37f4:	2200      	movs	r2, #0
    37f6:	3343      	adds	r3, #67	; 0x43
    37f8:	701a      	strb	r2, [r3, #0]
    37fa:	6863      	ldr	r3, [r4, #4]
    37fc:	60a3      	str	r3, [r4, #8]
    37fe:	2b00      	cmp	r3, #0
    3800:	db03      	blt.n	380a <_printf_i+0x112>
    3802:	2204      	movs	r2, #4
    3804:	6821      	ldr	r1, [r4, #0]
    3806:	4391      	bics	r1, r2
    3808:	6021      	str	r1, [r4, #0]
    380a:	2d00      	cmp	r5, #0
    380c:	d102      	bne.n	3814 <_printf_i+0x11c>
    380e:	9e04      	ldr	r6, [sp, #16]
    3810:	2b00      	cmp	r3, #0
    3812:	d00c      	beq.n	382e <_printf_i+0x136>
    3814:	9e04      	ldr	r6, [sp, #16]
    3816:	0028      	movs	r0, r5
    3818:	0039      	movs	r1, r7
    381a:	f001 f9bf 	bl	4b9c <__aeabi_uidivmod>
    381e:	9b03      	ldr	r3, [sp, #12]
    3820:	3e01      	subs	r6, #1
    3822:	5c5b      	ldrb	r3, [r3, r1]
    3824:	7033      	strb	r3, [r6, #0]
    3826:	002b      	movs	r3, r5
    3828:	0005      	movs	r5, r0
    382a:	429f      	cmp	r7, r3
    382c:	d9f3      	bls.n	3816 <_printf_i+0x11e>
    382e:	2f08      	cmp	r7, #8
    3830:	d109      	bne.n	3846 <_printf_i+0x14e>
    3832:	6823      	ldr	r3, [r4, #0]
    3834:	07db      	lsls	r3, r3, #31
    3836:	d506      	bpl.n	3846 <_printf_i+0x14e>
    3838:	6863      	ldr	r3, [r4, #4]
    383a:	6922      	ldr	r2, [r4, #16]
    383c:	4293      	cmp	r3, r2
    383e:	dc02      	bgt.n	3846 <_printf_i+0x14e>
    3840:	2330      	movs	r3, #48	; 0x30
    3842:	3e01      	subs	r6, #1
    3844:	7033      	strb	r3, [r6, #0]
    3846:	9b04      	ldr	r3, [sp, #16]
    3848:	1b9b      	subs	r3, r3, r6
    384a:	6123      	str	r3, [r4, #16]
    384c:	9b07      	ldr	r3, [sp, #28]
    384e:	0021      	movs	r1, r4
    3850:	9300      	str	r3, [sp, #0]
    3852:	9805      	ldr	r0, [sp, #20]
    3854:	9b06      	ldr	r3, [sp, #24]
    3856:	aa09      	add	r2, sp, #36	; 0x24
    3858:	f7ff fede 	bl	3618 <_printf_common>
    385c:	1c43      	adds	r3, r0, #1
    385e:	d135      	bne.n	38cc <_printf_i+0x1d4>
    3860:	2001      	movs	r0, #1
    3862:	4240      	negs	r0, r0
    3864:	b00b      	add	sp, #44	; 0x2c
    3866:	bdf0      	pop	{r4, r5, r6, r7, pc}
    3868:	2220      	movs	r2, #32
    386a:	6809      	ldr	r1, [r1, #0]
    386c:	430a      	orrs	r2, r1
    386e:	6022      	str	r2, [r4, #0]
    3870:	0022      	movs	r2, r4
    3872:	2178      	movs	r1, #120	; 0x78
    3874:	3245      	adds	r2, #69	; 0x45
    3876:	7011      	strb	r1, [r2, #0]
    3878:	4a27      	ldr	r2, [pc, #156]	; (3918 <_printf_i+0x220>)
    387a:	e7a7      	b.n	37cc <_printf_i+0xd4>
    387c:	0648      	lsls	r0, r1, #25
    387e:	d5ac      	bpl.n	37da <_printf_i+0xe2>
    3880:	b2ad      	uxth	r5, r5
    3882:	e7aa      	b.n	37da <_printf_i+0xe2>
    3884:	681a      	ldr	r2, [r3, #0]
    3886:	680d      	ldr	r5, [r1, #0]
    3888:	1d10      	adds	r0, r2, #4
    388a:	6949      	ldr	r1, [r1, #20]
    388c:	6018      	str	r0, [r3, #0]
    388e:	6813      	ldr	r3, [r2, #0]
    3890:	062e      	lsls	r6, r5, #24
    3892:	d501      	bpl.n	3898 <_printf_i+0x1a0>
    3894:	6019      	str	r1, [r3, #0]
    3896:	e002      	b.n	389e <_printf_i+0x1a6>
    3898:	066d      	lsls	r5, r5, #25
    389a:	d5fb      	bpl.n	3894 <_printf_i+0x19c>
    389c:	8019      	strh	r1, [r3, #0]
    389e:	2300      	movs	r3, #0
    38a0:	9e04      	ldr	r6, [sp, #16]
    38a2:	6123      	str	r3, [r4, #16]
    38a4:	e7d2      	b.n	384c <_printf_i+0x154>
    38a6:	681a      	ldr	r2, [r3, #0]
    38a8:	1d11      	adds	r1, r2, #4
    38aa:	6019      	str	r1, [r3, #0]
    38ac:	6816      	ldr	r6, [r2, #0]
    38ae:	2100      	movs	r1, #0
    38b0:	0030      	movs	r0, r6
    38b2:	6862      	ldr	r2, [r4, #4]
    38b4:	f000 fdd6 	bl	4464 <memchr>
    38b8:	2800      	cmp	r0, #0
    38ba:	d001      	beq.n	38c0 <_printf_i+0x1c8>
    38bc:	1b80      	subs	r0, r0, r6
    38be:	6060      	str	r0, [r4, #4]
    38c0:	6863      	ldr	r3, [r4, #4]
    38c2:	6123      	str	r3, [r4, #16]
    38c4:	2300      	movs	r3, #0
    38c6:	9a04      	ldr	r2, [sp, #16]
    38c8:	7013      	strb	r3, [r2, #0]
    38ca:	e7bf      	b.n	384c <_printf_i+0x154>
    38cc:	6923      	ldr	r3, [r4, #16]
    38ce:	0032      	movs	r2, r6
    38d0:	9906      	ldr	r1, [sp, #24]
    38d2:	9805      	ldr	r0, [sp, #20]
    38d4:	9d07      	ldr	r5, [sp, #28]
    38d6:	47a8      	blx	r5
    38d8:	1c43      	adds	r3, r0, #1
    38da:	d0c1      	beq.n	3860 <_printf_i+0x168>
    38dc:	6823      	ldr	r3, [r4, #0]
    38de:	079b      	lsls	r3, r3, #30
    38e0:	d415      	bmi.n	390e <_printf_i+0x216>
    38e2:	9b09      	ldr	r3, [sp, #36]	; 0x24
    38e4:	68e0      	ldr	r0, [r4, #12]
    38e6:	4298      	cmp	r0, r3
    38e8:	dabc      	bge.n	3864 <_printf_i+0x16c>
    38ea:	0018      	movs	r0, r3
    38ec:	e7ba      	b.n	3864 <_printf_i+0x16c>
    38ee:	0022      	movs	r2, r4
    38f0:	2301      	movs	r3, #1
    38f2:	9906      	ldr	r1, [sp, #24]
    38f4:	9805      	ldr	r0, [sp, #20]
    38f6:	9e07      	ldr	r6, [sp, #28]
    38f8:	3219      	adds	r2, #25
    38fa:	47b0      	blx	r6
    38fc:	1c43      	adds	r3, r0, #1
    38fe:	d0af      	beq.n	3860 <_printf_i+0x168>
    3900:	3501      	adds	r5, #1
    3902:	68e3      	ldr	r3, [r4, #12]
    3904:	9a09      	ldr	r2, [sp, #36]	; 0x24
    3906:	1a9b      	subs	r3, r3, r2
    3908:	42ab      	cmp	r3, r5
    390a:	dcf0      	bgt.n	38ee <_printf_i+0x1f6>
    390c:	e7e9      	b.n	38e2 <_printf_i+0x1ea>
    390e:	2500      	movs	r5, #0
    3910:	e7f7      	b.n	3902 <_printf_i+0x20a>
    3912:	46c0      	nop			; (mov r8, r8)
    3914:	00005fc1 	.word	0x00005fc1
    3918:	00005fd2 	.word	0x00005fd2

0000391c <_iprintf_r>:
    391c:	b40e      	push	{r1, r2, r3}
    391e:	b517      	push	{r0, r1, r2, r4, lr}
    3920:	1e04      	subs	r4, r0, #0
    3922:	d004      	beq.n	392e <_iprintf_r+0x12>
    3924:	6983      	ldr	r3, [r0, #24]
    3926:	2b00      	cmp	r3, #0
    3928:	d101      	bne.n	392e <_iprintf_r+0x12>
    392a:	f000 fae5 	bl	3ef8 <__sinit>
    392e:	ab06      	add	r3, sp, #24
    3930:	0020      	movs	r0, r4
    3932:	9a05      	ldr	r2, [sp, #20]
    3934:	68a1      	ldr	r1, [r4, #8]
    3936:	9301      	str	r3, [sp, #4]
    3938:	f7ff fd28 	bl	338c <_vfiprintf_r>
    393c:	bc1e      	pop	{r1, r2, r3, r4}
    393e:	bc08      	pop	{r3}
    3940:	b003      	add	sp, #12
    3942:	4718      	bx	r3

00003944 <iprintf>:
    3944:	b40f      	push	{r0, r1, r2, r3}
    3946:	4b0b      	ldr	r3, [pc, #44]	; (3974 <iprintf+0x30>)
    3948:	b513      	push	{r0, r1, r4, lr}
    394a:	681c      	ldr	r4, [r3, #0]
    394c:	2c00      	cmp	r4, #0
    394e:	d005      	beq.n	395c <iprintf+0x18>
    3950:	69a3      	ldr	r3, [r4, #24]
    3952:	2b00      	cmp	r3, #0
    3954:	d102      	bne.n	395c <iprintf+0x18>
    3956:	0020      	movs	r0, r4
    3958:	f000 face 	bl	3ef8 <__sinit>
    395c:	ab05      	add	r3, sp, #20
    395e:	0020      	movs	r0, r4
    3960:	9a04      	ldr	r2, [sp, #16]
    3962:	68a1      	ldr	r1, [r4, #8]
    3964:	9301      	str	r3, [sp, #4]
    3966:	f7ff fd11 	bl	338c <_vfiprintf_r>
    396a:	bc16      	pop	{r1, r2, r4}
    396c:	bc08      	pop	{r3}
    396e:	b004      	add	sp, #16
    3970:	4718      	bx	r3
    3972:	46c0      	nop			; (mov r8, r8)
    3974:	20000010 	.word	0x20000010

00003978 <_puts_r>:
    3978:	b570      	push	{r4, r5, r6, lr}
    397a:	0005      	movs	r5, r0
    397c:	000e      	movs	r6, r1
    397e:	2800      	cmp	r0, #0
    3980:	d004      	beq.n	398c <_puts_r+0x14>
    3982:	6983      	ldr	r3, [r0, #24]
    3984:	2b00      	cmp	r3, #0
    3986:	d101      	bne.n	398c <_puts_r+0x14>
    3988:	f000 fab6 	bl	3ef8 <__sinit>
    398c:	69ab      	ldr	r3, [r5, #24]
    398e:	68ac      	ldr	r4, [r5, #8]
    3990:	2b00      	cmp	r3, #0
    3992:	d102      	bne.n	399a <_puts_r+0x22>
    3994:	0028      	movs	r0, r5
    3996:	f000 faaf 	bl	3ef8 <__sinit>
    399a:	4b2d      	ldr	r3, [pc, #180]	; (3a50 <_puts_r+0xd8>)
    399c:	429c      	cmp	r4, r3
    399e:	d122      	bne.n	39e6 <_puts_r+0x6e>
    39a0:	686c      	ldr	r4, [r5, #4]
    39a2:	6e63      	ldr	r3, [r4, #100]	; 0x64
    39a4:	07db      	lsls	r3, r3, #31
    39a6:	d405      	bmi.n	39b4 <_puts_r+0x3c>
    39a8:	89a3      	ldrh	r3, [r4, #12]
    39aa:	059b      	lsls	r3, r3, #22
    39ac:	d402      	bmi.n	39b4 <_puts_r+0x3c>
    39ae:	6da0      	ldr	r0, [r4, #88]	; 0x58
    39b0:	f000 fce4 	bl	437c <__retarget_lock_acquire_recursive>
    39b4:	89a3      	ldrh	r3, [r4, #12]
    39b6:	071b      	lsls	r3, r3, #28
    39b8:	d502      	bpl.n	39c0 <_puts_r+0x48>
    39ba:	6923      	ldr	r3, [r4, #16]
    39bc:	2b00      	cmp	r3, #0
    39be:	d129      	bne.n	3a14 <_puts_r+0x9c>
    39c0:	0021      	movs	r1, r4
    39c2:	0028      	movs	r0, r5
    39c4:	f000 f8b4 	bl	3b30 <__swsetup_r>
    39c8:	2800      	cmp	r0, #0
    39ca:	d023      	beq.n	3a14 <_puts_r+0x9c>
    39cc:	2501      	movs	r5, #1
    39ce:	426d      	negs	r5, r5
    39d0:	6e63      	ldr	r3, [r4, #100]	; 0x64
    39d2:	07db      	lsls	r3, r3, #31
    39d4:	d405      	bmi.n	39e2 <_puts_r+0x6a>
    39d6:	89a3      	ldrh	r3, [r4, #12]
    39d8:	059b      	lsls	r3, r3, #22
    39da:	d402      	bmi.n	39e2 <_puts_r+0x6a>
    39dc:	6da0      	ldr	r0, [r4, #88]	; 0x58
    39de:	f000 fcd3 	bl	4388 <__retarget_lock_release_recursive>
    39e2:	0028      	movs	r0, r5
    39e4:	bd70      	pop	{r4, r5, r6, pc}
    39e6:	4b1b      	ldr	r3, [pc, #108]	; (3a54 <_puts_r+0xdc>)
    39e8:	429c      	cmp	r4, r3
    39ea:	d101      	bne.n	39f0 <_puts_r+0x78>
    39ec:	68ac      	ldr	r4, [r5, #8]
    39ee:	e7d8      	b.n	39a2 <_puts_r+0x2a>
    39f0:	4b19      	ldr	r3, [pc, #100]	; (3a58 <_puts_r+0xe0>)
    39f2:	429c      	cmp	r4, r3
    39f4:	d1d5      	bne.n	39a2 <_puts_r+0x2a>
    39f6:	68ec      	ldr	r4, [r5, #12]
    39f8:	e7d3      	b.n	39a2 <_puts_r+0x2a>
    39fa:	3601      	adds	r6, #1
    39fc:	60a3      	str	r3, [r4, #8]
    39fe:	2b00      	cmp	r3, #0
    3a00:	da04      	bge.n	3a0c <_puts_r+0x94>
    3a02:	69a2      	ldr	r2, [r4, #24]
    3a04:	429a      	cmp	r2, r3
    3a06:	dc16      	bgt.n	3a36 <_puts_r+0xbe>
    3a08:	290a      	cmp	r1, #10
    3a0a:	d014      	beq.n	3a36 <_puts_r+0xbe>
    3a0c:	6823      	ldr	r3, [r4, #0]
    3a0e:	1c5a      	adds	r2, r3, #1
    3a10:	6022      	str	r2, [r4, #0]
    3a12:	7019      	strb	r1, [r3, #0]
    3a14:	68a3      	ldr	r3, [r4, #8]
    3a16:	7831      	ldrb	r1, [r6, #0]
    3a18:	3b01      	subs	r3, #1
    3a1a:	2900      	cmp	r1, #0
    3a1c:	d1ed      	bne.n	39fa <_puts_r+0x82>
    3a1e:	60a3      	str	r3, [r4, #8]
    3a20:	2b00      	cmp	r3, #0
    3a22:	da0f      	bge.n	3a44 <_puts_r+0xcc>
    3a24:	0028      	movs	r0, r5
    3a26:	0022      	movs	r2, r4
    3a28:	310a      	adds	r1, #10
    3a2a:	f000 f821 	bl	3a70 <__swbuf_r>
    3a2e:	250a      	movs	r5, #10
    3a30:	1c43      	adds	r3, r0, #1
    3a32:	d1cd      	bne.n	39d0 <_puts_r+0x58>
    3a34:	e7ca      	b.n	39cc <_puts_r+0x54>
    3a36:	0022      	movs	r2, r4
    3a38:	0028      	movs	r0, r5
    3a3a:	f000 f819 	bl	3a70 <__swbuf_r>
    3a3e:	1c43      	adds	r3, r0, #1
    3a40:	d1e8      	bne.n	3a14 <_puts_r+0x9c>
    3a42:	e7c3      	b.n	39cc <_puts_r+0x54>
    3a44:	250a      	movs	r5, #10
    3a46:	6823      	ldr	r3, [r4, #0]
    3a48:	1c5a      	adds	r2, r3, #1
    3a4a:	6022      	str	r2, [r4, #0]
    3a4c:	701d      	strb	r5, [r3, #0]
    3a4e:	e7bf      	b.n	39d0 <_puts_r+0x58>
    3a50:	00006004 	.word	0x00006004
    3a54:	00006024 	.word	0x00006024
    3a58:	00005fe4 	.word	0x00005fe4

00003a5c <puts>:
    3a5c:	b510      	push	{r4, lr}
    3a5e:	4b03      	ldr	r3, [pc, #12]	; (3a6c <puts+0x10>)
    3a60:	0001      	movs	r1, r0
    3a62:	6818      	ldr	r0, [r3, #0]
    3a64:	f7ff ff88 	bl	3978 <_puts_r>
    3a68:	bd10      	pop	{r4, pc}
    3a6a:	46c0      	nop			; (mov r8, r8)
    3a6c:	20000010 	.word	0x20000010

00003a70 <__swbuf_r>:
    3a70:	b5f8      	push	{r3, r4, r5, r6, r7, lr}
    3a72:	0005      	movs	r5, r0
    3a74:	000e      	movs	r6, r1
    3a76:	0014      	movs	r4, r2
    3a78:	2800      	cmp	r0, #0
    3a7a:	d004      	beq.n	3a86 <__swbuf_r+0x16>
    3a7c:	6983      	ldr	r3, [r0, #24]
    3a7e:	2b00      	cmp	r3, #0
    3a80:	d101      	bne.n	3a86 <__swbuf_r+0x16>
    3a82:	f000 fa39 	bl	3ef8 <__sinit>
    3a86:	4b22      	ldr	r3, [pc, #136]	; (3b10 <__swbuf_r+0xa0>)
    3a88:	429c      	cmp	r4, r3
    3a8a:	d12e      	bne.n	3aea <__swbuf_r+0x7a>
    3a8c:	686c      	ldr	r4, [r5, #4]
    3a8e:	69a3      	ldr	r3, [r4, #24]
    3a90:	60a3      	str	r3, [r4, #8]
    3a92:	89a3      	ldrh	r3, [r4, #12]
    3a94:	071b      	lsls	r3, r3, #28
    3a96:	d532      	bpl.n	3afe <__swbuf_r+0x8e>
    3a98:	6923      	ldr	r3, [r4, #16]
    3a9a:	2b00      	cmp	r3, #0
    3a9c:	d02f      	beq.n	3afe <__swbuf_r+0x8e>
    3a9e:	6823      	ldr	r3, [r4, #0]
    3aa0:	6922      	ldr	r2, [r4, #16]
    3aa2:	b2f7      	uxtb	r7, r6
    3aa4:	1a98      	subs	r0, r3, r2
    3aa6:	6963      	ldr	r3, [r4, #20]
    3aa8:	b2f6      	uxtb	r6, r6
    3aaa:	4283      	cmp	r3, r0
    3aac:	dc05      	bgt.n	3aba <__swbuf_r+0x4a>
    3aae:	0021      	movs	r1, r4
    3ab0:	0028      	movs	r0, r5
    3ab2:	f000 f949 	bl	3d48 <_fflush_r>
    3ab6:	2800      	cmp	r0, #0
    3ab8:	d127      	bne.n	3b0a <__swbuf_r+0x9a>
    3aba:	68a3      	ldr	r3, [r4, #8]
    3abc:	3001      	adds	r0, #1
    3abe:	3b01      	subs	r3, #1
    3ac0:	60a3      	str	r3, [r4, #8]
    3ac2:	6823      	ldr	r3, [r4, #0]
    3ac4:	1c5a      	adds	r2, r3, #1
    3ac6:	6022      	str	r2, [r4, #0]
    3ac8:	701f      	strb	r7, [r3, #0]
    3aca:	6963      	ldr	r3, [r4, #20]
    3acc:	4283      	cmp	r3, r0
    3ace:	d004      	beq.n	3ada <__swbuf_r+0x6a>
    3ad0:	89a3      	ldrh	r3, [r4, #12]
    3ad2:	07db      	lsls	r3, r3, #31
    3ad4:	d507      	bpl.n	3ae6 <__swbuf_r+0x76>
    3ad6:	2e0a      	cmp	r6, #10
    3ad8:	d105      	bne.n	3ae6 <__swbuf_r+0x76>
    3ada:	0021      	movs	r1, r4
    3adc:	0028      	movs	r0, r5
    3ade:	f000 f933 	bl	3d48 <_fflush_r>
    3ae2:	2800      	cmp	r0, #0
    3ae4:	d111      	bne.n	3b0a <__swbuf_r+0x9a>
    3ae6:	0030      	movs	r0, r6
    3ae8:	bdf8      	pop	{r3, r4, r5, r6, r7, pc}
    3aea:	4b0a      	ldr	r3, [pc, #40]	; (3b14 <__swbuf_r+0xa4>)
    3aec:	429c      	cmp	r4, r3
    3aee:	d101      	bne.n	3af4 <__swbuf_r+0x84>
    3af0:	68ac      	ldr	r4, [r5, #8]
    3af2:	e7cc      	b.n	3a8e <__swbuf_r+0x1e>
    3af4:	4b08      	ldr	r3, [pc, #32]	; (3b18 <__swbuf_r+0xa8>)
    3af6:	429c      	cmp	r4, r3
    3af8:	d1c9      	bne.n	3a8e <__swbuf_r+0x1e>
    3afa:	68ec      	ldr	r4, [r5, #12]
    3afc:	e7c7      	b.n	3a8e <__swbuf_r+0x1e>
    3afe:	0021      	movs	r1, r4
    3b00:	0028      	movs	r0, r5
    3b02:	f000 f815 	bl	3b30 <__swsetup_r>
    3b06:	2800      	cmp	r0, #0
    3b08:	d0c9      	beq.n	3a9e <__swbuf_r+0x2e>
    3b0a:	2601      	movs	r6, #1
    3b0c:	4276      	negs	r6, r6
    3b0e:	e7ea      	b.n	3ae6 <__swbuf_r+0x76>
    3b10:	00006004 	.word	0x00006004
    3b14:	00006024 	.word	0x00006024
    3b18:	00005fe4 	.word	0x00005fe4

00003b1c <__swbuf>:
    3b1c:	b510      	push	{r4, lr}
    3b1e:	4b03      	ldr	r3, [pc, #12]	; (3b2c <__swbuf+0x10>)
    3b20:	000a      	movs	r2, r1
    3b22:	0001      	movs	r1, r0
    3b24:	6818      	ldr	r0, [r3, #0]
    3b26:	f7ff ffa3 	bl	3a70 <__swbuf_r>
    3b2a:	bd10      	pop	{r4, pc}
    3b2c:	20000010 	.word	0x20000010

00003b30 <__swsetup_r>:
    3b30:	4b37      	ldr	r3, [pc, #220]	; (3c10 <__swsetup_r+0xe0>)
    3b32:	b570      	push	{r4, r5, r6, lr}
    3b34:	681d      	ldr	r5, [r3, #0]
    3b36:	0006      	movs	r6, r0
    3b38:	000c      	movs	r4, r1
    3b3a:	2d00      	cmp	r5, #0
    3b3c:	d005      	beq.n	3b4a <__swsetup_r+0x1a>
    3b3e:	69ab      	ldr	r3, [r5, #24]
    3b40:	2b00      	cmp	r3, #0
    3b42:	d102      	bne.n	3b4a <__swsetup_r+0x1a>
    3b44:	0028      	movs	r0, r5
    3b46:	f000 f9d7 	bl	3ef8 <__sinit>
    3b4a:	4b32      	ldr	r3, [pc, #200]	; (3c14 <__swsetup_r+0xe4>)
    3b4c:	429c      	cmp	r4, r3
    3b4e:	d10f      	bne.n	3b70 <__swsetup_r+0x40>
    3b50:	686c      	ldr	r4, [r5, #4]
    3b52:	230c      	movs	r3, #12
    3b54:	5ee2      	ldrsh	r2, [r4, r3]
    3b56:	b293      	uxth	r3, r2
    3b58:	0711      	lsls	r1, r2, #28
    3b5a:	d42d      	bmi.n	3bb8 <__swsetup_r+0x88>
    3b5c:	06d9      	lsls	r1, r3, #27
    3b5e:	d411      	bmi.n	3b84 <__swsetup_r+0x54>
    3b60:	2309      	movs	r3, #9
    3b62:	2001      	movs	r0, #1
    3b64:	6033      	str	r3, [r6, #0]
    3b66:	3337      	adds	r3, #55	; 0x37
    3b68:	4313      	orrs	r3, r2
    3b6a:	81a3      	strh	r3, [r4, #12]
    3b6c:	4240      	negs	r0, r0
    3b6e:	bd70      	pop	{r4, r5, r6, pc}
    3b70:	4b29      	ldr	r3, [pc, #164]	; (3c18 <__swsetup_r+0xe8>)
    3b72:	429c      	cmp	r4, r3
    3b74:	d101      	bne.n	3b7a <__swsetup_r+0x4a>
    3b76:	68ac      	ldr	r4, [r5, #8]
    3b78:	e7eb      	b.n	3b52 <__swsetup_r+0x22>
    3b7a:	4b28      	ldr	r3, [pc, #160]	; (3c1c <__swsetup_r+0xec>)
    3b7c:	429c      	cmp	r4, r3
    3b7e:	d1e8      	bne.n	3b52 <__swsetup_r+0x22>
    3b80:	68ec      	ldr	r4, [r5, #12]
    3b82:	e7e6      	b.n	3b52 <__swsetup_r+0x22>
    3b84:	075b      	lsls	r3, r3, #29
    3b86:	d513      	bpl.n	3bb0 <__swsetup_r+0x80>
    3b88:	6b61      	ldr	r1, [r4, #52]	; 0x34
    3b8a:	2900      	cmp	r1, #0
    3b8c:	d008      	beq.n	3ba0 <__swsetup_r+0x70>
    3b8e:	0023      	movs	r3, r4
    3b90:	3344      	adds	r3, #68	; 0x44
    3b92:	4299      	cmp	r1, r3
    3b94:	d002      	beq.n	3b9c <__swsetup_r+0x6c>
    3b96:	0030      	movs	r0, r6
    3b98:	f000 fc8c 	bl	44b4 <_free_r>
    3b9c:	2300      	movs	r3, #0
    3b9e:	6363      	str	r3, [r4, #52]	; 0x34
    3ba0:	2224      	movs	r2, #36	; 0x24
    3ba2:	89a3      	ldrh	r3, [r4, #12]
    3ba4:	4393      	bics	r3, r2
    3ba6:	81a3      	strh	r3, [r4, #12]
    3ba8:	2300      	movs	r3, #0
    3baa:	6063      	str	r3, [r4, #4]
    3bac:	6923      	ldr	r3, [r4, #16]
    3bae:	6023      	str	r3, [r4, #0]
    3bb0:	2308      	movs	r3, #8
    3bb2:	89a2      	ldrh	r2, [r4, #12]
    3bb4:	4313      	orrs	r3, r2
    3bb6:	81a3      	strh	r3, [r4, #12]
    3bb8:	6923      	ldr	r3, [r4, #16]
    3bba:	2b00      	cmp	r3, #0
    3bbc:	d10b      	bne.n	3bd6 <__swsetup_r+0xa6>
    3bbe:	21a0      	movs	r1, #160	; 0xa0
    3bc0:	2280      	movs	r2, #128	; 0x80
    3bc2:	89a3      	ldrh	r3, [r4, #12]
    3bc4:	0089      	lsls	r1, r1, #2
    3bc6:	0092      	lsls	r2, r2, #2
    3bc8:	400b      	ands	r3, r1
    3bca:	4293      	cmp	r3, r2
    3bcc:	d003      	beq.n	3bd6 <__swsetup_r+0xa6>
    3bce:	0021      	movs	r1, r4
    3bd0:	0030      	movs	r0, r6
    3bd2:	f000 fc03 	bl	43dc <__smakebuf_r>
    3bd6:	220c      	movs	r2, #12
    3bd8:	5ea3      	ldrsh	r3, [r4, r2]
    3bda:	2001      	movs	r0, #1
    3bdc:	001a      	movs	r2, r3
    3bde:	b299      	uxth	r1, r3
    3be0:	4002      	ands	r2, r0
    3be2:	4203      	tst	r3, r0
    3be4:	d00f      	beq.n	3c06 <__swsetup_r+0xd6>
    3be6:	2200      	movs	r2, #0
    3be8:	60a2      	str	r2, [r4, #8]
    3bea:	6962      	ldr	r2, [r4, #20]
    3bec:	4252      	negs	r2, r2
    3bee:	61a2      	str	r2, [r4, #24]
    3bf0:	2000      	movs	r0, #0
    3bf2:	6922      	ldr	r2, [r4, #16]
    3bf4:	4282      	cmp	r2, r0
    3bf6:	d1ba      	bne.n	3b6e <__swsetup_r+0x3e>
    3bf8:	060a      	lsls	r2, r1, #24
    3bfa:	d5b8      	bpl.n	3b6e <__swsetup_r+0x3e>
    3bfc:	2240      	movs	r2, #64	; 0x40
    3bfe:	4313      	orrs	r3, r2
    3c00:	81a3      	strh	r3, [r4, #12]
    3c02:	3801      	subs	r0, #1
    3c04:	e7b3      	b.n	3b6e <__swsetup_r+0x3e>
    3c06:	0788      	lsls	r0, r1, #30
    3c08:	d400      	bmi.n	3c0c <__swsetup_r+0xdc>
    3c0a:	6962      	ldr	r2, [r4, #20]
    3c0c:	60a2      	str	r2, [r4, #8]
    3c0e:	e7ef      	b.n	3bf0 <__swsetup_r+0xc0>
    3c10:	20000010 	.word	0x20000010
    3c14:	00006004 	.word	0x00006004
    3c18:	00006024 	.word	0x00006024
    3c1c:	00005fe4 	.word	0x00005fe4

00003c20 <abort>:
    3c20:	2006      	movs	r0, #6
    3c22:	b510      	push	{r4, lr}
    3c24:	f000 fda2 	bl	476c <raise>
    3c28:	2001      	movs	r0, #1
    3c2a:	f001 ff67 	bl	5afc <_exit>
	...

00003c30 <__sflush_r>:
    3c30:	b5f7      	push	{r0, r1, r2, r4, r5, r6, r7, lr}
    3c32:	898b      	ldrh	r3, [r1, #12]
    3c34:	0005      	movs	r5, r0
    3c36:	000c      	movs	r4, r1
    3c38:	071a      	lsls	r2, r3, #28
    3c3a:	d45f      	bmi.n	3cfc <__sflush_r+0xcc>
    3c3c:	684a      	ldr	r2, [r1, #4]
    3c3e:	2a00      	cmp	r2, #0
    3c40:	dc04      	bgt.n	3c4c <__sflush_r+0x1c>
    3c42:	6c0a      	ldr	r2, [r1, #64]	; 0x40
    3c44:	2a00      	cmp	r2, #0
    3c46:	dc01      	bgt.n	3c4c <__sflush_r+0x1c>
    3c48:	2000      	movs	r0, #0
    3c4a:	bdfe      	pop	{r1, r2, r3, r4, r5, r6, r7, pc}
    3c4c:	6ae7      	ldr	r7, [r4, #44]	; 0x2c
    3c4e:	2f00      	cmp	r7, #0
    3c50:	d0fa      	beq.n	3c48 <__sflush_r+0x18>
    3c52:	2200      	movs	r2, #0
    3c54:	2180      	movs	r1, #128	; 0x80
    3c56:	682e      	ldr	r6, [r5, #0]
    3c58:	602a      	str	r2, [r5, #0]
    3c5a:	001a      	movs	r2, r3
    3c5c:	0149      	lsls	r1, r1, #5
    3c5e:	400a      	ands	r2, r1
    3c60:	420b      	tst	r3, r1
    3c62:	d034      	beq.n	3cce <__sflush_r+0x9e>
    3c64:	6d60      	ldr	r0, [r4, #84]	; 0x54
    3c66:	89a3      	ldrh	r3, [r4, #12]
    3c68:	075b      	lsls	r3, r3, #29
    3c6a:	d506      	bpl.n	3c7a <__sflush_r+0x4a>
    3c6c:	6863      	ldr	r3, [r4, #4]
    3c6e:	1ac0      	subs	r0, r0, r3
    3c70:	6b63      	ldr	r3, [r4, #52]	; 0x34
    3c72:	2b00      	cmp	r3, #0
    3c74:	d001      	beq.n	3c7a <__sflush_r+0x4a>
    3c76:	6c23      	ldr	r3, [r4, #64]	; 0x40
    3c78:	1ac0      	subs	r0, r0, r3
    3c7a:	0002      	movs	r2, r0
    3c7c:	6a21      	ldr	r1, [r4, #32]
    3c7e:	2300      	movs	r3, #0
    3c80:	0028      	movs	r0, r5
    3c82:	6ae7      	ldr	r7, [r4, #44]	; 0x2c
    3c84:	47b8      	blx	r7
    3c86:	89a1      	ldrh	r1, [r4, #12]
    3c88:	1c43      	adds	r3, r0, #1
    3c8a:	d106      	bne.n	3c9a <__sflush_r+0x6a>
    3c8c:	682b      	ldr	r3, [r5, #0]
    3c8e:	2b1d      	cmp	r3, #29
    3c90:	d831      	bhi.n	3cf6 <__sflush_r+0xc6>
    3c92:	4a2c      	ldr	r2, [pc, #176]	; (3d44 <__sflush_r+0x114>)
    3c94:	40da      	lsrs	r2, r3
    3c96:	07d3      	lsls	r3, r2, #31
    3c98:	d52d      	bpl.n	3cf6 <__sflush_r+0xc6>
    3c9a:	2300      	movs	r3, #0
    3c9c:	6063      	str	r3, [r4, #4]
    3c9e:	6923      	ldr	r3, [r4, #16]
    3ca0:	6023      	str	r3, [r4, #0]
    3ca2:	04cb      	lsls	r3, r1, #19
    3ca4:	d505      	bpl.n	3cb2 <__sflush_r+0x82>
    3ca6:	1c43      	adds	r3, r0, #1
    3ca8:	d102      	bne.n	3cb0 <__sflush_r+0x80>
    3caa:	682b      	ldr	r3, [r5, #0]
    3cac:	2b00      	cmp	r3, #0
    3cae:	d100      	bne.n	3cb2 <__sflush_r+0x82>
    3cb0:	6560      	str	r0, [r4, #84]	; 0x54
    3cb2:	6b61      	ldr	r1, [r4, #52]	; 0x34
    3cb4:	602e      	str	r6, [r5, #0]
    3cb6:	2900      	cmp	r1, #0
    3cb8:	d0c6      	beq.n	3c48 <__sflush_r+0x18>
    3cba:	0023      	movs	r3, r4
    3cbc:	3344      	adds	r3, #68	; 0x44
    3cbe:	4299      	cmp	r1, r3
    3cc0:	d002      	beq.n	3cc8 <__sflush_r+0x98>
    3cc2:	0028      	movs	r0, r5
    3cc4:	f000 fbf6 	bl	44b4 <_free_r>
    3cc8:	2000      	movs	r0, #0
    3cca:	6360      	str	r0, [r4, #52]	; 0x34
    3ccc:	e7bd      	b.n	3c4a <__sflush_r+0x1a>
    3cce:	2301      	movs	r3, #1
    3cd0:	0028      	movs	r0, r5
    3cd2:	6a21      	ldr	r1, [r4, #32]
    3cd4:	47b8      	blx	r7
    3cd6:	1c43      	adds	r3, r0, #1
    3cd8:	d1c5      	bne.n	3c66 <__sflush_r+0x36>
    3cda:	682b      	ldr	r3, [r5, #0]
    3cdc:	2b00      	cmp	r3, #0
    3cde:	d0c2      	beq.n	3c66 <__sflush_r+0x36>
    3ce0:	2b1d      	cmp	r3, #29
    3ce2:	d001      	beq.n	3ce8 <__sflush_r+0xb8>
    3ce4:	2b16      	cmp	r3, #22
    3ce6:	d101      	bne.n	3cec <__sflush_r+0xbc>
    3ce8:	602e      	str	r6, [r5, #0]
    3cea:	e7ad      	b.n	3c48 <__sflush_r+0x18>
    3cec:	2340      	movs	r3, #64	; 0x40
    3cee:	89a2      	ldrh	r2, [r4, #12]
    3cf0:	4313      	orrs	r3, r2
    3cf2:	81a3      	strh	r3, [r4, #12]
    3cf4:	e7a9      	b.n	3c4a <__sflush_r+0x1a>
    3cf6:	2340      	movs	r3, #64	; 0x40
    3cf8:	430b      	orrs	r3, r1
    3cfa:	e7fa      	b.n	3cf2 <__sflush_r+0xc2>
    3cfc:	690f      	ldr	r7, [r1, #16]
    3cfe:	2f00      	cmp	r7, #0
    3d00:	d0a2      	beq.n	3c48 <__sflush_r+0x18>
    3d02:	680a      	ldr	r2, [r1, #0]
    3d04:	600f      	str	r7, [r1, #0]
    3d06:	1bd2      	subs	r2, r2, r7
    3d08:	9201      	str	r2, [sp, #4]
    3d0a:	2200      	movs	r2, #0
    3d0c:	079b      	lsls	r3, r3, #30
    3d0e:	d100      	bne.n	3d12 <__sflush_r+0xe2>
    3d10:	694a      	ldr	r2, [r1, #20]
    3d12:	60a2      	str	r2, [r4, #8]
    3d14:	9b01      	ldr	r3, [sp, #4]
    3d16:	2b00      	cmp	r3, #0
    3d18:	dc00      	bgt.n	3d1c <__sflush_r+0xec>
    3d1a:	e795      	b.n	3c48 <__sflush_r+0x18>
    3d1c:	003a      	movs	r2, r7
    3d1e:	0028      	movs	r0, r5
    3d20:	9b01      	ldr	r3, [sp, #4]
    3d22:	6a21      	ldr	r1, [r4, #32]
    3d24:	6aa6      	ldr	r6, [r4, #40]	; 0x28
    3d26:	47b0      	blx	r6
    3d28:	2800      	cmp	r0, #0
    3d2a:	dc06      	bgt.n	3d3a <__sflush_r+0x10a>
    3d2c:	2340      	movs	r3, #64	; 0x40
    3d2e:	2001      	movs	r0, #1
    3d30:	89a2      	ldrh	r2, [r4, #12]
    3d32:	4240      	negs	r0, r0
    3d34:	4313      	orrs	r3, r2
    3d36:	81a3      	strh	r3, [r4, #12]
    3d38:	e787      	b.n	3c4a <__sflush_r+0x1a>
    3d3a:	9b01      	ldr	r3, [sp, #4]
    3d3c:	183f      	adds	r7, r7, r0
    3d3e:	1a1b      	subs	r3, r3, r0
    3d40:	9301      	str	r3, [sp, #4]
    3d42:	e7e7      	b.n	3d14 <__sflush_r+0xe4>
    3d44:	20400001 	.word	0x20400001

00003d48 <_fflush_r>:
    3d48:	690b      	ldr	r3, [r1, #16]
    3d4a:	b570      	push	{r4, r5, r6, lr}
    3d4c:	0005      	movs	r5, r0
    3d4e:	000c      	movs	r4, r1
    3d50:	2b00      	cmp	r3, #0
    3d52:	d102      	bne.n	3d5a <_fflush_r+0x12>
    3d54:	2500      	movs	r5, #0
    3d56:	0028      	movs	r0, r5
    3d58:	bd70      	pop	{r4, r5, r6, pc}
    3d5a:	2800      	cmp	r0, #0
    3d5c:	d004      	beq.n	3d68 <_fflush_r+0x20>
    3d5e:	6983      	ldr	r3, [r0, #24]
    3d60:	2b00      	cmp	r3, #0
    3d62:	d101      	bne.n	3d68 <_fflush_r+0x20>
    3d64:	f000 f8c8 	bl	3ef8 <__sinit>
    3d68:	4b14      	ldr	r3, [pc, #80]	; (3dbc <_fflush_r+0x74>)
    3d6a:	429c      	cmp	r4, r3
    3d6c:	d11b      	bne.n	3da6 <_fflush_r+0x5e>
    3d6e:	686c      	ldr	r4, [r5, #4]
    3d70:	220c      	movs	r2, #12
    3d72:	5ea3      	ldrsh	r3, [r4, r2]
    3d74:	2b00      	cmp	r3, #0
    3d76:	d0ed      	beq.n	3d54 <_fflush_r+0xc>
    3d78:	6e62      	ldr	r2, [r4, #100]	; 0x64
    3d7a:	07d2      	lsls	r2, r2, #31
    3d7c:	d404      	bmi.n	3d88 <_fflush_r+0x40>
    3d7e:	059b      	lsls	r3, r3, #22
    3d80:	d402      	bmi.n	3d88 <_fflush_r+0x40>
    3d82:	6da0      	ldr	r0, [r4, #88]	; 0x58
    3d84:	f000 fafa 	bl	437c <__retarget_lock_acquire_recursive>
    3d88:	0028      	movs	r0, r5
    3d8a:	0021      	movs	r1, r4
    3d8c:	f7ff ff50 	bl	3c30 <__sflush_r>
    3d90:	6e63      	ldr	r3, [r4, #100]	; 0x64
    3d92:	0005      	movs	r5, r0
    3d94:	07db      	lsls	r3, r3, #31
    3d96:	d4de      	bmi.n	3d56 <_fflush_r+0xe>
    3d98:	89a3      	ldrh	r3, [r4, #12]
    3d9a:	059b      	lsls	r3, r3, #22
    3d9c:	d4db      	bmi.n	3d56 <_fflush_r+0xe>
    3d9e:	6da0      	ldr	r0, [r4, #88]	; 0x58
    3da0:	f000 faf2 	bl	4388 <__retarget_lock_release_recursive>
    3da4:	e7d7      	b.n	3d56 <_fflush_r+0xe>
    3da6:	4b06      	ldr	r3, [pc, #24]	; (3dc0 <_fflush_r+0x78>)
    3da8:	429c      	cmp	r4, r3
    3daa:	d101      	bne.n	3db0 <_fflush_r+0x68>
    3dac:	68ac      	ldr	r4, [r5, #8]
    3dae:	e7df      	b.n	3d70 <_fflush_r+0x28>
    3db0:	4b04      	ldr	r3, [pc, #16]	; (3dc4 <_fflush_r+0x7c>)
    3db2:	429c      	cmp	r4, r3
    3db4:	d1dc      	bne.n	3d70 <_fflush_r+0x28>
    3db6:	68ec      	ldr	r4, [r5, #12]
    3db8:	e7da      	b.n	3d70 <_fflush_r+0x28>
    3dba:	46c0      	nop			; (mov r8, r8)
    3dbc:	00006004 	.word	0x00006004
    3dc0:	00006024 	.word	0x00006024
    3dc4:	00005fe4 	.word	0x00005fe4

00003dc8 <fflush>:
    3dc8:	0001      	movs	r1, r0
    3dca:	b510      	push	{r4, lr}
    3dcc:	2800      	cmp	r0, #0
    3dce:	d105      	bne.n	3ddc <fflush+0x14>
    3dd0:	4b05      	ldr	r3, [pc, #20]	; (3de8 <fflush+0x20>)
    3dd2:	4906      	ldr	r1, [pc, #24]	; (3dec <fflush+0x24>)
    3dd4:	6818      	ldr	r0, [r3, #0]
    3dd6:	f000 faac 	bl	4332 <_fwalk_reent>
    3dda:	bd10      	pop	{r4, pc}
    3ddc:	4b04      	ldr	r3, [pc, #16]	; (3df0 <fflush+0x28>)
    3dde:	6818      	ldr	r0, [r3, #0]
    3de0:	f7ff ffb2 	bl	3d48 <_fflush_r>
    3de4:	e7f9      	b.n	3dda <fflush+0x12>
    3de6:	46c0      	nop			; (mov r8, r8)
    3de8:	00005fac 	.word	0x00005fac
    3dec:	00003d49 	.word	0x00003d49
    3df0:	20000010 	.word	0x20000010

00003df4 <std>:
    3df4:	2300      	movs	r3, #0
    3df6:	b510      	push	{r4, lr}
    3df8:	0004      	movs	r4, r0
    3dfa:	6003      	str	r3, [r0, #0]
    3dfc:	6043      	str	r3, [r0, #4]
    3dfe:	6083      	str	r3, [r0, #8]
    3e00:	8181      	strh	r1, [r0, #12]
    3e02:	6643      	str	r3, [r0, #100]	; 0x64
    3e04:	0019      	movs	r1, r3
    3e06:	81c2      	strh	r2, [r0, #14]
    3e08:	6103      	str	r3, [r0, #16]
    3e0a:	6143      	str	r3, [r0, #20]
    3e0c:	6183      	str	r3, [r0, #24]
    3e0e:	2208      	movs	r2, #8
    3e10:	305c      	adds	r0, #92	; 0x5c
    3e12:	f7ff fa7d 	bl	3310 <memset>
    3e16:	4b05      	ldr	r3, [pc, #20]	; (3e2c <std+0x38>)
    3e18:	6263      	str	r3, [r4, #36]	; 0x24
    3e1a:	4b05      	ldr	r3, [pc, #20]	; (3e30 <std+0x3c>)
    3e1c:	6224      	str	r4, [r4, #32]
    3e1e:	62a3      	str	r3, [r4, #40]	; 0x28
    3e20:	4b04      	ldr	r3, [pc, #16]	; (3e34 <std+0x40>)
    3e22:	62e3      	str	r3, [r4, #44]	; 0x2c
    3e24:	4b04      	ldr	r3, [pc, #16]	; (3e38 <std+0x44>)
    3e26:	6323      	str	r3, [r4, #48]	; 0x30
    3e28:	bd10      	pop	{r4, pc}
    3e2a:	46c0      	nop			; (mov r8, r8)
    3e2c:	000047e5 	.word	0x000047e5
    3e30:	00004811 	.word	0x00004811
    3e34:	00004849 	.word	0x00004849
    3e38:	00004875 	.word	0x00004875

00003e3c <_cleanup_r>:
    3e3c:	b510      	push	{r4, lr}
    3e3e:	4902      	ldr	r1, [pc, #8]	; (3e48 <_cleanup_r+0xc>)
    3e40:	f000 fa77 	bl	4332 <_fwalk_reent>
    3e44:	bd10      	pop	{r4, pc}
    3e46:	46c0      	nop			; (mov r8, r8)
    3e48:	00003d49 	.word	0x00003d49

00003e4c <__fp_lock>:
    3e4c:	6e43      	ldr	r3, [r0, #100]	; 0x64
    3e4e:	b510      	push	{r4, lr}
    3e50:	07db      	lsls	r3, r3, #31
    3e52:	d405      	bmi.n	3e60 <__fp_lock+0x14>
    3e54:	8983      	ldrh	r3, [r0, #12]
    3e56:	059b      	lsls	r3, r3, #22
    3e58:	d402      	bmi.n	3e60 <__fp_lock+0x14>
    3e5a:	6d80      	ldr	r0, [r0, #88]	; 0x58
    3e5c:	f000 fa8e 	bl	437c <__retarget_lock_acquire_recursive>
    3e60:	2000      	movs	r0, #0
    3e62:	bd10      	pop	{r4, pc}

00003e64 <__fp_unlock>:
    3e64:	6e43      	ldr	r3, [r0, #100]	; 0x64
    3e66:	b510      	push	{r4, lr}
    3e68:	07db      	lsls	r3, r3, #31
    3e6a:	d405      	bmi.n	3e78 <__fp_unlock+0x14>
    3e6c:	8983      	ldrh	r3, [r0, #12]
    3e6e:	059b      	lsls	r3, r3, #22
    3e70:	d402      	bmi.n	3e78 <__fp_unlock+0x14>
    3e72:	6d80      	ldr	r0, [r0, #88]	; 0x58
    3e74:	f000 fa88 	bl	4388 <__retarget_lock_release_recursive>
    3e78:	2000      	movs	r0, #0
    3e7a:	bd10      	pop	{r4, pc}

00003e7c <__sfmoreglue>:
    3e7c:	b570      	push	{r4, r5, r6, lr}
    3e7e:	2568      	movs	r5, #104	; 0x68
    3e80:	1e4a      	subs	r2, r1, #1
    3e82:	4355      	muls	r5, r2
    3e84:	000e      	movs	r6, r1
    3e86:	0029      	movs	r1, r5
    3e88:	3174      	adds	r1, #116	; 0x74
    3e8a:	f000 fb5d 	bl	4548 <_malloc_r>
    3e8e:	1e04      	subs	r4, r0, #0
    3e90:	d008      	beq.n	3ea4 <__sfmoreglue+0x28>
    3e92:	2100      	movs	r1, #0
    3e94:	002a      	movs	r2, r5
    3e96:	6001      	str	r1, [r0, #0]
    3e98:	6046      	str	r6, [r0, #4]
    3e9a:	300c      	adds	r0, #12
    3e9c:	60a0      	str	r0, [r4, #8]
    3e9e:	3268      	adds	r2, #104	; 0x68
    3ea0:	f7ff fa36 	bl	3310 <memset>
    3ea4:	0020      	movs	r0, r4
    3ea6:	bd70      	pop	{r4, r5, r6, pc}

00003ea8 <_cleanup>:
    3ea8:	b510      	push	{r4, lr}
    3eaa:	4b02      	ldr	r3, [pc, #8]	; (3eb4 <_cleanup+0xc>)
    3eac:	6818      	ldr	r0, [r3, #0]
    3eae:	f7ff ffc5 	bl	3e3c <_cleanup_r>
    3eb2:	bd10      	pop	{r4, pc}
    3eb4:	00005fac 	.word	0x00005fac

00003eb8 <__sfp_lock_acquire>:
    3eb8:	b510      	push	{r4, lr}
    3eba:	4802      	ldr	r0, [pc, #8]	; (3ec4 <__sfp_lock_acquire+0xc>)
    3ebc:	f000 fa5e 	bl	437c <__retarget_lock_acquire_recursive>
    3ec0:	bd10      	pop	{r4, pc}
    3ec2:	46c0      	nop			; (mov r8, r8)
    3ec4:	20000118 	.word	0x20000118

00003ec8 <__sfp_lock_release>:
    3ec8:	b510      	push	{r4, lr}
    3eca:	4802      	ldr	r0, [pc, #8]	; (3ed4 <__sfp_lock_release+0xc>)
    3ecc:	f000 fa5c 	bl	4388 <__retarget_lock_release_recursive>
    3ed0:	bd10      	pop	{r4, pc}
    3ed2:	46c0      	nop			; (mov r8, r8)
    3ed4:	20000118 	.word	0x20000118

00003ed8 <__sinit_lock_acquire>:
    3ed8:	b510      	push	{r4, lr}
    3eda:	4802      	ldr	r0, [pc, #8]	; (3ee4 <__sinit_lock_acquire+0xc>)
    3edc:	f000 fa4e 	bl	437c <__retarget_lock_acquire_recursive>
    3ee0:	bd10      	pop	{r4, pc}
    3ee2:	46c0      	nop			; (mov r8, r8)
    3ee4:	20000113 	.word	0x20000113

00003ee8 <__sinit_lock_release>:
    3ee8:	b510      	push	{r4, lr}
    3eea:	4802      	ldr	r0, [pc, #8]	; (3ef4 <__sinit_lock_release+0xc>)
    3eec:	f000 fa4c 	bl	4388 <__retarget_lock_release_recursive>
    3ef0:	bd10      	pop	{r4, pc}
    3ef2:	46c0      	nop			; (mov r8, r8)
    3ef4:	20000113 	.word	0x20000113

00003ef8 <__sinit>:
    3ef8:	b513      	push	{r0, r1, r4, lr}
    3efa:	0004      	movs	r4, r0
    3efc:	f7ff ffec 	bl	3ed8 <__sinit_lock_acquire>
    3f00:	69a3      	ldr	r3, [r4, #24]
    3f02:	2b00      	cmp	r3, #0
    3f04:	d002      	beq.n	3f0c <__sinit+0x14>
    3f06:	f7ff ffef 	bl	3ee8 <__sinit_lock_release>
    3f0a:	bd13      	pop	{r0, r1, r4, pc}
    3f0c:	64a3      	str	r3, [r4, #72]	; 0x48
    3f0e:	64e3      	str	r3, [r4, #76]	; 0x4c
    3f10:	6523      	str	r3, [r4, #80]	; 0x50
    3f12:	4b13      	ldr	r3, [pc, #76]	; (3f60 <__sinit+0x68>)
    3f14:	4a13      	ldr	r2, [pc, #76]	; (3f64 <__sinit+0x6c>)
    3f16:	681b      	ldr	r3, [r3, #0]
    3f18:	62a2      	str	r2, [r4, #40]	; 0x28
    3f1a:	9301      	str	r3, [sp, #4]
    3f1c:	42a3      	cmp	r3, r4
    3f1e:	d101      	bne.n	3f24 <__sinit+0x2c>
    3f20:	2301      	movs	r3, #1
    3f22:	61a3      	str	r3, [r4, #24]
    3f24:	0020      	movs	r0, r4
    3f26:	f000 f81f 	bl	3f68 <__sfp>
    3f2a:	6060      	str	r0, [r4, #4]
    3f2c:	0020      	movs	r0, r4
    3f2e:	f000 f81b 	bl	3f68 <__sfp>
    3f32:	60a0      	str	r0, [r4, #8]
    3f34:	0020      	movs	r0, r4
    3f36:	f000 f817 	bl	3f68 <__sfp>
    3f3a:	2200      	movs	r2, #0
    3f3c:	2104      	movs	r1, #4
    3f3e:	60e0      	str	r0, [r4, #12]
    3f40:	6860      	ldr	r0, [r4, #4]
    3f42:	f7ff ff57 	bl	3df4 <std>
    3f46:	2201      	movs	r2, #1
    3f48:	2109      	movs	r1, #9
    3f4a:	68a0      	ldr	r0, [r4, #8]
    3f4c:	f7ff ff52 	bl	3df4 <std>
    3f50:	2202      	movs	r2, #2
    3f52:	2112      	movs	r1, #18
    3f54:	68e0      	ldr	r0, [r4, #12]
    3f56:	f7ff ff4d 	bl	3df4 <std>
    3f5a:	2301      	movs	r3, #1
    3f5c:	61a3      	str	r3, [r4, #24]
    3f5e:	e7d2      	b.n	3f06 <__sinit+0xe>
    3f60:	00005fac 	.word	0x00005fac
    3f64:	00003e3d 	.word	0x00003e3d

00003f68 <__sfp>:
    3f68:	b5f8      	push	{r3, r4, r5, r6, r7, lr}
    3f6a:	0007      	movs	r7, r0
    3f6c:	f7ff ffa4 	bl	3eb8 <__sfp_lock_acquire>
    3f70:	4b1f      	ldr	r3, [pc, #124]	; (3ff0 <__sfp+0x88>)
    3f72:	681e      	ldr	r6, [r3, #0]
    3f74:	69b3      	ldr	r3, [r6, #24]
    3f76:	2b00      	cmp	r3, #0
    3f78:	d102      	bne.n	3f80 <__sfp+0x18>
    3f7a:	0030      	movs	r0, r6
    3f7c:	f7ff ffbc 	bl	3ef8 <__sinit>
    3f80:	3648      	adds	r6, #72	; 0x48
    3f82:	68b4      	ldr	r4, [r6, #8]
    3f84:	6873      	ldr	r3, [r6, #4]
    3f86:	3b01      	subs	r3, #1
    3f88:	d504      	bpl.n	3f94 <__sfp+0x2c>
    3f8a:	6833      	ldr	r3, [r6, #0]
    3f8c:	2b00      	cmp	r3, #0
    3f8e:	d022      	beq.n	3fd6 <__sfp+0x6e>
    3f90:	6836      	ldr	r6, [r6, #0]
    3f92:	e7f6      	b.n	3f82 <__sfp+0x1a>
    3f94:	220c      	movs	r2, #12
    3f96:	5ea5      	ldrsh	r5, [r4, r2]
    3f98:	2d00      	cmp	r5, #0
    3f9a:	d11a      	bne.n	3fd2 <__sfp+0x6a>
    3f9c:	0020      	movs	r0, r4
    3f9e:	4b15      	ldr	r3, [pc, #84]	; (3ff4 <__sfp+0x8c>)
    3fa0:	3058      	adds	r0, #88	; 0x58
    3fa2:	60e3      	str	r3, [r4, #12]
    3fa4:	6665      	str	r5, [r4, #100]	; 0x64
    3fa6:	f000 f9e5 	bl	4374 <__retarget_lock_init_recursive>
    3faa:	f7ff ff8d 	bl	3ec8 <__sfp_lock_release>
    3fae:	0020      	movs	r0, r4
    3fb0:	2208      	movs	r2, #8
    3fb2:	0029      	movs	r1, r5
    3fb4:	6025      	str	r5, [r4, #0]
    3fb6:	60a5      	str	r5, [r4, #8]
    3fb8:	6065      	str	r5, [r4, #4]
    3fba:	6125      	str	r5, [r4, #16]
    3fbc:	6165      	str	r5, [r4, #20]
    3fbe:	61a5      	str	r5, [r4, #24]
    3fc0:	305c      	adds	r0, #92	; 0x5c
    3fc2:	f7ff f9a5 	bl	3310 <memset>
    3fc6:	6365      	str	r5, [r4, #52]	; 0x34
    3fc8:	63a5      	str	r5, [r4, #56]	; 0x38
    3fca:	64a5      	str	r5, [r4, #72]	; 0x48
    3fcc:	64e5      	str	r5, [r4, #76]	; 0x4c
    3fce:	0020      	movs	r0, r4
    3fd0:	bdf8      	pop	{r3, r4, r5, r6, r7, pc}
    3fd2:	3468      	adds	r4, #104	; 0x68
    3fd4:	e7d7      	b.n	3f86 <__sfp+0x1e>
    3fd6:	2104      	movs	r1, #4
    3fd8:	0038      	movs	r0, r7
    3fda:	f7ff ff4f 	bl	3e7c <__sfmoreglue>
    3fde:	1e04      	subs	r4, r0, #0
    3fe0:	6030      	str	r0, [r6, #0]
    3fe2:	d1d5      	bne.n	3f90 <__sfp+0x28>
    3fe4:	f7ff ff70 	bl	3ec8 <__sfp_lock_release>
    3fe8:	230c      	movs	r3, #12
    3fea:	603b      	str	r3, [r7, #0]
    3fec:	e7ef      	b.n	3fce <__sfp+0x66>
    3fee:	46c0      	nop			; (mov r8, r8)
    3ff0:	00005fac 	.word	0x00005fac
    3ff4:	ffff0001 	.word	0xffff0001

00003ff8 <__fp_lock_all>:
    3ff8:	b510      	push	{r4, lr}
    3ffa:	f7ff ff5d 	bl	3eb8 <__sfp_lock_acquire>
    3ffe:	4b03      	ldr	r3, [pc, #12]	; (400c <__fp_lock_all+0x14>)
    4000:	4903      	ldr	r1, [pc, #12]	; (4010 <__fp_lock_all+0x18>)
    4002:	6818      	ldr	r0, [r3, #0]
    4004:	f000 f97a 	bl	42fc <_fwalk>
    4008:	bd10      	pop	{r4, pc}
    400a:	46c0      	nop			; (mov r8, r8)
    400c:	20000010 	.word	0x20000010
    4010:	00003e4d 	.word	0x00003e4d

00004014 <__fp_unlock_all>:
    4014:	b510      	push	{r4, lr}
    4016:	4b04      	ldr	r3, [pc, #16]	; (4028 <__fp_unlock_all+0x14>)
    4018:	4904      	ldr	r1, [pc, #16]	; (402c <__fp_unlock_all+0x18>)
    401a:	6818      	ldr	r0, [r3, #0]
    401c:	f000 f96e 	bl	42fc <_fwalk>
    4020:	f7ff ff52 	bl	3ec8 <__sfp_lock_release>
    4024:	bd10      	pop	{r4, pc}
    4026:	46c0      	nop			; (mov r8, r8)
    4028:	20000010 	.word	0x20000010
    402c:	00003e65 	.word	0x00003e65

00004030 <__sfvwrite_r>:
    4030:	b5f0      	push	{r4, r5, r6, r7, lr}
    4032:	6893      	ldr	r3, [r2, #8]
    4034:	b087      	sub	sp, #28
    4036:	000c      	movs	r4, r1
    4038:	9002      	str	r0, [sp, #8]
    403a:	9203      	str	r2, [sp, #12]
    403c:	9300      	str	r3, [sp, #0]
    403e:	2b00      	cmp	r3, #0
    4040:	d102      	bne.n	4048 <__sfvwrite_r+0x18>
    4042:	2000      	movs	r0, #0
    4044:	b007      	add	sp, #28
    4046:	bdf0      	pop	{r4, r5, r6, r7, pc}
    4048:	898b      	ldrh	r3, [r1, #12]
    404a:	071b      	lsls	r3, r3, #28
    404c:	d559      	bpl.n	4102 <__sfvwrite_r+0xd2>
    404e:	690b      	ldr	r3, [r1, #16]
    4050:	2b00      	cmp	r3, #0
    4052:	d056      	beq.n	4102 <__sfvwrite_r+0xd2>
    4054:	9b03      	ldr	r3, [sp, #12]
    4056:	2202      	movs	r2, #2
    4058:	681b      	ldr	r3, [r3, #0]
    405a:	9301      	str	r3, [sp, #4]
    405c:	89a3      	ldrh	r3, [r4, #12]
    405e:	001f      	movs	r7, r3
    4060:	4017      	ands	r7, r2
    4062:	4213      	tst	r3, r2
    4064:	d173      	bne.n	414e <__sfvwrite_r+0x11e>
    4066:	2201      	movs	r2, #1
    4068:	0019      	movs	r1, r3
    406a:	4011      	ands	r1, r2
    406c:	4213      	tst	r3, r2
    406e:	d100      	bne.n	4072 <__sfvwrite_r+0x42>
    4070:	e0a8      	b.n	41c4 <__sfvwrite_r+0x194>
    4072:	0038      	movs	r0, r7
    4074:	003e      	movs	r6, r7
    4076:	9700      	str	r7, [sp, #0]
    4078:	9205      	str	r2, [sp, #20]
    407a:	9b00      	ldr	r3, [sp, #0]
    407c:	2b00      	cmp	r3, #0
    407e:	d100      	bne.n	4082 <__sfvwrite_r+0x52>
    4080:	e112      	b.n	42a8 <__sfvwrite_r+0x278>
    4082:	2800      	cmp	r0, #0
    4084:	d10a      	bne.n	409c <__sfvwrite_r+0x6c>
    4086:	001a      	movs	r2, r3
    4088:	210a      	movs	r1, #10
    408a:	0030      	movs	r0, r6
    408c:	f000 f9ea 	bl	4464 <memchr>
    4090:	9b00      	ldr	r3, [sp, #0]
    4092:	1c5f      	adds	r7, r3, #1
    4094:	2800      	cmp	r0, #0
    4096:	d001      	beq.n	409c <__sfvwrite_r+0x6c>
    4098:	3001      	adds	r0, #1
    409a:	1b87      	subs	r7, r0, r6
    409c:	9b00      	ldr	r3, [sp, #0]
    409e:	9704      	str	r7, [sp, #16]
    40a0:	429f      	cmp	r7, r3
    40a2:	d900      	bls.n	40a6 <__sfvwrite_r+0x76>
    40a4:	9304      	str	r3, [sp, #16]
    40a6:	6820      	ldr	r0, [r4, #0]
    40a8:	6922      	ldr	r2, [r4, #16]
    40aa:	6963      	ldr	r3, [r4, #20]
    40ac:	4290      	cmp	r0, r2
    40ae:	d800      	bhi.n	40b2 <__sfvwrite_r+0x82>
    40b0:	e103      	b.n	42ba <__sfvwrite_r+0x28a>
    40b2:	68a2      	ldr	r2, [r4, #8]
    40b4:	189d      	adds	r5, r3, r2
    40b6:	9a04      	ldr	r2, [sp, #16]
    40b8:	42aa      	cmp	r2, r5
    40ba:	dc00      	bgt.n	40be <__sfvwrite_r+0x8e>
    40bc:	e0fd      	b.n	42ba <__sfvwrite_r+0x28a>
    40be:	0031      	movs	r1, r6
    40c0:	002a      	movs	r2, r5
    40c2:	f000 f9e3 	bl	448c <memmove>
    40c6:	6823      	ldr	r3, [r4, #0]
    40c8:	0021      	movs	r1, r4
    40ca:	195b      	adds	r3, r3, r5
    40cc:	9802      	ldr	r0, [sp, #8]
    40ce:	6023      	str	r3, [r4, #0]
    40d0:	f7ff fe3a 	bl	3d48 <_fflush_r>
    40d4:	2800      	cmp	r0, #0
    40d6:	d170      	bne.n	41ba <__sfvwrite_r+0x18a>
    40d8:	9805      	ldr	r0, [sp, #20]
    40da:	1b7f      	subs	r7, r7, r5
    40dc:	d105      	bne.n	40ea <__sfvwrite_r+0xba>
    40de:	0021      	movs	r1, r4
    40e0:	9802      	ldr	r0, [sp, #8]
    40e2:	f7ff fe31 	bl	3d48 <_fflush_r>
    40e6:	2800      	cmp	r0, #0
    40e8:	d167      	bne.n	41ba <__sfvwrite_r+0x18a>
    40ea:	9b00      	ldr	r3, [sp, #0]
    40ec:	1976      	adds	r6, r6, r5
    40ee:	1b5b      	subs	r3, r3, r5
    40f0:	9300      	str	r3, [sp, #0]
    40f2:	9b03      	ldr	r3, [sp, #12]
    40f4:	689b      	ldr	r3, [r3, #8]
    40f6:	1b5d      	subs	r5, r3, r5
    40f8:	9304      	str	r3, [sp, #16]
    40fa:	9b03      	ldr	r3, [sp, #12]
    40fc:	609d      	str	r5, [r3, #8]
    40fe:	d1bc      	bne.n	407a <__sfvwrite_r+0x4a>
    4100:	e79f      	b.n	4042 <__sfvwrite_r+0x12>
    4102:	0021      	movs	r1, r4
    4104:	9802      	ldr	r0, [sp, #8]
    4106:	f7ff fd13 	bl	3b30 <__swsetup_r>
    410a:	2800      	cmp	r0, #0
    410c:	d0a2      	beq.n	4054 <__sfvwrite_r+0x24>
    410e:	2001      	movs	r0, #1
    4110:	4240      	negs	r0, r0
    4112:	e797      	b.n	4044 <__sfvwrite_r+0x14>
    4114:	9b01      	ldr	r3, [sp, #4]
    4116:	681e      	ldr	r6, [r3, #0]
    4118:	685d      	ldr	r5, [r3, #4]
    411a:	3308      	adds	r3, #8
    411c:	9301      	str	r3, [sp, #4]
    411e:	2d00      	cmp	r5, #0
    4120:	d0f8      	beq.n	4114 <__sfvwrite_r+0xe4>
    4122:	4a72      	ldr	r2, [pc, #456]	; (42ec <__sfvwrite_r+0x2bc>)
    4124:	002b      	movs	r3, r5
    4126:	4295      	cmp	r5, r2
    4128:	d900      	bls.n	412c <__sfvwrite_r+0xfc>
    412a:	0013      	movs	r3, r2
    412c:	0032      	movs	r2, r6
    412e:	6a21      	ldr	r1, [r4, #32]
    4130:	9802      	ldr	r0, [sp, #8]
    4132:	6aa7      	ldr	r7, [r4, #40]	; 0x28
    4134:	47b8      	blx	r7
    4136:	2800      	cmp	r0, #0
    4138:	dd3f      	ble.n	41ba <__sfvwrite_r+0x18a>
    413a:	9b03      	ldr	r3, [sp, #12]
    413c:	1836      	adds	r6, r6, r0
    413e:	689b      	ldr	r3, [r3, #8]
    4140:	1a2d      	subs	r5, r5, r0
    4142:	9300      	str	r3, [sp, #0]
    4144:	1a18      	subs	r0, r3, r0
    4146:	9b03      	ldr	r3, [sp, #12]
    4148:	6098      	str	r0, [r3, #8]
    414a:	d1e8      	bne.n	411e <__sfvwrite_r+0xee>
    414c:	e779      	b.n	4042 <__sfvwrite_r+0x12>
    414e:	2600      	movs	r6, #0
    4150:	0035      	movs	r5, r6
    4152:	e7e4      	b.n	411e <__sfvwrite_r+0xee>
    4154:	9b01      	ldr	r3, [sp, #4]
    4156:	681b      	ldr	r3, [r3, #0]
    4158:	9304      	str	r3, [sp, #16]
    415a:	9b01      	ldr	r3, [sp, #4]
    415c:	685b      	ldr	r3, [r3, #4]
    415e:	9300      	str	r3, [sp, #0]
    4160:	9b01      	ldr	r3, [sp, #4]
    4162:	3308      	adds	r3, #8
    4164:	9301      	str	r3, [sp, #4]
    4166:	9b00      	ldr	r3, [sp, #0]
    4168:	2b00      	cmp	r3, #0
    416a:	d0f3      	beq.n	4154 <__sfvwrite_r+0x124>
    416c:	2380      	movs	r3, #128	; 0x80
    416e:	89a2      	ldrh	r2, [r4, #12]
    4170:	009b      	lsls	r3, r3, #2
    4172:	68a5      	ldr	r5, [r4, #8]
    4174:	6820      	ldr	r0, [r4, #0]
    4176:	421a      	tst	r2, r3
    4178:	d064      	beq.n	4244 <__sfvwrite_r+0x214>
    417a:	9b00      	ldr	r3, [sp, #0]
    417c:	429d      	cmp	r5, r3
    417e:	d835      	bhi.n	41ec <__sfvwrite_r+0x1bc>
    4180:	2390      	movs	r3, #144	; 0x90
    4182:	00db      	lsls	r3, r3, #3
    4184:	421a      	tst	r2, r3
    4186:	d031      	beq.n	41ec <__sfvwrite_r+0x1bc>
    4188:	2603      	movs	r6, #3
    418a:	6963      	ldr	r3, [r4, #20]
    418c:	6921      	ldr	r1, [r4, #16]
    418e:	435e      	muls	r6, r3
    4190:	1a47      	subs	r7, r0, r1
    4192:	0ff0      	lsrs	r0, r6, #31
    4194:	1986      	adds	r6, r0, r6
    4196:	9800      	ldr	r0, [sp, #0]
    4198:	1c7b      	adds	r3, r7, #1
    419a:	181b      	adds	r3, r3, r0
    419c:	1076      	asrs	r6, r6, #1
    419e:	42b3      	cmp	r3, r6
    41a0:	d900      	bls.n	41a4 <__sfvwrite_r+0x174>
    41a2:	001e      	movs	r6, r3
    41a4:	0553      	lsls	r3, r2, #21
    41a6:	d53e      	bpl.n	4226 <__sfvwrite_r+0x1f6>
    41a8:	0031      	movs	r1, r6
    41aa:	9802      	ldr	r0, [sp, #8]
    41ac:	f000 f9cc 	bl	4548 <_malloc_r>
    41b0:	1e05      	subs	r5, r0, #0
    41b2:	d10a      	bne.n	41ca <__sfvwrite_r+0x19a>
    41b4:	230c      	movs	r3, #12
    41b6:	9a02      	ldr	r2, [sp, #8]
    41b8:	6013      	str	r3, [r2, #0]
    41ba:	2340      	movs	r3, #64	; 0x40
    41bc:	89a2      	ldrh	r2, [r4, #12]
    41be:	4313      	orrs	r3, r2
    41c0:	81a3      	strh	r3, [r4, #12]
    41c2:	e7a4      	b.n	410e <__sfvwrite_r+0xde>
    41c4:	9104      	str	r1, [sp, #16]
    41c6:	9100      	str	r1, [sp, #0]
    41c8:	e7cd      	b.n	4166 <__sfvwrite_r+0x136>
    41ca:	003a      	movs	r2, r7
    41cc:	6921      	ldr	r1, [r4, #16]
    41ce:	f000 f954 	bl	447a <memcpy>
    41d2:	89a3      	ldrh	r3, [r4, #12]
    41d4:	4a46      	ldr	r2, [pc, #280]	; (42f0 <__sfvwrite_r+0x2c0>)
    41d6:	401a      	ands	r2, r3
    41d8:	2380      	movs	r3, #128	; 0x80
    41da:	4313      	orrs	r3, r2
    41dc:	81a3      	strh	r3, [r4, #12]
    41de:	6125      	str	r5, [r4, #16]
    41e0:	19ed      	adds	r5, r5, r7
    41e2:	6025      	str	r5, [r4, #0]
    41e4:	6166      	str	r6, [r4, #20]
    41e6:	9d00      	ldr	r5, [sp, #0]
    41e8:	1bf6      	subs	r6, r6, r7
    41ea:	60a6      	str	r6, [r4, #8]
    41ec:	9f00      	ldr	r7, [sp, #0]
    41ee:	42bd      	cmp	r5, r7
    41f0:	d900      	bls.n	41f4 <__sfvwrite_r+0x1c4>
    41f2:	003d      	movs	r5, r7
    41f4:	002a      	movs	r2, r5
    41f6:	9904      	ldr	r1, [sp, #16]
    41f8:	6820      	ldr	r0, [r4, #0]
    41fa:	f000 f947 	bl	448c <memmove>
    41fe:	68a3      	ldr	r3, [r4, #8]
    4200:	1b5b      	subs	r3, r3, r5
    4202:	60a3      	str	r3, [r4, #8]
    4204:	6823      	ldr	r3, [r4, #0]
    4206:	195d      	adds	r5, r3, r5
    4208:	6025      	str	r5, [r4, #0]
    420a:	9b04      	ldr	r3, [sp, #16]
    420c:	19db      	adds	r3, r3, r7
    420e:	9304      	str	r3, [sp, #16]
    4210:	9b00      	ldr	r3, [sp, #0]
    4212:	1bdb      	subs	r3, r3, r7
    4214:	9300      	str	r3, [sp, #0]
    4216:	9b03      	ldr	r3, [sp, #12]
    4218:	689b      	ldr	r3, [r3, #8]
    421a:	1bdf      	subs	r7, r3, r7
    421c:	9305      	str	r3, [sp, #20]
    421e:	9b03      	ldr	r3, [sp, #12]
    4220:	609f      	str	r7, [r3, #8]
    4222:	d1a0      	bne.n	4166 <__sfvwrite_r+0x136>
    4224:	e70d      	b.n	4042 <__sfvwrite_r+0x12>
    4226:	0032      	movs	r2, r6
    4228:	9802      	ldr	r0, [sp, #8]
    422a:	f000 f9eb 	bl	4604 <_realloc_r>
    422e:	1e05      	subs	r5, r0, #0
    4230:	d1d5      	bne.n	41de <__sfvwrite_r+0x1ae>
    4232:	6921      	ldr	r1, [r4, #16]
    4234:	9802      	ldr	r0, [sp, #8]
    4236:	f000 f93d 	bl	44b4 <_free_r>
    423a:	2280      	movs	r2, #128	; 0x80
    423c:	89a3      	ldrh	r3, [r4, #12]
    423e:	4393      	bics	r3, r2
    4240:	81a3      	strh	r3, [r4, #12]
    4242:	e7b7      	b.n	41b4 <__sfvwrite_r+0x184>
    4244:	6923      	ldr	r3, [r4, #16]
    4246:	4283      	cmp	r3, r0
    4248:	d303      	bcc.n	4252 <__sfvwrite_r+0x222>
    424a:	6967      	ldr	r7, [r4, #20]
    424c:	9b00      	ldr	r3, [sp, #0]
    424e:	429f      	cmp	r7, r3
    4250:	d917      	bls.n	4282 <__sfvwrite_r+0x252>
    4252:	9b00      	ldr	r3, [sp, #0]
    4254:	429d      	cmp	r5, r3
    4256:	d900      	bls.n	425a <__sfvwrite_r+0x22a>
    4258:	001d      	movs	r5, r3
    425a:	002a      	movs	r2, r5
    425c:	9904      	ldr	r1, [sp, #16]
    425e:	f000 f915 	bl	448c <memmove>
    4262:	68a3      	ldr	r3, [r4, #8]
    4264:	6822      	ldr	r2, [r4, #0]
    4266:	1b5b      	subs	r3, r3, r5
    4268:	1952      	adds	r2, r2, r5
    426a:	002f      	movs	r7, r5
    426c:	60a3      	str	r3, [r4, #8]
    426e:	6022      	str	r2, [r4, #0]
    4270:	2b00      	cmp	r3, #0
    4272:	d1ca      	bne.n	420a <__sfvwrite_r+0x1da>
    4274:	0021      	movs	r1, r4
    4276:	9802      	ldr	r0, [sp, #8]
    4278:	f7ff fd66 	bl	3d48 <_fflush_r>
    427c:	2800      	cmp	r0, #0
    427e:	d0c4      	beq.n	420a <__sfvwrite_r+0x1da>
    4280:	e79b      	b.n	41ba <__sfvwrite_r+0x18a>
    4282:	9a00      	ldr	r2, [sp, #0]
    4284:	4b1b      	ldr	r3, [pc, #108]	; (42f4 <__sfvwrite_r+0x2c4>)
    4286:	0010      	movs	r0, r2
    4288:	429a      	cmp	r2, r3
    428a:	d900      	bls.n	428e <__sfvwrite_r+0x25e>
    428c:	481a      	ldr	r0, [pc, #104]	; (42f8 <__sfvwrite_r+0x2c8>)
    428e:	0039      	movs	r1, r7
    4290:	f000 fc88 	bl	4ba4 <__divsi3>
    4294:	003b      	movs	r3, r7
    4296:	9a04      	ldr	r2, [sp, #16]
    4298:	4343      	muls	r3, r0
    429a:	6a21      	ldr	r1, [r4, #32]
    429c:	9802      	ldr	r0, [sp, #8]
    429e:	6aa5      	ldr	r5, [r4, #40]	; 0x28
    42a0:	47a8      	blx	r5
    42a2:	1e07      	subs	r7, r0, #0
    42a4:	dcb1      	bgt.n	420a <__sfvwrite_r+0x1da>
    42a6:	e788      	b.n	41ba <__sfvwrite_r+0x18a>
    42a8:	9b01      	ldr	r3, [sp, #4]
    42aa:	2000      	movs	r0, #0
    42ac:	681e      	ldr	r6, [r3, #0]
    42ae:	685b      	ldr	r3, [r3, #4]
    42b0:	9300      	str	r3, [sp, #0]
    42b2:	9b01      	ldr	r3, [sp, #4]
    42b4:	3308      	adds	r3, #8
    42b6:	9301      	str	r3, [sp, #4]
    42b8:	e6df      	b.n	407a <__sfvwrite_r+0x4a>
    42ba:	9a04      	ldr	r2, [sp, #16]
    42bc:	4293      	cmp	r3, r2
    42be:	dc08      	bgt.n	42d2 <__sfvwrite_r+0x2a2>
    42c0:	6aa5      	ldr	r5, [r4, #40]	; 0x28
    42c2:	0032      	movs	r2, r6
    42c4:	6a21      	ldr	r1, [r4, #32]
    42c6:	9802      	ldr	r0, [sp, #8]
    42c8:	47a8      	blx	r5
    42ca:	1e05      	subs	r5, r0, #0
    42cc:	dd00      	ble.n	42d0 <__sfvwrite_r+0x2a0>
    42ce:	e703      	b.n	40d8 <__sfvwrite_r+0xa8>
    42d0:	e773      	b.n	41ba <__sfvwrite_r+0x18a>
    42d2:	9a04      	ldr	r2, [sp, #16]
    42d4:	0031      	movs	r1, r6
    42d6:	f000 f8d9 	bl	448c <memmove>
    42da:	9a04      	ldr	r2, [sp, #16]
    42dc:	68a3      	ldr	r3, [r4, #8]
    42de:	0015      	movs	r5, r2
    42e0:	1a9b      	subs	r3, r3, r2
    42e2:	60a3      	str	r3, [r4, #8]
    42e4:	6823      	ldr	r3, [r4, #0]
    42e6:	189b      	adds	r3, r3, r2
    42e8:	6023      	str	r3, [r4, #0]
    42ea:	e6f5      	b.n	40d8 <__sfvwrite_r+0xa8>
    42ec:	7ffffc00 	.word	0x7ffffc00
    42f0:	fffffb7f 	.word	0xfffffb7f
    42f4:	7ffffffe 	.word	0x7ffffffe
    42f8:	7fffffff 	.word	0x7fffffff

000042fc <_fwalk>:
    42fc:	b5f7      	push	{r0, r1, r2, r4, r5, r6, r7, lr}
    42fe:	3048      	adds	r0, #72	; 0x48
    4300:	0004      	movs	r4, r0
    4302:	2600      	movs	r6, #0
    4304:	9101      	str	r1, [sp, #4]
    4306:	68a5      	ldr	r5, [r4, #8]
    4308:	6867      	ldr	r7, [r4, #4]
    430a:	3f01      	subs	r7, #1
    430c:	d504      	bpl.n	4318 <_fwalk+0x1c>
    430e:	6824      	ldr	r4, [r4, #0]
    4310:	2c00      	cmp	r4, #0
    4312:	d1f8      	bne.n	4306 <_fwalk+0xa>
    4314:	0030      	movs	r0, r6
    4316:	bdfe      	pop	{r1, r2, r3, r4, r5, r6, r7, pc}
    4318:	89ab      	ldrh	r3, [r5, #12]
    431a:	2b01      	cmp	r3, #1
    431c:	d907      	bls.n	432e <_fwalk+0x32>
    431e:	220e      	movs	r2, #14
    4320:	5eab      	ldrsh	r3, [r5, r2]
    4322:	3301      	adds	r3, #1
    4324:	d003      	beq.n	432e <_fwalk+0x32>
    4326:	0028      	movs	r0, r5
    4328:	9b01      	ldr	r3, [sp, #4]
    432a:	4798      	blx	r3
    432c:	4306      	orrs	r6, r0
    432e:	3568      	adds	r5, #104	; 0x68
    4330:	e7eb      	b.n	430a <_fwalk+0xe>

00004332 <_fwalk_reent>:
    4332:	b5f7      	push	{r0, r1, r2, r4, r5, r6, r7, lr}
    4334:	0004      	movs	r4, r0
    4336:	0006      	movs	r6, r0
    4338:	2700      	movs	r7, #0
    433a:	9101      	str	r1, [sp, #4]
    433c:	3448      	adds	r4, #72	; 0x48
    433e:	6863      	ldr	r3, [r4, #4]
    4340:	68a5      	ldr	r5, [r4, #8]
    4342:	9300      	str	r3, [sp, #0]
    4344:	9b00      	ldr	r3, [sp, #0]
    4346:	3b01      	subs	r3, #1
    4348:	9300      	str	r3, [sp, #0]
    434a:	d504      	bpl.n	4356 <_fwalk_reent+0x24>
    434c:	6824      	ldr	r4, [r4, #0]
    434e:	2c00      	cmp	r4, #0
    4350:	d1f5      	bne.n	433e <_fwalk_reent+0xc>
    4352:	0038      	movs	r0, r7
    4354:	bdfe      	pop	{r1, r2, r3, r4, r5, r6, r7, pc}
    4356:	89ab      	ldrh	r3, [r5, #12]
    4358:	2b01      	cmp	r3, #1
    435a:	d908      	bls.n	436e <_fwalk_reent+0x3c>
    435c:	220e      	movs	r2, #14
    435e:	5eab      	ldrsh	r3, [r5, r2]
    4360:	3301      	adds	r3, #1
    4362:	d004      	beq.n	436e <_fwalk_reent+0x3c>
    4364:	0029      	movs	r1, r5
    4366:	0030      	movs	r0, r6
    4368:	9b01      	ldr	r3, [sp, #4]
    436a:	4798      	blx	r3
    436c:	4307      	orrs	r7, r0
    436e:	3568      	adds	r5, #104	; 0x68
    4370:	e7e8      	b.n	4344 <_fwalk_reent+0x12>

00004372 <__retarget_lock_init>:
    4372:	4770      	bx	lr

00004374 <__retarget_lock_init_recursive>:
    4374:	4770      	bx	lr

00004376 <__retarget_lock_close>:
    4376:	4770      	bx	lr

00004378 <__retarget_lock_close_recursive>:
    4378:	4770      	bx	lr

0000437a <__retarget_lock_acquire>:
    437a:	4770      	bx	lr

0000437c <__retarget_lock_acquire_recursive>:
    437c:	4770      	bx	lr

0000437e <__retarget_lock_try_acquire>:
    437e:	2001      	movs	r0, #1
    4380:	4770      	bx	lr

00004382 <__retarget_lock_try_acquire_recursive>:
    4382:	2001      	movs	r0, #1
    4384:	4770      	bx	lr

00004386 <__retarget_lock_release>:
    4386:	4770      	bx	lr

00004388 <__retarget_lock_release_recursive>:
    4388:	4770      	bx	lr
	...

0000438c <__swhatbuf_r>:
    438c:	b570      	push	{r4, r5, r6, lr}
    438e:	000e      	movs	r6, r1
    4390:	001d      	movs	r5, r3
    4392:	230e      	movs	r3, #14
    4394:	5ec9      	ldrsh	r1, [r1, r3]
    4396:	0014      	movs	r4, r2
    4398:	b096      	sub	sp, #88	; 0x58
    439a:	2900      	cmp	r1, #0
    439c:	da07      	bge.n	43ae <__swhatbuf_r+0x22>
    439e:	2300      	movs	r3, #0
    43a0:	602b      	str	r3, [r5, #0]
    43a2:	89b3      	ldrh	r3, [r6, #12]
    43a4:	061b      	lsls	r3, r3, #24
    43a6:	d411      	bmi.n	43cc <__swhatbuf_r+0x40>
    43a8:	2380      	movs	r3, #128	; 0x80
    43aa:	00db      	lsls	r3, r3, #3
    43ac:	e00f      	b.n	43ce <__swhatbuf_r+0x42>
    43ae:	466a      	mov	r2, sp
    43b0:	f000 fa8c 	bl	48cc <_fstat_r>
    43b4:	2800      	cmp	r0, #0
    43b6:	dbf2      	blt.n	439e <__swhatbuf_r+0x12>
    43b8:	23f0      	movs	r3, #240	; 0xf0
    43ba:	9901      	ldr	r1, [sp, #4]
    43bc:	021b      	lsls	r3, r3, #8
    43be:	4019      	ands	r1, r3
    43c0:	4b05      	ldr	r3, [pc, #20]	; (43d8 <__swhatbuf_r+0x4c>)
    43c2:	18c9      	adds	r1, r1, r3
    43c4:	424b      	negs	r3, r1
    43c6:	4159      	adcs	r1, r3
    43c8:	6029      	str	r1, [r5, #0]
    43ca:	e7ed      	b.n	43a8 <__swhatbuf_r+0x1c>
    43cc:	2340      	movs	r3, #64	; 0x40
    43ce:	2000      	movs	r0, #0
    43d0:	6023      	str	r3, [r4, #0]
    43d2:	b016      	add	sp, #88	; 0x58
    43d4:	bd70      	pop	{r4, r5, r6, pc}
    43d6:	46c0      	nop			; (mov r8, r8)
    43d8:	ffffe000 	.word	0xffffe000

000043dc <__smakebuf_r>:
    43dc:	b5f7      	push	{r0, r1, r2, r4, r5, r6, r7, lr}
    43de:	2602      	movs	r6, #2
    43e0:	898b      	ldrh	r3, [r1, #12]
    43e2:	0005      	movs	r5, r0
    43e4:	000c      	movs	r4, r1
    43e6:	4233      	tst	r3, r6
    43e8:	d006      	beq.n	43f8 <__smakebuf_r+0x1c>
    43ea:	0023      	movs	r3, r4
    43ec:	3347      	adds	r3, #71	; 0x47
    43ee:	6023      	str	r3, [r4, #0]
    43f0:	6123      	str	r3, [r4, #16]
    43f2:	2301      	movs	r3, #1
    43f4:	6163      	str	r3, [r4, #20]
    43f6:	bdf7      	pop	{r0, r1, r2, r4, r5, r6, r7, pc}
    43f8:	466a      	mov	r2, sp
    43fa:	ab01      	add	r3, sp, #4
    43fc:	f7ff ffc6 	bl	438c <__swhatbuf_r>
    4400:	9900      	ldr	r1, [sp, #0]
    4402:	0007      	movs	r7, r0
    4404:	0028      	movs	r0, r5
    4406:	f000 f89f 	bl	4548 <_malloc_r>
    440a:	2800      	cmp	r0, #0
    440c:	d108      	bne.n	4420 <__smakebuf_r+0x44>
    440e:	220c      	movs	r2, #12
    4410:	5ea3      	ldrsh	r3, [r4, r2]
    4412:	059a      	lsls	r2, r3, #22
    4414:	d4ef      	bmi.n	43f6 <__smakebuf_r+0x1a>
    4416:	2203      	movs	r2, #3
    4418:	4393      	bics	r3, r2
    441a:	431e      	orrs	r6, r3
    441c:	81a6      	strh	r6, [r4, #12]
    441e:	e7e4      	b.n	43ea <__smakebuf_r+0xe>
    4420:	4b0f      	ldr	r3, [pc, #60]	; (4460 <__smakebuf_r+0x84>)
    4422:	62ab      	str	r3, [r5, #40]	; 0x28
    4424:	2380      	movs	r3, #128	; 0x80
    4426:	89a2      	ldrh	r2, [r4, #12]
    4428:	6020      	str	r0, [r4, #0]
    442a:	4313      	orrs	r3, r2
    442c:	81a3      	strh	r3, [r4, #12]
    442e:	9b00      	ldr	r3, [sp, #0]
    4430:	6120      	str	r0, [r4, #16]
    4432:	6163      	str	r3, [r4, #20]
    4434:	9b01      	ldr	r3, [sp, #4]
    4436:	2b00      	cmp	r3, #0
    4438:	d00d      	beq.n	4456 <__smakebuf_r+0x7a>
    443a:	0028      	movs	r0, r5
    443c:	230e      	movs	r3, #14
    443e:	5ee1      	ldrsh	r1, [r4, r3]
    4440:	f000 fa56 	bl	48f0 <_isatty_r>
    4444:	2800      	cmp	r0, #0
    4446:	d006      	beq.n	4456 <__smakebuf_r+0x7a>
    4448:	2203      	movs	r2, #3
    444a:	89a3      	ldrh	r3, [r4, #12]
    444c:	4393      	bics	r3, r2
    444e:	001a      	movs	r2, r3
    4450:	2301      	movs	r3, #1
    4452:	4313      	orrs	r3, r2
    4454:	81a3      	strh	r3, [r4, #12]
    4456:	89a0      	ldrh	r0, [r4, #12]
    4458:	4307      	orrs	r7, r0
    445a:	81a7      	strh	r7, [r4, #12]
    445c:	e7cb      	b.n	43f6 <__smakebuf_r+0x1a>
    445e:	46c0      	nop			; (mov r8, r8)
    4460:	00003e3d 	.word	0x00003e3d

00004464 <memchr>:
    4464:	b2c9      	uxtb	r1, r1
    4466:	1882      	adds	r2, r0, r2
    4468:	4290      	cmp	r0, r2
    446a:	d101      	bne.n	4470 <memchr+0xc>
    446c:	2000      	movs	r0, #0
    446e:	4770      	bx	lr
    4470:	7803      	ldrb	r3, [r0, #0]
    4472:	428b      	cmp	r3, r1
    4474:	d0fb      	beq.n	446e <memchr+0xa>
    4476:	3001      	adds	r0, #1
    4478:	e7f6      	b.n	4468 <memchr+0x4>

0000447a <memcpy>:
    447a:	2300      	movs	r3, #0
    447c:	b510      	push	{r4, lr}
    447e:	429a      	cmp	r2, r3
    4480:	d100      	bne.n	4484 <memcpy+0xa>
    4482:	bd10      	pop	{r4, pc}
    4484:	5ccc      	ldrb	r4, [r1, r3]
    4486:	54c4      	strb	r4, [r0, r3]
    4488:	3301      	adds	r3, #1
    448a:	e7f8      	b.n	447e <memcpy+0x4>

0000448c <memmove>:
    448c:	b510      	push	{r4, lr}
    448e:	4288      	cmp	r0, r1
    4490:	d902      	bls.n	4498 <memmove+0xc>
    4492:	188b      	adds	r3, r1, r2
    4494:	4298      	cmp	r0, r3
    4496:	d303      	bcc.n	44a0 <memmove+0x14>
    4498:	2300      	movs	r3, #0
    449a:	e007      	b.n	44ac <memmove+0x20>
    449c:	5c8b      	ldrb	r3, [r1, r2]
    449e:	5483      	strb	r3, [r0, r2]
    44a0:	3a01      	subs	r2, #1
    44a2:	d2fb      	bcs.n	449c <memmove+0x10>
    44a4:	bd10      	pop	{r4, pc}
    44a6:	5ccc      	ldrb	r4, [r1, r3]
    44a8:	54c4      	strb	r4, [r0, r3]
    44aa:	3301      	adds	r3, #1
    44ac:	429a      	cmp	r2, r3
    44ae:	d1fa      	bne.n	44a6 <memmove+0x1a>
    44b0:	e7f8      	b.n	44a4 <memmove+0x18>
	...

000044b4 <_free_r>:
    44b4:	b570      	push	{r4, r5, r6, lr}
    44b6:	0005      	movs	r5, r0
    44b8:	2900      	cmp	r1, #0
    44ba:	d010      	beq.n	44de <_free_r+0x2a>
    44bc:	1f0c      	subs	r4, r1, #4
    44be:	6823      	ldr	r3, [r4, #0]
    44c0:	2b00      	cmp	r3, #0
    44c2:	da00      	bge.n	44c6 <_free_r+0x12>
    44c4:	18e4      	adds	r4, r4, r3
    44c6:	0028      	movs	r0, r5
    44c8:	f000 fa38 	bl	493c <__malloc_lock>
    44cc:	4a1d      	ldr	r2, [pc, #116]	; (4544 <_free_r+0x90>)
    44ce:	6813      	ldr	r3, [r2, #0]
    44d0:	2b00      	cmp	r3, #0
    44d2:	d105      	bne.n	44e0 <_free_r+0x2c>
    44d4:	6063      	str	r3, [r4, #4]
    44d6:	6014      	str	r4, [r2, #0]
    44d8:	0028      	movs	r0, r5
    44da:	f000 fa37 	bl	494c <__malloc_unlock>
    44de:	bd70      	pop	{r4, r5, r6, pc}
    44e0:	42a3      	cmp	r3, r4
    44e2:	d908      	bls.n	44f6 <_free_r+0x42>
    44e4:	6821      	ldr	r1, [r4, #0]
    44e6:	1860      	adds	r0, r4, r1
    44e8:	4283      	cmp	r3, r0
    44ea:	d1f3      	bne.n	44d4 <_free_r+0x20>
    44ec:	6818      	ldr	r0, [r3, #0]
    44ee:	685b      	ldr	r3, [r3, #4]
    44f0:	1841      	adds	r1, r0, r1
    44f2:	6021      	str	r1, [r4, #0]
    44f4:	e7ee      	b.n	44d4 <_free_r+0x20>
    44f6:	001a      	movs	r2, r3
    44f8:	685b      	ldr	r3, [r3, #4]
    44fa:	2b00      	cmp	r3, #0
    44fc:	d001      	beq.n	4502 <_free_r+0x4e>
    44fe:	42a3      	cmp	r3, r4
    4500:	d9f9      	bls.n	44f6 <_free_r+0x42>
    4502:	6811      	ldr	r1, [r2, #0]
    4504:	1850      	adds	r0, r2, r1
    4506:	42a0      	cmp	r0, r4
    4508:	d10b      	bne.n	4522 <_free_r+0x6e>
    450a:	6820      	ldr	r0, [r4, #0]
    450c:	1809      	adds	r1, r1, r0
    450e:	1850      	adds	r0, r2, r1
    4510:	6011      	str	r1, [r2, #0]
    4512:	4283      	cmp	r3, r0
    4514:	d1e0      	bne.n	44d8 <_free_r+0x24>
    4516:	6818      	ldr	r0, [r3, #0]
    4518:	685b      	ldr	r3, [r3, #4]
    451a:	1841      	adds	r1, r0, r1
    451c:	6011      	str	r1, [r2, #0]
    451e:	6053      	str	r3, [r2, #4]
    4520:	e7da      	b.n	44d8 <_free_r+0x24>
    4522:	42a0      	cmp	r0, r4
    4524:	d902      	bls.n	452c <_free_r+0x78>
    4526:	230c      	movs	r3, #12
    4528:	602b      	str	r3, [r5, #0]
    452a:	e7d5      	b.n	44d8 <_free_r+0x24>
    452c:	6821      	ldr	r1, [r4, #0]
    452e:	1860      	adds	r0, r4, r1
    4530:	4283      	cmp	r3, r0
    4532:	d103      	bne.n	453c <_free_r+0x88>
    4534:	6818      	ldr	r0, [r3, #0]
    4536:	685b      	ldr	r3, [r3, #4]
    4538:	1841      	adds	r1, r0, r1
    453a:	6021      	str	r1, [r4, #0]
    453c:	6063      	str	r3, [r4, #4]
    453e:	6054      	str	r4, [r2, #4]
    4540:	e7ca      	b.n	44d8 <_free_r+0x24>
    4542:	46c0      	nop			; (mov r8, r8)
    4544:	200000fc 	.word	0x200000fc

00004548 <_malloc_r>:
    4548:	b5f8      	push	{r3, r4, r5, r6, r7, lr}
    454a:	2303      	movs	r3, #3
    454c:	1ccd      	adds	r5, r1, #3
    454e:	439d      	bics	r5, r3
    4550:	3508      	adds	r5, #8
    4552:	0006      	movs	r6, r0
    4554:	2d0c      	cmp	r5, #12
    4556:	d21f      	bcs.n	4598 <_malloc_r+0x50>
    4558:	250c      	movs	r5, #12
    455a:	42a9      	cmp	r1, r5
    455c:	d81e      	bhi.n	459c <_malloc_r+0x54>
    455e:	0030      	movs	r0, r6
    4560:	f000 f9ec 	bl	493c <__malloc_lock>
    4564:	4925      	ldr	r1, [pc, #148]	; (45fc <_malloc_r+0xb4>)
    4566:	680a      	ldr	r2, [r1, #0]
    4568:	0014      	movs	r4, r2
    456a:	2c00      	cmp	r4, #0
    456c:	d11a      	bne.n	45a4 <_malloc_r+0x5c>
    456e:	4f24      	ldr	r7, [pc, #144]	; (4600 <_malloc_r+0xb8>)
    4570:	683b      	ldr	r3, [r7, #0]
    4572:	2b00      	cmp	r3, #0
    4574:	d104      	bne.n	4580 <_malloc_r+0x38>
    4576:	0021      	movs	r1, r4
    4578:	0030      	movs	r0, r6
    457a:	f000 f869 	bl	4650 <_sbrk_r>
    457e:	6038      	str	r0, [r7, #0]
    4580:	0029      	movs	r1, r5
    4582:	0030      	movs	r0, r6
    4584:	f000 f864 	bl	4650 <_sbrk_r>
    4588:	1c43      	adds	r3, r0, #1
    458a:	d12b      	bne.n	45e4 <_malloc_r+0x9c>
    458c:	230c      	movs	r3, #12
    458e:	0030      	movs	r0, r6
    4590:	6033      	str	r3, [r6, #0]
    4592:	f000 f9db 	bl	494c <__malloc_unlock>
    4596:	e003      	b.n	45a0 <_malloc_r+0x58>
    4598:	2d00      	cmp	r5, #0
    459a:	dade      	bge.n	455a <_malloc_r+0x12>
    459c:	230c      	movs	r3, #12
    459e:	6033      	str	r3, [r6, #0]
    45a0:	2000      	movs	r0, #0
    45a2:	bdf8      	pop	{r3, r4, r5, r6, r7, pc}
    45a4:	6823      	ldr	r3, [r4, #0]
    45a6:	1b5b      	subs	r3, r3, r5
    45a8:	d419      	bmi.n	45de <_malloc_r+0x96>
    45aa:	2b0b      	cmp	r3, #11
    45ac:	d903      	bls.n	45b6 <_malloc_r+0x6e>
    45ae:	6023      	str	r3, [r4, #0]
    45b0:	18e4      	adds	r4, r4, r3
    45b2:	6025      	str	r5, [r4, #0]
    45b4:	e003      	b.n	45be <_malloc_r+0x76>
    45b6:	6863      	ldr	r3, [r4, #4]
    45b8:	42a2      	cmp	r2, r4
    45ba:	d10e      	bne.n	45da <_malloc_r+0x92>
    45bc:	600b      	str	r3, [r1, #0]
    45be:	0030      	movs	r0, r6
    45c0:	f000 f9c4 	bl	494c <__malloc_unlock>
    45c4:	0020      	movs	r0, r4
    45c6:	2207      	movs	r2, #7
    45c8:	300b      	adds	r0, #11
    45ca:	1d23      	adds	r3, r4, #4
    45cc:	4390      	bics	r0, r2
    45ce:	1ac2      	subs	r2, r0, r3
    45d0:	4298      	cmp	r0, r3
    45d2:	d0e6      	beq.n	45a2 <_malloc_r+0x5a>
    45d4:	1a1b      	subs	r3, r3, r0
    45d6:	50a3      	str	r3, [r4, r2]
    45d8:	e7e3      	b.n	45a2 <_malloc_r+0x5a>
    45da:	6053      	str	r3, [r2, #4]
    45dc:	e7ef      	b.n	45be <_malloc_r+0x76>
    45de:	0022      	movs	r2, r4
    45e0:	6864      	ldr	r4, [r4, #4]
    45e2:	e7c2      	b.n	456a <_malloc_r+0x22>
    45e4:	2303      	movs	r3, #3
    45e6:	1cc4      	adds	r4, r0, #3
    45e8:	439c      	bics	r4, r3
    45ea:	42a0      	cmp	r0, r4
    45ec:	d0e1      	beq.n	45b2 <_malloc_r+0x6a>
    45ee:	1a21      	subs	r1, r4, r0
    45f0:	0030      	movs	r0, r6
    45f2:	f000 f82d 	bl	4650 <_sbrk_r>
    45f6:	1c43      	adds	r3, r0, #1
    45f8:	d1db      	bne.n	45b2 <_malloc_r+0x6a>
    45fa:	e7c7      	b.n	458c <_malloc_r+0x44>
    45fc:	200000fc 	.word	0x200000fc
    4600:	20000100 	.word	0x20000100

00004604 <_realloc_r>:
    4604:	b5f8      	push	{r3, r4, r5, r6, r7, lr}
    4606:	0007      	movs	r7, r0
    4608:	000d      	movs	r5, r1
    460a:	0016      	movs	r6, r2
    460c:	2900      	cmp	r1, #0
    460e:	d105      	bne.n	461c <_realloc_r+0x18>
    4610:	0011      	movs	r1, r2
    4612:	f7ff ff99 	bl	4548 <_malloc_r>
    4616:	0004      	movs	r4, r0
    4618:	0020      	movs	r0, r4
    461a:	bdf8      	pop	{r3, r4, r5, r6, r7, pc}
    461c:	2a00      	cmp	r2, #0
    461e:	d103      	bne.n	4628 <_realloc_r+0x24>
    4620:	f7ff ff48 	bl	44b4 <_free_r>
    4624:	0034      	movs	r4, r6
    4626:	e7f7      	b.n	4618 <_realloc_r+0x14>
    4628:	f000 f998 	bl	495c <_malloc_usable_size_r>
    462c:	002c      	movs	r4, r5
    462e:	42b0      	cmp	r0, r6
    4630:	d2f2      	bcs.n	4618 <_realloc_r+0x14>
    4632:	0031      	movs	r1, r6
    4634:	0038      	movs	r0, r7
    4636:	f7ff ff87 	bl	4548 <_malloc_r>
    463a:	1e04      	subs	r4, r0, #0
    463c:	d0ec      	beq.n	4618 <_realloc_r+0x14>
    463e:	0029      	movs	r1, r5
    4640:	0032      	movs	r2, r6
    4642:	f7ff ff1a 	bl	447a <memcpy>
    4646:	0029      	movs	r1, r5
    4648:	0038      	movs	r0, r7
    464a:	f7ff ff33 	bl	44b4 <_free_r>
    464e:	e7e3      	b.n	4618 <_realloc_r+0x14>

00004650 <_sbrk_r>:
    4650:	2300      	movs	r3, #0
    4652:	b570      	push	{r4, r5, r6, lr}
    4654:	4d06      	ldr	r5, [pc, #24]	; (4670 <_sbrk_r+0x20>)
    4656:	0004      	movs	r4, r0
    4658:	0008      	movs	r0, r1
    465a:	602b      	str	r3, [r5, #0]
    465c:	f001 fa40 	bl	5ae0 <_sbrk>
    4660:	1c43      	adds	r3, r0, #1
    4662:	d103      	bne.n	466c <_sbrk_r+0x1c>
    4664:	682b      	ldr	r3, [r5, #0]
    4666:	2b00      	cmp	r3, #0
    4668:	d000      	beq.n	466c <_sbrk_r+0x1c>
    466a:	6023      	str	r3, [r4, #0]
    466c:	bd70      	pop	{r4, r5, r6, pc}
    466e:	46c0      	nop			; (mov r8, r8)
    4670:	2000011c 	.word	0x2000011c

00004674 <_init_signal_r>:
    4674:	b570      	push	{r4, r5, r6, lr}
    4676:	6c44      	ldr	r4, [r0, #68]	; 0x44
    4678:	0005      	movs	r5, r0
    467a:	2c00      	cmp	r4, #0
    467c:	d10a      	bne.n	4694 <_init_signal_r+0x20>
    467e:	2180      	movs	r1, #128	; 0x80
    4680:	f7ff ff62 	bl	4548 <_malloc_r>
    4684:	6468      	str	r0, [r5, #68]	; 0x44
    4686:	2800      	cmp	r0, #0
    4688:	d006      	beq.n	4698 <_init_signal_r+0x24>
    468a:	0003      	movs	r3, r0
    468c:	3380      	adds	r3, #128	; 0x80
    468e:	c010      	stmia	r0!, {r4}
    4690:	4298      	cmp	r0, r3
    4692:	d1fc      	bne.n	468e <_init_signal_r+0x1a>
    4694:	2000      	movs	r0, #0
    4696:	bd70      	pop	{r4, r5, r6, pc}
    4698:	2001      	movs	r0, #1
    469a:	4240      	negs	r0, r0
    469c:	e7fb      	b.n	4696 <_init_signal_r+0x22>

0000469e <_signal_r>:
    469e:	b570      	push	{r4, r5, r6, lr}
    46a0:	0004      	movs	r4, r0
    46a2:	000d      	movs	r5, r1
    46a4:	0016      	movs	r6, r2
    46a6:	291f      	cmp	r1, #31
    46a8:	d904      	bls.n	46b4 <_signal_r+0x16>
    46aa:	2316      	movs	r3, #22
    46ac:	6003      	str	r3, [r0, #0]
    46ae:	2001      	movs	r0, #1
    46b0:	4240      	negs	r0, r0
    46b2:	e007      	b.n	46c4 <_signal_r+0x26>
    46b4:	6c43      	ldr	r3, [r0, #68]	; 0x44
    46b6:	2b00      	cmp	r3, #0
    46b8:	d005      	beq.n	46c6 <_signal_r+0x28>
    46ba:	6c63      	ldr	r3, [r4, #68]	; 0x44
    46bc:	00ad      	lsls	r5, r5, #2
    46be:	195d      	adds	r5, r3, r5
    46c0:	6828      	ldr	r0, [r5, #0]
    46c2:	602e      	str	r6, [r5, #0]
    46c4:	bd70      	pop	{r4, r5, r6, pc}
    46c6:	f7ff ffd5 	bl	4674 <_init_signal_r>
    46ca:	2800      	cmp	r0, #0
    46cc:	d0f5      	beq.n	46ba <_signal_r+0x1c>
    46ce:	e7ee      	b.n	46ae <_signal_r+0x10>

000046d0 <_raise_r>:
    46d0:	b570      	push	{r4, r5, r6, lr}
    46d2:	0004      	movs	r4, r0
    46d4:	000d      	movs	r5, r1
    46d6:	291f      	cmp	r1, #31
    46d8:	d904      	bls.n	46e4 <_raise_r+0x14>
    46da:	2316      	movs	r3, #22
    46dc:	6003      	str	r3, [r0, #0]
    46de:	2001      	movs	r0, #1
    46e0:	4240      	negs	r0, r0
    46e2:	bd70      	pop	{r4, r5, r6, pc}
    46e4:	6c43      	ldr	r3, [r0, #68]	; 0x44
    46e6:	2b00      	cmp	r3, #0
    46e8:	d004      	beq.n	46f4 <_raise_r+0x24>
    46ea:	008a      	lsls	r2, r1, #2
    46ec:	189b      	adds	r3, r3, r2
    46ee:	681a      	ldr	r2, [r3, #0]
    46f0:	2a00      	cmp	r2, #0
    46f2:	d108      	bne.n	4706 <_raise_r+0x36>
    46f4:	0020      	movs	r0, r4
    46f6:	f000 f871 	bl	47dc <_getpid_r>
    46fa:	002a      	movs	r2, r5
    46fc:	0001      	movs	r1, r0
    46fe:	0020      	movs	r0, r4
    4700:	f000 f85a 	bl	47b8 <_kill_r>
    4704:	e7ed      	b.n	46e2 <_raise_r+0x12>
    4706:	2000      	movs	r0, #0
    4708:	2a01      	cmp	r2, #1
    470a:	d0ea      	beq.n	46e2 <_raise_r+0x12>
    470c:	1c51      	adds	r1, r2, #1
    470e:	d103      	bne.n	4718 <_raise_r+0x48>
    4710:	2316      	movs	r3, #22
    4712:	3001      	adds	r0, #1
    4714:	6023      	str	r3, [r4, #0]
    4716:	e7e4      	b.n	46e2 <_raise_r+0x12>
    4718:	2400      	movs	r4, #0
    471a:	0028      	movs	r0, r5
    471c:	601c      	str	r4, [r3, #0]
    471e:	4790      	blx	r2
    4720:	0020      	movs	r0, r4
    4722:	e7de      	b.n	46e2 <_raise_r+0x12>

00004724 <__sigtramp_r>:
    4724:	b570      	push	{r4, r5, r6, lr}
    4726:	0004      	movs	r4, r0
    4728:	000d      	movs	r5, r1
    472a:	291f      	cmp	r1, #31
    472c:	d902      	bls.n	4734 <__sigtramp_r+0x10>
    472e:	2001      	movs	r0, #1
    4730:	4240      	negs	r0, r0
    4732:	bd70      	pop	{r4, r5, r6, pc}
    4734:	6c43      	ldr	r3, [r0, #68]	; 0x44
    4736:	2b00      	cmp	r3, #0
    4738:	d012      	beq.n	4760 <__sigtramp_r+0x3c>
    473a:	6c62      	ldr	r2, [r4, #68]	; 0x44
    473c:	00ab      	lsls	r3, r5, #2
    473e:	18d2      	adds	r2, r2, r3
    4740:	6813      	ldr	r3, [r2, #0]
    4742:	2001      	movs	r0, #1
    4744:	2b00      	cmp	r3, #0
    4746:	d0f4      	beq.n	4732 <__sigtramp_r+0xe>
    4748:	2002      	movs	r0, #2
    474a:	1c59      	adds	r1, r3, #1
    474c:	d0f1      	beq.n	4732 <__sigtramp_r+0xe>
    474e:	3001      	adds	r0, #1
    4750:	2b01      	cmp	r3, #1
    4752:	d0ee      	beq.n	4732 <__sigtramp_r+0xe>
    4754:	2400      	movs	r4, #0
    4756:	0028      	movs	r0, r5
    4758:	6014      	str	r4, [r2, #0]
    475a:	4798      	blx	r3
    475c:	0020      	movs	r0, r4
    475e:	e7e8      	b.n	4732 <__sigtramp_r+0xe>
    4760:	f7ff ff88 	bl	4674 <_init_signal_r>
    4764:	2800      	cmp	r0, #0
    4766:	d0e8      	beq.n	473a <__sigtramp_r+0x16>
    4768:	e7e1      	b.n	472e <__sigtramp_r+0xa>
	...

0000476c <raise>:
    476c:	b510      	push	{r4, lr}
    476e:	4b03      	ldr	r3, [pc, #12]	; (477c <raise+0x10>)
    4770:	0001      	movs	r1, r0
    4772:	6818      	ldr	r0, [r3, #0]
    4774:	f7ff ffac 	bl	46d0 <_raise_r>
    4778:	bd10      	pop	{r4, pc}
    477a:	46c0      	nop			; (mov r8, r8)
    477c:	20000010 	.word	0x20000010

00004780 <signal>:
    4780:	b510      	push	{r4, lr}
    4782:	4b03      	ldr	r3, [pc, #12]	; (4790 <signal+0x10>)
    4784:	000a      	movs	r2, r1
    4786:	0001      	movs	r1, r0
    4788:	6818      	ldr	r0, [r3, #0]
    478a:	f7ff ff88 	bl	469e <_signal_r>
    478e:	bd10      	pop	{r4, pc}
    4790:	20000010 	.word	0x20000010

00004794 <_init_signal>:
    4794:	b510      	push	{r4, lr}
    4796:	4b02      	ldr	r3, [pc, #8]	; (47a0 <_init_signal+0xc>)
    4798:	6818      	ldr	r0, [r3, #0]
    479a:	f7ff ff6b 	bl	4674 <_init_signal_r>
    479e:	bd10      	pop	{r4, pc}
    47a0:	20000010 	.word	0x20000010

000047a4 <__sigtramp>:
    47a4:	b510      	push	{r4, lr}
    47a6:	4b03      	ldr	r3, [pc, #12]	; (47b4 <__sigtramp+0x10>)
    47a8:	0001      	movs	r1, r0
    47aa:	6818      	ldr	r0, [r3, #0]
    47ac:	f7ff ffba 	bl	4724 <__sigtramp_r>
    47b0:	bd10      	pop	{r4, pc}
    47b2:	46c0      	nop			; (mov r8, r8)
    47b4:	20000010 	.word	0x20000010

000047b8 <_kill_r>:
    47b8:	2300      	movs	r3, #0
    47ba:	b570      	push	{r4, r5, r6, lr}
    47bc:	4d06      	ldr	r5, [pc, #24]	; (47d8 <_kill_r+0x20>)
    47be:	0004      	movs	r4, r0
    47c0:	0008      	movs	r0, r1
    47c2:	0011      	movs	r1, r2
    47c4:	602b      	str	r3, [r5, #0]
    47c6:	f001 f97b 	bl	5ac0 <_kill>
    47ca:	1c43      	adds	r3, r0, #1
    47cc:	d103      	bne.n	47d6 <_kill_r+0x1e>
    47ce:	682b      	ldr	r3, [r5, #0]
    47d0:	2b00      	cmp	r3, #0
    47d2:	d000      	beq.n	47d6 <_kill_r+0x1e>
    47d4:	6023      	str	r3, [r4, #0]
    47d6:	bd70      	pop	{r4, r5, r6, pc}
    47d8:	2000011c 	.word	0x2000011c

000047dc <_getpid_r>:
    47dc:	b510      	push	{r4, lr}
    47de:	f001 f95f 	bl	5aa0 <_getpid>
    47e2:	bd10      	pop	{r4, pc}

000047e4 <__sread>:
    47e4:	b570      	push	{r4, r5, r6, lr}
    47e6:	000c      	movs	r4, r1
    47e8:	250e      	movs	r5, #14
    47ea:	5f49      	ldrsh	r1, [r1, r5]
    47ec:	f000 f8be 	bl	496c <_read_r>
    47f0:	2800      	cmp	r0, #0
    47f2:	db03      	blt.n	47fc <__sread+0x18>
    47f4:	6d63      	ldr	r3, [r4, #84]	; 0x54
    47f6:	181b      	adds	r3, r3, r0
    47f8:	6563      	str	r3, [r4, #84]	; 0x54
    47fa:	bd70      	pop	{r4, r5, r6, pc}
    47fc:	89a3      	ldrh	r3, [r4, #12]
    47fe:	4a02      	ldr	r2, [pc, #8]	; (4808 <__sread+0x24>)
    4800:	4013      	ands	r3, r2
    4802:	81a3      	strh	r3, [r4, #12]
    4804:	e7f9      	b.n	47fa <__sread+0x16>
    4806:	46c0      	nop			; (mov r8, r8)
    4808:	ffffefff 	.word	0xffffefff

0000480c <__seofread>:
    480c:	2000      	movs	r0, #0
    480e:	4770      	bx	lr

00004810 <__swrite>:
    4810:	b5f8      	push	{r3, r4, r5, r6, r7, lr}
    4812:	001f      	movs	r7, r3
    4814:	898b      	ldrh	r3, [r1, #12]
    4816:	0005      	movs	r5, r0
    4818:	000c      	movs	r4, r1
    481a:	0016      	movs	r6, r2
    481c:	05db      	lsls	r3, r3, #23
    481e:	d505      	bpl.n	482c <__swrite+0x1c>
    4820:	230e      	movs	r3, #14
    4822:	5ec9      	ldrsh	r1, [r1, r3]
    4824:	2200      	movs	r2, #0
    4826:	2302      	movs	r3, #2
    4828:	f000 f874 	bl	4914 <_lseek_r>
    482c:	89a3      	ldrh	r3, [r4, #12]
    482e:	4a05      	ldr	r2, [pc, #20]	; (4844 <__swrite+0x34>)
    4830:	0028      	movs	r0, r5
    4832:	4013      	ands	r3, r2
    4834:	81a3      	strh	r3, [r4, #12]
    4836:	0032      	movs	r2, r6
    4838:	230e      	movs	r3, #14
    483a:	5ee1      	ldrsh	r1, [r4, r3]
    483c:	003b      	movs	r3, r7
    483e:	f000 f81f 	bl	4880 <_write_r>
    4842:	bdf8      	pop	{r3, r4, r5, r6, r7, pc}
    4844:	ffffefff 	.word	0xffffefff

00004848 <__sseek>:
    4848:	b570      	push	{r4, r5, r6, lr}
    484a:	000c      	movs	r4, r1
    484c:	250e      	movs	r5, #14
    484e:	5f49      	ldrsh	r1, [r1, r5]
    4850:	f000 f860 	bl	4914 <_lseek_r>
    4854:	89a3      	ldrh	r3, [r4, #12]
    4856:	1c42      	adds	r2, r0, #1
    4858:	d103      	bne.n	4862 <__sseek+0x1a>
    485a:	4a05      	ldr	r2, [pc, #20]	; (4870 <__sseek+0x28>)
    485c:	4013      	ands	r3, r2
    485e:	81a3      	strh	r3, [r4, #12]
    4860:	bd70      	pop	{r4, r5, r6, pc}
    4862:	2280      	movs	r2, #128	; 0x80
    4864:	0152      	lsls	r2, r2, #5
    4866:	4313      	orrs	r3, r2
    4868:	81a3      	strh	r3, [r4, #12]
    486a:	6560      	str	r0, [r4, #84]	; 0x54
    486c:	e7f8      	b.n	4860 <__sseek+0x18>
    486e:	46c0      	nop			; (mov r8, r8)
    4870:	ffffefff 	.word	0xffffefff

00004874 <__sclose>:
    4874:	b510      	push	{r4, lr}
    4876:	230e      	movs	r3, #14
    4878:	5ec9      	ldrsh	r1, [r1, r3]
    487a:	f000 f815 	bl	48a8 <_close_r>
    487e:	bd10      	pop	{r4, pc}

00004880 <_write_r>:
    4880:	b570      	push	{r4, r5, r6, lr}
    4882:	0004      	movs	r4, r0
    4884:	0008      	movs	r0, r1
    4886:	0011      	movs	r1, r2
    4888:	001a      	movs	r2, r3
    488a:	2300      	movs	r3, #0
    488c:	4d05      	ldr	r5, [pc, #20]	; (48a4 <_write_r+0x24>)
    488e:	602b      	str	r3, [r5, #0]
    4890:	f7fd faac 	bl	1dec <_write>
    4894:	1c43      	adds	r3, r0, #1
    4896:	d103      	bne.n	48a0 <_write_r+0x20>
    4898:	682b      	ldr	r3, [r5, #0]
    489a:	2b00      	cmp	r3, #0
    489c:	d000      	beq.n	48a0 <_write_r+0x20>
    489e:	6023      	str	r3, [r4, #0]
    48a0:	bd70      	pop	{r4, r5, r6, pc}
    48a2:	46c0      	nop			; (mov r8, r8)
    48a4:	2000011c 	.word	0x2000011c

000048a8 <_close_r>:
    48a8:	2300      	movs	r3, #0
    48aa:	b570      	push	{r4, r5, r6, lr}
    48ac:	4d06      	ldr	r5, [pc, #24]	; (48c8 <_close_r+0x20>)
    48ae:	0004      	movs	r4, r0
    48b0:	0008      	movs	r0, r1
    48b2:	602b      	str	r3, [r5, #0]
    48b4:	f001 f8e4 	bl	5a80 <_close>
    48b8:	1c43      	adds	r3, r0, #1
    48ba:	d103      	bne.n	48c4 <_close_r+0x1c>
    48bc:	682b      	ldr	r3, [r5, #0]
    48be:	2b00      	cmp	r3, #0
    48c0:	d000      	beq.n	48c4 <_close_r+0x1c>
    48c2:	6023      	str	r3, [r4, #0]
    48c4:	bd70      	pop	{r4, r5, r6, pc}
    48c6:	46c0      	nop			; (mov r8, r8)
    48c8:	2000011c 	.word	0x2000011c

000048cc <_fstat_r>:
    48cc:	2300      	movs	r3, #0
    48ce:	b570      	push	{r4, r5, r6, lr}
    48d0:	4d06      	ldr	r5, [pc, #24]	; (48ec <_fstat_r+0x20>)
    48d2:	0004      	movs	r4, r0
    48d4:	0008      	movs	r0, r1
    48d6:	0011      	movs	r1, r2
    48d8:	602b      	str	r3, [r5, #0]
    48da:	f001 f8d9 	bl	5a90 <_fstat>
    48de:	1c43      	adds	r3, r0, #1
    48e0:	d103      	bne.n	48ea <_fstat_r+0x1e>
    48e2:	682b      	ldr	r3, [r5, #0]
    48e4:	2b00      	cmp	r3, #0
    48e6:	d000      	beq.n	48ea <_fstat_r+0x1e>
    48e8:	6023      	str	r3, [r4, #0]
    48ea:	bd70      	pop	{r4, r5, r6, pc}
    48ec:	2000011c 	.word	0x2000011c

000048f0 <_isatty_r>:
    48f0:	2300      	movs	r3, #0
    48f2:	b570      	push	{r4, r5, r6, lr}
    48f4:	4d06      	ldr	r5, [pc, #24]	; (4910 <_isatty_r+0x20>)
    48f6:	0004      	movs	r4, r0
    48f8:	0008      	movs	r0, r1
    48fa:	602b      	str	r3, [r5, #0]
    48fc:	f001 f8d8 	bl	5ab0 <_isatty>
    4900:	1c43      	adds	r3, r0, #1
    4902:	d103      	bne.n	490c <_isatty_r+0x1c>
    4904:	682b      	ldr	r3, [r5, #0]
    4906:	2b00      	cmp	r3, #0
    4908:	d000      	beq.n	490c <_isatty_r+0x1c>
    490a:	6023      	str	r3, [r4, #0]
    490c:	bd70      	pop	{r4, r5, r6, pc}
    490e:	46c0      	nop			; (mov r8, r8)
    4910:	2000011c 	.word	0x2000011c

00004914 <_lseek_r>:
    4914:	b570      	push	{r4, r5, r6, lr}
    4916:	0004      	movs	r4, r0
    4918:	0008      	movs	r0, r1
    491a:	0011      	movs	r1, r2
    491c:	001a      	movs	r2, r3
    491e:	2300      	movs	r3, #0
    4920:	4d05      	ldr	r5, [pc, #20]	; (4938 <_lseek_r+0x24>)
    4922:	602b      	str	r3, [r5, #0]
    4924:	f001 f8d4 	bl	5ad0 <_lseek>
    4928:	1c43      	adds	r3, r0, #1
    492a:	d103      	bne.n	4934 <_lseek_r+0x20>
    492c:	682b      	ldr	r3, [r5, #0]
    492e:	2b00      	cmp	r3, #0
    4930:	d000      	beq.n	4934 <_lseek_r+0x20>
    4932:	6023      	str	r3, [r4, #0]
    4934:	bd70      	pop	{r4, r5, r6, pc}
    4936:	46c0      	nop			; (mov r8, r8)
    4938:	2000011c 	.word	0x2000011c

0000493c <__malloc_lock>:
    493c:	b510      	push	{r4, lr}
    493e:	4802      	ldr	r0, [pc, #8]	; (4948 <__malloc_lock+0xc>)
    4940:	f7ff fd1c 	bl	437c <__retarget_lock_acquire_recursive>
    4944:	bd10      	pop	{r4, pc}
    4946:	46c0      	nop			; (mov r8, r8)
    4948:	20000114 	.word	0x20000114

0000494c <__malloc_unlock>:
    494c:	b510      	push	{r4, lr}
    494e:	4802      	ldr	r0, [pc, #8]	; (4958 <__malloc_unlock+0xc>)
    4950:	f7ff fd1a 	bl	4388 <__retarget_lock_release_recursive>
    4954:	bd10      	pop	{r4, pc}
    4956:	46c0      	nop			; (mov r8, r8)
    4958:	20000114 	.word	0x20000114

0000495c <_malloc_usable_size_r>:
    495c:	1f0b      	subs	r3, r1, #4
    495e:	681b      	ldr	r3, [r3, #0]
    4960:	1f18      	subs	r0, r3, #4
    4962:	2b00      	cmp	r3, #0
    4964:	da01      	bge.n	496a <_malloc_usable_size_r+0xe>
    4966:	580b      	ldr	r3, [r1, r0]
    4968:	18c0      	adds	r0, r0, r3
    496a:	4770      	bx	lr

0000496c <_read_r>:
    496c:	b570      	push	{r4, r5, r6, lr}
    496e:	0004      	movs	r4, r0
    4970:	0008      	movs	r0, r1
    4972:	0011      	movs	r1, r2
    4974:	001a      	movs	r2, r3
    4976:	2300      	movs	r3, #0
    4978:	4d05      	ldr	r5, [pc, #20]	; (4990 <_read_r+0x24>)
    497a:	602b      	str	r3, [r5, #0]
    497c:	f7fd fa54 	bl	1e28 <_read>
    4980:	1c43      	adds	r3, r0, #1
    4982:	d103      	bne.n	498c <_read_r+0x20>
    4984:	682b      	ldr	r3, [r5, #0]
    4986:	2b00      	cmp	r3, #0
    4988:	d000      	beq.n	498c <_read_r+0x20>
    498a:	6023      	str	r3, [r4, #0]
    498c:	bd70      	pop	{r4, r5, r6, pc}
    498e:	46c0      	nop			; (mov r8, r8)
    4990:	2000011c 	.word	0x2000011c

00004994 <cleanup_glue>:
    4994:	b570      	push	{r4, r5, r6, lr}
    4996:	000d      	movs	r5, r1
    4998:	6809      	ldr	r1, [r1, #0]
    499a:	0004      	movs	r4, r0
    499c:	2900      	cmp	r1, #0
    499e:	d001      	beq.n	49a4 <cleanup_glue+0x10>
    49a0:	f7ff fff8 	bl	4994 <cleanup_glue>
    49a4:	0029      	movs	r1, r5
    49a6:	0020      	movs	r0, r4
    49a8:	f7ff fd84 	bl	44b4 <_free_r>
    49ac:	bd70      	pop	{r4, r5, r6, pc}
	...

000049b0 <_reclaim_reent>:
    49b0:	4b31      	ldr	r3, [pc, #196]	; (4a78 <_reclaim_reent+0xc8>)
    49b2:	b570      	push	{r4, r5, r6, lr}
    49b4:	681b      	ldr	r3, [r3, #0]
    49b6:	0004      	movs	r4, r0
    49b8:	4283      	cmp	r3, r0
    49ba:	d049      	beq.n	4a50 <_reclaim_reent+0xa0>
    49bc:	6a43      	ldr	r3, [r0, #36]	; 0x24
    49be:	2b00      	cmp	r3, #0
    49c0:	d00a      	beq.n	49d8 <_reclaim_reent+0x28>
    49c2:	2500      	movs	r5, #0
    49c4:	68db      	ldr	r3, [r3, #12]
    49c6:	42ab      	cmp	r3, r5
    49c8:	d147      	bne.n	4a5a <_reclaim_reent+0xaa>
    49ca:	6a63      	ldr	r3, [r4, #36]	; 0x24
    49cc:	6819      	ldr	r1, [r3, #0]
    49ce:	2900      	cmp	r1, #0
    49d0:	d002      	beq.n	49d8 <_reclaim_reent+0x28>
    49d2:	0020      	movs	r0, r4
    49d4:	f7ff fd6e 	bl	44b4 <_free_r>
    49d8:	6961      	ldr	r1, [r4, #20]
    49da:	2900      	cmp	r1, #0
    49dc:	d002      	beq.n	49e4 <_reclaim_reent+0x34>
    49de:	0020      	movs	r0, r4
    49e0:	f7ff fd68 	bl	44b4 <_free_r>
    49e4:	6a61      	ldr	r1, [r4, #36]	; 0x24
    49e6:	2900      	cmp	r1, #0
    49e8:	d002      	beq.n	49f0 <_reclaim_reent+0x40>
    49ea:	0020      	movs	r0, r4
    49ec:	f7ff fd62 	bl	44b4 <_free_r>
    49f0:	6ba1      	ldr	r1, [r4, #56]	; 0x38
    49f2:	2900      	cmp	r1, #0
    49f4:	d002      	beq.n	49fc <_reclaim_reent+0x4c>
    49f6:	0020      	movs	r0, r4
    49f8:	f7ff fd5c 	bl	44b4 <_free_r>
    49fc:	6be1      	ldr	r1, [r4, #60]	; 0x3c
    49fe:	2900      	cmp	r1, #0
    4a00:	d002      	beq.n	4a08 <_reclaim_reent+0x58>
    4a02:	0020      	movs	r0, r4
    4a04:	f7ff fd56 	bl	44b4 <_free_r>
    4a08:	6c21      	ldr	r1, [r4, #64]	; 0x40
    4a0a:	2900      	cmp	r1, #0
    4a0c:	d002      	beq.n	4a14 <_reclaim_reent+0x64>
    4a0e:	0020      	movs	r0, r4
    4a10:	f7ff fd50 	bl	44b4 <_free_r>
    4a14:	6de1      	ldr	r1, [r4, #92]	; 0x5c
    4a16:	2900      	cmp	r1, #0
    4a18:	d002      	beq.n	4a20 <_reclaim_reent+0x70>
    4a1a:	0020      	movs	r0, r4
    4a1c:	f7ff fd4a 	bl	44b4 <_free_r>
    4a20:	6da1      	ldr	r1, [r4, #88]	; 0x58
    4a22:	2900      	cmp	r1, #0
    4a24:	d002      	beq.n	4a2c <_reclaim_reent+0x7c>
    4a26:	0020      	movs	r0, r4
    4a28:	f7ff fd44 	bl	44b4 <_free_r>
    4a2c:	6b61      	ldr	r1, [r4, #52]	; 0x34
    4a2e:	2900      	cmp	r1, #0
    4a30:	d002      	beq.n	4a38 <_reclaim_reent+0x88>
    4a32:	0020      	movs	r0, r4
    4a34:	f7ff fd3e 	bl	44b4 <_free_r>
    4a38:	69a3      	ldr	r3, [r4, #24]
    4a3a:	2b00      	cmp	r3, #0
    4a3c:	d008      	beq.n	4a50 <_reclaim_reent+0xa0>
    4a3e:	0020      	movs	r0, r4
    4a40:	6aa3      	ldr	r3, [r4, #40]	; 0x28
    4a42:	4798      	blx	r3
    4a44:	6ca1      	ldr	r1, [r4, #72]	; 0x48
    4a46:	2900      	cmp	r1, #0
    4a48:	d002      	beq.n	4a50 <_reclaim_reent+0xa0>
    4a4a:	0020      	movs	r0, r4
    4a4c:	f7ff ffa2 	bl	4994 <cleanup_glue>
    4a50:	bd70      	pop	{r4, r5, r6, pc}
    4a52:	5949      	ldr	r1, [r1, r5]
    4a54:	2900      	cmp	r1, #0
    4a56:	d108      	bne.n	4a6a <_reclaim_reent+0xba>
    4a58:	3504      	adds	r5, #4
    4a5a:	6a63      	ldr	r3, [r4, #36]	; 0x24
    4a5c:	68d9      	ldr	r1, [r3, #12]
    4a5e:	2d80      	cmp	r5, #128	; 0x80
    4a60:	d1f7      	bne.n	4a52 <_reclaim_reent+0xa2>
    4a62:	0020      	movs	r0, r4
    4a64:	f7ff fd26 	bl	44b4 <_free_r>
    4a68:	e7af      	b.n	49ca <_reclaim_reent+0x1a>
    4a6a:	680e      	ldr	r6, [r1, #0]
    4a6c:	0020      	movs	r0, r4
    4a6e:	f7ff fd21 	bl	44b4 <_free_r>
    4a72:	0031      	movs	r1, r6
    4a74:	e7ee      	b.n	4a54 <_reclaim_reent+0xa4>
    4a76:	46c0      	nop			; (mov r8, r8)
    4a78:	20000010 	.word	0x20000010

00004a7c <__gnu_thumb1_case_shi>:
    4a7c:	b403      	push	{r0, r1}
    4a7e:	4671      	mov	r1, lr
    4a80:	0849      	lsrs	r1, r1, #1
    4a82:	0040      	lsls	r0, r0, #1
    4a84:	0049      	lsls	r1, r1, #1
    4a86:	5e09      	ldrsh	r1, [r1, r0]
    4a88:	0049      	lsls	r1, r1, #1
    4a8a:	448e      	add	lr, r1
    4a8c:	bc03      	pop	{r0, r1}
    4a8e:	4770      	bx	lr

00004a90 <__udivsi3>:
    4a90:	2200      	movs	r2, #0
    4a92:	0843      	lsrs	r3, r0, #1
    4a94:	428b      	cmp	r3, r1
    4a96:	d374      	bcc.n	4b82 <__udivsi3+0xf2>
    4a98:	0903      	lsrs	r3, r0, #4
    4a9a:	428b      	cmp	r3, r1
    4a9c:	d35f      	bcc.n	4b5e <__udivsi3+0xce>
    4a9e:	0a03      	lsrs	r3, r0, #8
    4aa0:	428b      	cmp	r3, r1
    4aa2:	d344      	bcc.n	4b2e <__udivsi3+0x9e>
    4aa4:	0b03      	lsrs	r3, r0, #12
    4aa6:	428b      	cmp	r3, r1
    4aa8:	d328      	bcc.n	4afc <__udivsi3+0x6c>
    4aaa:	0c03      	lsrs	r3, r0, #16
    4aac:	428b      	cmp	r3, r1
    4aae:	d30d      	bcc.n	4acc <__udivsi3+0x3c>
    4ab0:	22ff      	movs	r2, #255	; 0xff
    4ab2:	0209      	lsls	r1, r1, #8
    4ab4:	ba12      	rev	r2, r2
    4ab6:	0c03      	lsrs	r3, r0, #16
    4ab8:	428b      	cmp	r3, r1
    4aba:	d302      	bcc.n	4ac2 <__udivsi3+0x32>
    4abc:	1212      	asrs	r2, r2, #8
    4abe:	0209      	lsls	r1, r1, #8
    4ac0:	d065      	beq.n	4b8e <__udivsi3+0xfe>
    4ac2:	0b03      	lsrs	r3, r0, #12
    4ac4:	428b      	cmp	r3, r1
    4ac6:	d319      	bcc.n	4afc <__udivsi3+0x6c>
    4ac8:	e000      	b.n	4acc <__udivsi3+0x3c>
    4aca:	0a09      	lsrs	r1, r1, #8
    4acc:	0bc3      	lsrs	r3, r0, #15
    4ace:	428b      	cmp	r3, r1
    4ad0:	d301      	bcc.n	4ad6 <__udivsi3+0x46>
    4ad2:	03cb      	lsls	r3, r1, #15
    4ad4:	1ac0      	subs	r0, r0, r3
    4ad6:	4152      	adcs	r2, r2
    4ad8:	0b83      	lsrs	r3, r0, #14
    4ada:	428b      	cmp	r3, r1
    4adc:	d301      	bcc.n	4ae2 <__udivsi3+0x52>
    4ade:	038b      	lsls	r3, r1, #14
    4ae0:	1ac0      	subs	r0, r0, r3
    4ae2:	4152      	adcs	r2, r2
    4ae4:	0b43      	lsrs	r3, r0, #13
    4ae6:	428b      	cmp	r3, r1
    4ae8:	d301      	bcc.n	4aee <__udivsi3+0x5e>
    4aea:	034b      	lsls	r3, r1, #13
    4aec:	1ac0      	subs	r0, r0, r3
    4aee:	4152      	adcs	r2, r2
    4af0:	0b03      	lsrs	r3, r0, #12
    4af2:	428b      	cmp	r3, r1
    4af4:	d301      	bcc.n	4afa <__udivsi3+0x6a>
    4af6:	030b      	lsls	r3, r1, #12
    4af8:	1ac0      	subs	r0, r0, r3
    4afa:	4152      	adcs	r2, r2
    4afc:	0ac3      	lsrs	r3, r0, #11
    4afe:	428b      	cmp	r3, r1
    4b00:	d301      	bcc.n	4b06 <__udivsi3+0x76>
    4b02:	02cb      	lsls	r3, r1, #11
    4b04:	1ac0      	subs	r0, r0, r3
    4b06:	4152      	adcs	r2, r2
    4b08:	0a83      	lsrs	r3, r0, #10
    4b0a:	428b      	cmp	r3, r1
    4b0c:	d301      	bcc.n	4b12 <__udivsi3+0x82>
    4b0e:	028b      	lsls	r3, r1, #10
    4b10:	1ac0      	subs	r0, r0, r3
    4b12:	4152      	adcs	r2, r2
    4b14:	0a43      	lsrs	r3, r0, #9
    4b16:	428b      	cmp	r3, r1
    4b18:	d301      	bcc.n	4b1e <__udivsi3+0x8e>
    4b1a:	024b      	lsls	r3, r1, #9
    4b1c:	1ac0      	subs	r0, r0, r3
    4b1e:	4152      	adcs	r2, r2
    4b20:	0a03      	lsrs	r3, r0, #8
    4b22:	428b      	cmp	r3, r1
    4b24:	d301      	bcc.n	4b2a <__udivsi3+0x9a>
    4b26:	020b      	lsls	r3, r1, #8
    4b28:	1ac0      	subs	r0, r0, r3
    4b2a:	4152      	adcs	r2, r2
    4b2c:	d2cd      	bcs.n	4aca <__udivsi3+0x3a>
    4b2e:	09c3      	lsrs	r3, r0, #7
    4b30:	428b      	cmp	r3, r1
    4b32:	d301      	bcc.n	4b38 <__udivsi3+0xa8>
    4b34:	01cb      	lsls	r3, r1, #7
    4b36:	1ac0      	subs	r0, r0, r3
    4b38:	4152      	adcs	r2, r2
    4b3a:	0983      	lsrs	r3, r0, #6
    4b3c:	428b      	cmp	r3, r1
    4b3e:	d301      	bcc.n	4b44 <__udivsi3+0xb4>
    4b40:	018b      	lsls	r3, r1, #6
    4b42:	1ac0      	subs	r0, r0, r3
    4b44:	4152      	adcs	r2, r2
    4b46:	0943      	lsrs	r3, r0, #5
    4b48:	428b      	cmp	r3, r1
    4b4a:	d301      	bcc.n	4b50 <__udivsi3+0xc0>
    4b4c:	014b      	lsls	r3, r1, #5
    4b4e:	1ac0      	subs	r0, r0, r3
    4b50:	4152      	adcs	r2, r2
    4b52:	0903      	lsrs	r3, r0, #4
    4b54:	428b      	cmp	r3, r1
    4b56:	d301      	bcc.n	4b5c <__udivsi3+0xcc>
    4b58:	010b      	lsls	r3, r1, #4
    4b5a:	1ac0      	subs	r0, r0, r3
    4b5c:	4152      	adcs	r2, r2
    4b5e:	08c3      	lsrs	r3, r0, #3
    4b60:	428b      	cmp	r3, r1
    4b62:	d301      	bcc.n	4b68 <__udivsi3+0xd8>
    4b64:	00cb      	lsls	r3, r1, #3
    4b66:	1ac0      	subs	r0, r0, r3
    4b68:	4152      	adcs	r2, r2
    4b6a:	0883      	lsrs	r3, r0, #2
    4b6c:	428b      	cmp	r3, r1
    4b6e:	d301      	bcc.n	4b74 <__udivsi3+0xe4>
    4b70:	008b      	lsls	r3, r1, #2
    4b72:	1ac0      	subs	r0, r0, r3
    4b74:	4152      	adcs	r2, r2
    4b76:	0843      	lsrs	r3, r0, #1
    4b78:	428b      	cmp	r3, r1
    4b7a:	d301      	bcc.n	4b80 <__udivsi3+0xf0>
    4b7c:	004b      	lsls	r3, r1, #1
    4b7e:	1ac0      	subs	r0, r0, r3
    4b80:	4152      	adcs	r2, r2
    4b82:	1a41      	subs	r1, r0, r1
    4b84:	d200      	bcs.n	4b88 <__udivsi3+0xf8>
    4b86:	4601      	mov	r1, r0
    4b88:	4152      	adcs	r2, r2
    4b8a:	4610      	mov	r0, r2
    4b8c:	4770      	bx	lr
    4b8e:	e7ff      	b.n	4b90 <__udivsi3+0x100>
    4b90:	b501      	push	{r0, lr}
    4b92:	2000      	movs	r0, #0
    4b94:	f000 f8f0 	bl	4d78 <__aeabi_idiv0>
    4b98:	bd02      	pop	{r1, pc}
    4b9a:	46c0      	nop			; (mov r8, r8)

00004b9c <__aeabi_uidivmod>:
    4b9c:	2900      	cmp	r1, #0
    4b9e:	d0f7      	beq.n	4b90 <__udivsi3+0x100>
    4ba0:	e776      	b.n	4a90 <__udivsi3>
    4ba2:	4770      	bx	lr

00004ba4 <__divsi3>:
    4ba4:	4603      	mov	r3, r0
    4ba6:	430b      	orrs	r3, r1
    4ba8:	d47f      	bmi.n	4caa <__divsi3+0x106>
    4baa:	2200      	movs	r2, #0
    4bac:	0843      	lsrs	r3, r0, #1
    4bae:	428b      	cmp	r3, r1
    4bb0:	d374      	bcc.n	4c9c <__divsi3+0xf8>
    4bb2:	0903      	lsrs	r3, r0, #4
    4bb4:	428b      	cmp	r3, r1
    4bb6:	d35f      	bcc.n	4c78 <__divsi3+0xd4>
    4bb8:	0a03      	lsrs	r3, r0, #8
    4bba:	428b      	cmp	r3, r1
    4bbc:	d344      	bcc.n	4c48 <__divsi3+0xa4>
    4bbe:	0b03      	lsrs	r3, r0, #12
    4bc0:	428b      	cmp	r3, r1
    4bc2:	d328      	bcc.n	4c16 <__divsi3+0x72>
    4bc4:	0c03      	lsrs	r3, r0, #16
    4bc6:	428b      	cmp	r3, r1
    4bc8:	d30d      	bcc.n	4be6 <__divsi3+0x42>
    4bca:	22ff      	movs	r2, #255	; 0xff
    4bcc:	0209      	lsls	r1, r1, #8
    4bce:	ba12      	rev	r2, r2
    4bd0:	0c03      	lsrs	r3, r0, #16
    4bd2:	428b      	cmp	r3, r1
    4bd4:	d302      	bcc.n	4bdc <__divsi3+0x38>
    4bd6:	1212      	asrs	r2, r2, #8
    4bd8:	0209      	lsls	r1, r1, #8
    4bda:	d065      	beq.n	4ca8 <__divsi3+0x104>
    4bdc:	0b03      	lsrs	r3, r0, #12
    4bde:	428b      	cmp	r3, r1
    4be0:	d319      	bcc.n	4c16 <__divsi3+0x72>
    4be2:	e000      	b.n	4be6 <__divsi3+0x42>
    4be4:	0a09      	lsrs	r1, r1, #8
    4be6:	0bc3      	lsrs	r3, r0, #15
    4be8:	428b      	cmp	r3, r1
    4bea:	d301      	bcc.n	4bf0 <__divsi3+0x4c>
    4bec:	03cb      	lsls	r3, r1, #15
    4bee:	1ac0      	subs	r0, r0, r3
    4bf0:	4152      	adcs	r2, r2
    4bf2:	0b83      	lsrs	r3, r0, #14
    4bf4:	428b      	cmp	r3, r1
    4bf6:	d301      	bcc.n	4bfc <__divsi3+0x58>
    4bf8:	038b      	lsls	r3, r1, #14
    4bfa:	1ac0      	subs	r0, r0, r3
    4bfc:	4152      	adcs	r2, r2
    4bfe:	0b43      	lsrs	r3, r0, #13
    4c00:	428b      	cmp	r3, r1
    4c02:	d301      	bcc.n	4c08 <__divsi3+0x64>
    4c04:	034b      	lsls	r3, r1, #13
    4c06:	1ac0      	subs	r0, r0, r3
    4c08:	4152      	adcs	r2, r2
    4c0a:	0b03      	lsrs	r3, r0, #12
    4c0c:	428b      	cmp	r3, r1
    4c0e:	d301      	bcc.n	4c14 <__divsi3+0x70>
    4c10:	030b      	lsls	r3, r1, #12
    4c12:	1ac0      	subs	r0, r0, r3
    4c14:	4152      	adcs	r2, r2
    4c16:	0ac3      	lsrs	r3, r0, #11
    4c18:	428b      	cmp	r3, r1
    4c1a:	d301      	bcc.n	4c20 <__divsi3+0x7c>
    4c1c:	02cb      	lsls	r3, r1, #11
    4c1e:	1ac0      	subs	r0, r0, r3
    4c20:	4152      	adcs	r2, r2
    4c22:	0a83      	lsrs	r3, r0, #10
    4c24:	428b      	cmp	r3, r1
    4c26:	d301      	bcc.n	4c2c <__divsi3+0x88>
    4c28:	028b      	lsls	r3, r1, #10
    4c2a:	1ac0      	subs	r0, r0, r3
    4c2c:	4152      	adcs	r2, r2
    4c2e:	0a43      	lsrs	r3, r0, #9
    4c30:	428b      	cmp	r3, r1
    4c32:	d301      	bcc.n	4c38 <__divsi3+0x94>
    4c34:	024b      	lsls	r3, r1, #9
    4c36:	1ac0      	subs	r0, r0, r3
    4c38:	4152      	adcs	r2, r2
    4c3a:	0a03      	lsrs	r3, r0, #8
    4c3c:	428b      	cmp	r3, r1
    4c3e:	d301      	bcc.n	4c44 <__divsi3+0xa0>
    4c40:	020b      	lsls	r3, r1, #8
    4c42:	1ac0      	subs	r0, r0, r3
    4c44:	4152      	adcs	r2, r2
    4c46:	d2cd      	bcs.n	4be4 <__divsi3+0x40>
    4c48:	09c3      	lsrs	r3, r0, #7
    4c4a:	428b      	cmp	r3, r1
    4c4c:	d301      	bcc.n	4c52 <__divsi3+0xae>
    4c4e:	01cb      	lsls	r3, r1, #7
    4c50:	1ac0      	subs	r0, r0, r3
    4c52:	4152      	adcs	r2, r2
    4c54:	0983      	lsrs	r3, r0, #6
    4c56:	428b      	cmp	r3, r1
    4c58:	d301      	bcc.n	4c5e <__divsi3+0xba>
    4c5a:	018b      	lsls	r3, r1, #6
    4c5c:	1ac0      	subs	r0, r0, r3
    4c5e:	4152      	adcs	r2, r2
    4c60:	0943      	lsrs	r3, r0, #5
    4c62:	428b      	cmp	r3, r1
    4c64:	d301      	bcc.n	4c6a <__divsi3+0xc6>
    4c66:	014b      	lsls	r3, r1, #5
    4c68:	1ac0      	subs	r0, r0, r3
    4c6a:	4152      	adcs	r2, r2
    4c6c:	0903      	lsrs	r3, r0, #4
    4c6e:	428b      	cmp	r3, r1
    4c70:	d301      	bcc.n	4c76 <__divsi3+0xd2>
    4c72:	010b      	lsls	r3, r1, #4
    4c74:	1ac0      	subs	r0, r0, r3
    4c76:	4152      	adcs	r2, r2
    4c78:	08c3      	lsrs	r3, r0, #3
    4c7a:	428b      	cmp	r3, r1
    4c7c:	d301      	bcc.n	4c82 <__divsi3+0xde>
    4c7e:	00cb      	lsls	r3, r1, #3
    4c80:	1ac0      	subs	r0, r0, r3
    4c82:	4152      	adcs	r2, r2
    4c84:	0883      	lsrs	r3, r0, #2
    4c86:	428b      	cmp	r3, r1
    4c88:	d301      	bcc.n	4c8e <__divsi3+0xea>
    4c8a:	008b      	lsls	r3, r1, #2
    4c8c:	1ac0      	subs	r0, r0, r3
    4c8e:	4152      	adcs	r2, r2
    4c90:	0843      	lsrs	r3, r0, #1
    4c92:	428b      	cmp	r3, r1
    4c94:	d301      	bcc.n	4c9a <__divsi3+0xf6>
    4c96:	004b      	lsls	r3, r1, #1
    4c98:	1ac0      	subs	r0, r0, r3
    4c9a:	4152      	adcs	r2, r2
    4c9c:	1a41      	subs	r1, r0, r1
    4c9e:	d200      	bcs.n	4ca2 <__divsi3+0xfe>
    4ca0:	4601      	mov	r1, r0
    4ca2:	4152      	adcs	r2, r2
    4ca4:	4610      	mov	r0, r2
    4ca6:	4770      	bx	lr
    4ca8:	e05d      	b.n	4d66 <__divsi3+0x1c2>
    4caa:	0fca      	lsrs	r2, r1, #31
    4cac:	d000      	beq.n	4cb0 <__divsi3+0x10c>
    4cae:	4249      	negs	r1, r1
    4cb0:	1003      	asrs	r3, r0, #32
    4cb2:	d300      	bcc.n	4cb6 <__divsi3+0x112>
    4cb4:	4240      	negs	r0, r0
    4cb6:	4053      	eors	r3, r2
    4cb8:	2200      	movs	r2, #0
    4cba:	469c      	mov	ip, r3
    4cbc:	0903      	lsrs	r3, r0, #4
    4cbe:	428b      	cmp	r3, r1
    4cc0:	d32d      	bcc.n	4d1e <__divsi3+0x17a>
    4cc2:	0a03      	lsrs	r3, r0, #8
    4cc4:	428b      	cmp	r3, r1
    4cc6:	d312      	bcc.n	4cee <__divsi3+0x14a>
    4cc8:	22fc      	movs	r2, #252	; 0xfc
    4cca:	0189      	lsls	r1, r1, #6
    4ccc:	ba12      	rev	r2, r2
    4cce:	0a03      	lsrs	r3, r0, #8
    4cd0:	428b      	cmp	r3, r1
    4cd2:	d30c      	bcc.n	4cee <__divsi3+0x14a>
    4cd4:	0189      	lsls	r1, r1, #6
    4cd6:	1192      	asrs	r2, r2, #6
    4cd8:	428b      	cmp	r3, r1
    4cda:	d308      	bcc.n	4cee <__divsi3+0x14a>
    4cdc:	0189      	lsls	r1, r1, #6
    4cde:	1192      	asrs	r2, r2, #6
    4ce0:	428b      	cmp	r3, r1
    4ce2:	d304      	bcc.n	4cee <__divsi3+0x14a>
    4ce4:	0189      	lsls	r1, r1, #6
    4ce6:	d03a      	beq.n	4d5e <__divsi3+0x1ba>
    4ce8:	1192      	asrs	r2, r2, #6
    4cea:	e000      	b.n	4cee <__divsi3+0x14a>
    4cec:	0989      	lsrs	r1, r1, #6
    4cee:	09c3      	lsrs	r3, r0, #7
    4cf0:	428b      	cmp	r3, r1
    4cf2:	d301      	bcc.n	4cf8 <__divsi3+0x154>
    4cf4:	01cb      	lsls	r3, r1, #7
    4cf6:	1ac0      	subs	r0, r0, r3
    4cf8:	4152      	adcs	r2, r2
    4cfa:	0983      	lsrs	r3, r0, #6
    4cfc:	428b      	cmp	r3, r1
    4cfe:	d301      	bcc.n	4d04 <__divsi3+0x160>
    4d00:	018b      	lsls	r3, r1, #6
    4d02:	1ac0      	subs	r0, r0, r3
    4d04:	4152      	adcs	r2, r2
    4d06:	0943      	lsrs	r3, r0, #5
    4d08:	428b      	cmp	r3, r1
    4d0a:	d301      	bcc.n	4d10 <__divsi3+0x16c>
    4d0c:	014b      	lsls	r3, r1, #5
    4d0e:	1ac0      	subs	r0, r0, r3
    4d10:	4152      	adcs	r2, r2
    4d12:	0903      	lsrs	r3, r0, #4
    4d14:	428b      	cmp	r3, r1
    4d16:	d301      	bcc.n	4d1c <__divsi3+0x178>
    4d18:	010b      	lsls	r3, r1, #4
    4d1a:	1ac0      	subs	r0, r0, r3
    4d1c:	4152      	adcs	r2, r2
    4d1e:	08c3      	lsrs	r3, r0, #3
    4d20:	428b      	cmp	r3, r1
    4d22:	d301      	bcc.n	4d28 <__divsi3+0x184>
    4d24:	00cb      	lsls	r3, r1, #3
    4d26:	1ac0      	subs	r0, r0, r3
    4d28:	4152      	adcs	r2, r2
    4d2a:	0883      	lsrs	r3, r0, #2
    4d2c:	428b      	cmp	r3, r1
    4d2e:	d301      	bcc.n	4d34 <__divsi3+0x190>
    4d30:	008b      	lsls	r3, r1, #2
    4d32:	1ac0      	subs	r0, r0, r3
    4d34:	4152      	adcs	r2, r2
    4d36:	d2d9      	bcs.n	4cec <__divsi3+0x148>
    4d38:	0843      	lsrs	r3, r0, #1
    4d3a:	428b      	cmp	r3, r1
    4d3c:	d301      	bcc.n	4d42 <__divsi3+0x19e>
    4d3e:	004b      	lsls	r3, r1, #1
    4d40:	1ac0      	subs	r0, r0, r3
    4d42:	4152      	adcs	r2, r2
    4d44:	1a41      	subs	r1, r0, r1
    4d46:	d200      	bcs.n	4d4a <__divsi3+0x1a6>
    4d48:	4601      	mov	r1, r0
    4d4a:	4663      	mov	r3, ip
    4d4c:	4152      	adcs	r2, r2
    4d4e:	105b      	asrs	r3, r3, #1
    4d50:	4610      	mov	r0, r2
    4d52:	d301      	bcc.n	4d58 <__divsi3+0x1b4>
    4d54:	4240      	negs	r0, r0
    4d56:	2b00      	cmp	r3, #0
    4d58:	d500      	bpl.n	4d5c <__divsi3+0x1b8>
    4d5a:	4249      	negs	r1, r1
    4d5c:	4770      	bx	lr
    4d5e:	4663      	mov	r3, ip
    4d60:	105b      	asrs	r3, r3, #1
    4d62:	d300      	bcc.n	4d66 <__divsi3+0x1c2>
    4d64:	4240      	negs	r0, r0
    4d66:	b501      	push	{r0, lr}
    4d68:	2000      	movs	r0, #0
    4d6a:	f000 f805 	bl	4d78 <__aeabi_idiv0>
    4d6e:	bd02      	pop	{r1, pc}

00004d70 <__aeabi_idivmod>:
    4d70:	2900      	cmp	r1, #0
    4d72:	d0f8      	beq.n	4d66 <__divsi3+0x1c2>
    4d74:	e716      	b.n	4ba4 <__divsi3>
    4d76:	4770      	bx	lr

00004d78 <__aeabi_idiv0>:
    4d78:	4770      	bx	lr
    4d7a:	46c0      	nop			; (mov r8, r8)

00004d7c <__aeabi_dmul>:
    4d7c:	b5f0      	push	{r4, r5, r6, r7, lr}
    4d7e:	4657      	mov	r7, sl
    4d80:	464e      	mov	r6, r9
    4d82:	4645      	mov	r5, r8
    4d84:	46de      	mov	lr, fp
    4d86:	b5e0      	push	{r5, r6, r7, lr}
    4d88:	4698      	mov	r8, r3
    4d8a:	030c      	lsls	r4, r1, #12
    4d8c:	004b      	lsls	r3, r1, #1
    4d8e:	0006      	movs	r6, r0
    4d90:	4692      	mov	sl, r2
    4d92:	b087      	sub	sp, #28
    4d94:	0b24      	lsrs	r4, r4, #12
    4d96:	0d5b      	lsrs	r3, r3, #21
    4d98:	0fcf      	lsrs	r7, r1, #31
    4d9a:	2b00      	cmp	r3, #0
    4d9c:	d06c      	beq.n	4e78 <__aeabi_dmul+0xfc>
    4d9e:	4add      	ldr	r2, [pc, #884]	; (5114 <__aeabi_dmul+0x398>)
    4da0:	4293      	cmp	r3, r2
    4da2:	d100      	bne.n	4da6 <__aeabi_dmul+0x2a>
    4da4:	e086      	b.n	4eb4 <__aeabi_dmul+0x138>
    4da6:	0f42      	lsrs	r2, r0, #29
    4da8:	00e4      	lsls	r4, r4, #3
    4daa:	4314      	orrs	r4, r2
    4dac:	2280      	movs	r2, #128	; 0x80
    4dae:	0412      	lsls	r2, r2, #16
    4db0:	4314      	orrs	r4, r2
    4db2:	4ad9      	ldr	r2, [pc, #868]	; (5118 <__aeabi_dmul+0x39c>)
    4db4:	00c5      	lsls	r5, r0, #3
    4db6:	4694      	mov	ip, r2
    4db8:	4463      	add	r3, ip
    4dba:	9300      	str	r3, [sp, #0]
    4dbc:	2300      	movs	r3, #0
    4dbe:	4699      	mov	r9, r3
    4dc0:	469b      	mov	fp, r3
    4dc2:	4643      	mov	r3, r8
    4dc4:	4642      	mov	r2, r8
    4dc6:	031e      	lsls	r6, r3, #12
    4dc8:	0fd2      	lsrs	r2, r2, #31
    4dca:	005b      	lsls	r3, r3, #1
    4dcc:	4650      	mov	r0, sl
    4dce:	4690      	mov	r8, r2
    4dd0:	0b36      	lsrs	r6, r6, #12
    4dd2:	0d5b      	lsrs	r3, r3, #21
    4dd4:	d100      	bne.n	4dd8 <__aeabi_dmul+0x5c>
    4dd6:	e078      	b.n	4eca <__aeabi_dmul+0x14e>
    4dd8:	4ace      	ldr	r2, [pc, #824]	; (5114 <__aeabi_dmul+0x398>)
    4dda:	4293      	cmp	r3, r2
    4ddc:	d01d      	beq.n	4e1a <__aeabi_dmul+0x9e>
    4dde:	49ce      	ldr	r1, [pc, #824]	; (5118 <__aeabi_dmul+0x39c>)
    4de0:	0f42      	lsrs	r2, r0, #29
    4de2:	468c      	mov	ip, r1
    4de4:	9900      	ldr	r1, [sp, #0]
    4de6:	4463      	add	r3, ip
    4de8:	00f6      	lsls	r6, r6, #3
    4dea:	468c      	mov	ip, r1
    4dec:	4316      	orrs	r6, r2
    4dee:	2280      	movs	r2, #128	; 0x80
    4df0:	449c      	add	ip, r3
    4df2:	0412      	lsls	r2, r2, #16
    4df4:	4663      	mov	r3, ip
    4df6:	4316      	orrs	r6, r2
    4df8:	00c2      	lsls	r2, r0, #3
    4dfa:	2000      	movs	r0, #0
    4dfc:	9300      	str	r3, [sp, #0]
    4dfe:	9900      	ldr	r1, [sp, #0]
    4e00:	4643      	mov	r3, r8
    4e02:	3101      	adds	r1, #1
    4e04:	468c      	mov	ip, r1
    4e06:	4649      	mov	r1, r9
    4e08:	407b      	eors	r3, r7
    4e0a:	9301      	str	r3, [sp, #4]
    4e0c:	290f      	cmp	r1, #15
    4e0e:	d900      	bls.n	4e12 <__aeabi_dmul+0x96>
    4e10:	e07e      	b.n	4f10 <__aeabi_dmul+0x194>
    4e12:	4bc2      	ldr	r3, [pc, #776]	; (511c <__aeabi_dmul+0x3a0>)
    4e14:	0089      	lsls	r1, r1, #2
    4e16:	5859      	ldr	r1, [r3, r1]
    4e18:	468f      	mov	pc, r1
    4e1a:	4652      	mov	r2, sl
    4e1c:	9b00      	ldr	r3, [sp, #0]
    4e1e:	4332      	orrs	r2, r6
    4e20:	d000      	beq.n	4e24 <__aeabi_dmul+0xa8>
    4e22:	e156      	b.n	50d2 <__aeabi_dmul+0x356>
    4e24:	49bb      	ldr	r1, [pc, #748]	; (5114 <__aeabi_dmul+0x398>)
    4e26:	2600      	movs	r6, #0
    4e28:	468c      	mov	ip, r1
    4e2a:	4463      	add	r3, ip
    4e2c:	4649      	mov	r1, r9
    4e2e:	9300      	str	r3, [sp, #0]
    4e30:	2302      	movs	r3, #2
    4e32:	4319      	orrs	r1, r3
    4e34:	4689      	mov	r9, r1
    4e36:	2002      	movs	r0, #2
    4e38:	e7e1      	b.n	4dfe <__aeabi_dmul+0x82>
    4e3a:	4643      	mov	r3, r8
    4e3c:	9301      	str	r3, [sp, #4]
    4e3e:	0034      	movs	r4, r6
    4e40:	0015      	movs	r5, r2
    4e42:	4683      	mov	fp, r0
    4e44:	465b      	mov	r3, fp
    4e46:	2b02      	cmp	r3, #2
    4e48:	d05e      	beq.n	4f08 <__aeabi_dmul+0x18c>
    4e4a:	2b03      	cmp	r3, #3
    4e4c:	d100      	bne.n	4e50 <__aeabi_dmul+0xd4>
    4e4e:	e1f3      	b.n	5238 <__aeabi_dmul+0x4bc>
    4e50:	2b01      	cmp	r3, #1
    4e52:	d000      	beq.n	4e56 <__aeabi_dmul+0xda>
    4e54:	e118      	b.n	5088 <__aeabi_dmul+0x30c>
    4e56:	2200      	movs	r2, #0
    4e58:	2400      	movs	r4, #0
    4e5a:	2500      	movs	r5, #0
    4e5c:	9b01      	ldr	r3, [sp, #4]
    4e5e:	0512      	lsls	r2, r2, #20
    4e60:	4322      	orrs	r2, r4
    4e62:	07db      	lsls	r3, r3, #31
    4e64:	431a      	orrs	r2, r3
    4e66:	0028      	movs	r0, r5
    4e68:	0011      	movs	r1, r2
    4e6a:	b007      	add	sp, #28
    4e6c:	bc3c      	pop	{r2, r3, r4, r5}
    4e6e:	4690      	mov	r8, r2
    4e70:	4699      	mov	r9, r3
    4e72:	46a2      	mov	sl, r4
    4e74:	46ab      	mov	fp, r5
    4e76:	bdf0      	pop	{r4, r5, r6, r7, pc}
    4e78:	0025      	movs	r5, r4
    4e7a:	4305      	orrs	r5, r0
    4e7c:	d100      	bne.n	4e80 <__aeabi_dmul+0x104>
    4e7e:	e141      	b.n	5104 <__aeabi_dmul+0x388>
    4e80:	2c00      	cmp	r4, #0
    4e82:	d100      	bne.n	4e86 <__aeabi_dmul+0x10a>
    4e84:	e1ad      	b.n	51e2 <__aeabi_dmul+0x466>
    4e86:	0020      	movs	r0, r4
    4e88:	f000 fddc 	bl	5a44 <__clzsi2>
    4e8c:	0001      	movs	r1, r0
    4e8e:	0002      	movs	r2, r0
    4e90:	390b      	subs	r1, #11
    4e92:	231d      	movs	r3, #29
    4e94:	0010      	movs	r0, r2
    4e96:	1a5b      	subs	r3, r3, r1
    4e98:	0031      	movs	r1, r6
    4e9a:	0035      	movs	r5, r6
    4e9c:	3808      	subs	r0, #8
    4e9e:	4084      	lsls	r4, r0
    4ea0:	40d9      	lsrs	r1, r3
    4ea2:	4085      	lsls	r5, r0
    4ea4:	430c      	orrs	r4, r1
    4ea6:	489e      	ldr	r0, [pc, #632]	; (5120 <__aeabi_dmul+0x3a4>)
    4ea8:	1a83      	subs	r3, r0, r2
    4eaa:	9300      	str	r3, [sp, #0]
    4eac:	2300      	movs	r3, #0
    4eae:	4699      	mov	r9, r3
    4eb0:	469b      	mov	fp, r3
    4eb2:	e786      	b.n	4dc2 <__aeabi_dmul+0x46>
    4eb4:	0005      	movs	r5, r0
    4eb6:	4325      	orrs	r5, r4
    4eb8:	d000      	beq.n	4ebc <__aeabi_dmul+0x140>
    4eba:	e11c      	b.n	50f6 <__aeabi_dmul+0x37a>
    4ebc:	2208      	movs	r2, #8
    4ebe:	9300      	str	r3, [sp, #0]
    4ec0:	2302      	movs	r3, #2
    4ec2:	2400      	movs	r4, #0
    4ec4:	4691      	mov	r9, r2
    4ec6:	469b      	mov	fp, r3
    4ec8:	e77b      	b.n	4dc2 <__aeabi_dmul+0x46>
    4eca:	4652      	mov	r2, sl
    4ecc:	4332      	orrs	r2, r6
    4ece:	d100      	bne.n	4ed2 <__aeabi_dmul+0x156>
    4ed0:	e10a      	b.n	50e8 <__aeabi_dmul+0x36c>
    4ed2:	2e00      	cmp	r6, #0
    4ed4:	d100      	bne.n	4ed8 <__aeabi_dmul+0x15c>
    4ed6:	e176      	b.n	51c6 <__aeabi_dmul+0x44a>
    4ed8:	0030      	movs	r0, r6
    4eda:	f000 fdb3 	bl	5a44 <__clzsi2>
    4ede:	0002      	movs	r2, r0
    4ee0:	3a0b      	subs	r2, #11
    4ee2:	231d      	movs	r3, #29
    4ee4:	0001      	movs	r1, r0
    4ee6:	1a9b      	subs	r3, r3, r2
    4ee8:	4652      	mov	r2, sl
    4eea:	3908      	subs	r1, #8
    4eec:	40da      	lsrs	r2, r3
    4eee:	408e      	lsls	r6, r1
    4ef0:	4316      	orrs	r6, r2
    4ef2:	4652      	mov	r2, sl
    4ef4:	408a      	lsls	r2, r1
    4ef6:	9b00      	ldr	r3, [sp, #0]
    4ef8:	4989      	ldr	r1, [pc, #548]	; (5120 <__aeabi_dmul+0x3a4>)
    4efa:	1a18      	subs	r0, r3, r0
    4efc:	0003      	movs	r3, r0
    4efe:	468c      	mov	ip, r1
    4f00:	4463      	add	r3, ip
    4f02:	2000      	movs	r0, #0
    4f04:	9300      	str	r3, [sp, #0]
    4f06:	e77a      	b.n	4dfe <__aeabi_dmul+0x82>
    4f08:	2400      	movs	r4, #0
    4f0a:	2500      	movs	r5, #0
    4f0c:	4a81      	ldr	r2, [pc, #516]	; (5114 <__aeabi_dmul+0x398>)
    4f0e:	e7a5      	b.n	4e5c <__aeabi_dmul+0xe0>
    4f10:	0c2f      	lsrs	r7, r5, #16
    4f12:	042d      	lsls	r5, r5, #16
    4f14:	0c2d      	lsrs	r5, r5, #16
    4f16:	002b      	movs	r3, r5
    4f18:	0c11      	lsrs	r1, r2, #16
    4f1a:	0412      	lsls	r2, r2, #16
    4f1c:	0c12      	lsrs	r2, r2, #16
    4f1e:	4353      	muls	r3, r2
    4f20:	4698      	mov	r8, r3
    4f22:	0013      	movs	r3, r2
    4f24:	0028      	movs	r0, r5
    4f26:	437b      	muls	r3, r7
    4f28:	4699      	mov	r9, r3
    4f2a:	4348      	muls	r0, r1
    4f2c:	4448      	add	r0, r9
    4f2e:	4683      	mov	fp, r0
    4f30:	4640      	mov	r0, r8
    4f32:	000b      	movs	r3, r1
    4f34:	0c00      	lsrs	r0, r0, #16
    4f36:	4682      	mov	sl, r0
    4f38:	4658      	mov	r0, fp
    4f3a:	437b      	muls	r3, r7
    4f3c:	4450      	add	r0, sl
    4f3e:	9302      	str	r3, [sp, #8]
    4f40:	4581      	cmp	r9, r0
    4f42:	d906      	bls.n	4f52 <__aeabi_dmul+0x1d6>
    4f44:	469a      	mov	sl, r3
    4f46:	2380      	movs	r3, #128	; 0x80
    4f48:	025b      	lsls	r3, r3, #9
    4f4a:	4699      	mov	r9, r3
    4f4c:	44ca      	add	sl, r9
    4f4e:	4653      	mov	r3, sl
    4f50:	9302      	str	r3, [sp, #8]
    4f52:	0c03      	lsrs	r3, r0, #16
    4f54:	469b      	mov	fp, r3
    4f56:	4643      	mov	r3, r8
    4f58:	041b      	lsls	r3, r3, #16
    4f5a:	0400      	lsls	r0, r0, #16
    4f5c:	0c1b      	lsrs	r3, r3, #16
    4f5e:	4698      	mov	r8, r3
    4f60:	0003      	movs	r3, r0
    4f62:	4443      	add	r3, r8
    4f64:	9304      	str	r3, [sp, #16]
    4f66:	0c33      	lsrs	r3, r6, #16
    4f68:	4699      	mov	r9, r3
    4f6a:	002b      	movs	r3, r5
    4f6c:	0436      	lsls	r6, r6, #16
    4f6e:	0c36      	lsrs	r6, r6, #16
    4f70:	4373      	muls	r3, r6
    4f72:	4698      	mov	r8, r3
    4f74:	0033      	movs	r3, r6
    4f76:	437b      	muls	r3, r7
    4f78:	469a      	mov	sl, r3
    4f7a:	464b      	mov	r3, r9
    4f7c:	435d      	muls	r5, r3
    4f7e:	435f      	muls	r7, r3
    4f80:	4643      	mov	r3, r8
    4f82:	4455      	add	r5, sl
    4f84:	0c18      	lsrs	r0, r3, #16
    4f86:	1940      	adds	r0, r0, r5
    4f88:	4582      	cmp	sl, r0
    4f8a:	d903      	bls.n	4f94 <__aeabi_dmul+0x218>
    4f8c:	2380      	movs	r3, #128	; 0x80
    4f8e:	025b      	lsls	r3, r3, #9
    4f90:	469a      	mov	sl, r3
    4f92:	4457      	add	r7, sl
    4f94:	0c05      	lsrs	r5, r0, #16
    4f96:	19eb      	adds	r3, r5, r7
    4f98:	9305      	str	r3, [sp, #20]
    4f9a:	4643      	mov	r3, r8
    4f9c:	041d      	lsls	r5, r3, #16
    4f9e:	0c2d      	lsrs	r5, r5, #16
    4fa0:	0400      	lsls	r0, r0, #16
    4fa2:	1940      	adds	r0, r0, r5
    4fa4:	0c25      	lsrs	r5, r4, #16
    4fa6:	0424      	lsls	r4, r4, #16
    4fa8:	0c24      	lsrs	r4, r4, #16
    4faa:	0027      	movs	r7, r4
    4fac:	4357      	muls	r7, r2
    4fae:	436a      	muls	r2, r5
    4fb0:	4690      	mov	r8, r2
    4fb2:	002a      	movs	r2, r5
    4fb4:	0c3b      	lsrs	r3, r7, #16
    4fb6:	469a      	mov	sl, r3
    4fb8:	434a      	muls	r2, r1
    4fba:	4361      	muls	r1, r4
    4fbc:	4441      	add	r1, r8
    4fbe:	4451      	add	r1, sl
    4fc0:	4483      	add	fp, r0
    4fc2:	4588      	cmp	r8, r1
    4fc4:	d903      	bls.n	4fce <__aeabi_dmul+0x252>
    4fc6:	2380      	movs	r3, #128	; 0x80
    4fc8:	025b      	lsls	r3, r3, #9
    4fca:	4698      	mov	r8, r3
    4fcc:	4442      	add	r2, r8
    4fce:	043f      	lsls	r7, r7, #16
    4fd0:	0c0b      	lsrs	r3, r1, #16
    4fd2:	0c3f      	lsrs	r7, r7, #16
    4fd4:	0409      	lsls	r1, r1, #16
    4fd6:	19c9      	adds	r1, r1, r7
    4fd8:	0027      	movs	r7, r4
    4fda:	4698      	mov	r8, r3
    4fdc:	464b      	mov	r3, r9
    4fde:	4377      	muls	r7, r6
    4fe0:	435c      	muls	r4, r3
    4fe2:	436e      	muls	r6, r5
    4fe4:	435d      	muls	r5, r3
    4fe6:	0c3b      	lsrs	r3, r7, #16
    4fe8:	4699      	mov	r9, r3
    4fea:	19a4      	adds	r4, r4, r6
    4fec:	444c      	add	r4, r9
    4fee:	4442      	add	r2, r8
    4ff0:	9503      	str	r5, [sp, #12]
    4ff2:	42a6      	cmp	r6, r4
    4ff4:	d904      	bls.n	5000 <__aeabi_dmul+0x284>
    4ff6:	2380      	movs	r3, #128	; 0x80
    4ff8:	025b      	lsls	r3, r3, #9
    4ffa:	4698      	mov	r8, r3
    4ffc:	4445      	add	r5, r8
    4ffe:	9503      	str	r5, [sp, #12]
    5000:	9b02      	ldr	r3, [sp, #8]
    5002:	043f      	lsls	r7, r7, #16
    5004:	445b      	add	r3, fp
    5006:	001e      	movs	r6, r3
    5008:	4283      	cmp	r3, r0
    500a:	4180      	sbcs	r0, r0
    500c:	0423      	lsls	r3, r4, #16
    500e:	4698      	mov	r8, r3
    5010:	9b05      	ldr	r3, [sp, #20]
    5012:	0c3f      	lsrs	r7, r7, #16
    5014:	4447      	add	r7, r8
    5016:	4698      	mov	r8, r3
    5018:	1876      	adds	r6, r6, r1
    501a:	428e      	cmp	r6, r1
    501c:	4189      	sbcs	r1, r1
    501e:	4447      	add	r7, r8
    5020:	4240      	negs	r0, r0
    5022:	183d      	adds	r5, r7, r0
    5024:	46a8      	mov	r8, r5
    5026:	4693      	mov	fp, r2
    5028:	4249      	negs	r1, r1
    502a:	468a      	mov	sl, r1
    502c:	44c3      	add	fp, r8
    502e:	429f      	cmp	r7, r3
    5030:	41bf      	sbcs	r7, r7
    5032:	4580      	cmp	r8, r0
    5034:	4180      	sbcs	r0, r0
    5036:	9b03      	ldr	r3, [sp, #12]
    5038:	44da      	add	sl, fp
    503a:	4698      	mov	r8, r3
    503c:	4653      	mov	r3, sl
    503e:	4240      	negs	r0, r0
    5040:	427f      	negs	r7, r7
    5042:	4307      	orrs	r7, r0
    5044:	0c24      	lsrs	r4, r4, #16
    5046:	4593      	cmp	fp, r2
    5048:	4192      	sbcs	r2, r2
    504a:	458a      	cmp	sl, r1
    504c:	4189      	sbcs	r1, r1
    504e:	193f      	adds	r7, r7, r4
    5050:	0ddc      	lsrs	r4, r3, #23
    5052:	9b04      	ldr	r3, [sp, #16]
    5054:	0275      	lsls	r5, r6, #9
    5056:	431d      	orrs	r5, r3
    5058:	1e68      	subs	r0, r5, #1
    505a:	4185      	sbcs	r5, r0
    505c:	4653      	mov	r3, sl
    505e:	4252      	negs	r2, r2
    5060:	4249      	negs	r1, r1
    5062:	430a      	orrs	r2, r1
    5064:	18bf      	adds	r7, r7, r2
    5066:	4447      	add	r7, r8
    5068:	0df6      	lsrs	r6, r6, #23
    506a:	027f      	lsls	r7, r7, #9
    506c:	4335      	orrs	r5, r6
    506e:	025a      	lsls	r2, r3, #9
    5070:	433c      	orrs	r4, r7
    5072:	4315      	orrs	r5, r2
    5074:	01fb      	lsls	r3, r7, #7
    5076:	d400      	bmi.n	507a <__aeabi_dmul+0x2fe>
    5078:	e0c1      	b.n	51fe <__aeabi_dmul+0x482>
    507a:	2101      	movs	r1, #1
    507c:	086a      	lsrs	r2, r5, #1
    507e:	400d      	ands	r5, r1
    5080:	4315      	orrs	r5, r2
    5082:	07e2      	lsls	r2, r4, #31
    5084:	4315      	orrs	r5, r2
    5086:	0864      	lsrs	r4, r4, #1
    5088:	4926      	ldr	r1, [pc, #152]	; (5124 <__aeabi_dmul+0x3a8>)
    508a:	4461      	add	r1, ip
    508c:	2900      	cmp	r1, #0
    508e:	dd56      	ble.n	513e <__aeabi_dmul+0x3c2>
    5090:	076b      	lsls	r3, r5, #29
    5092:	d009      	beq.n	50a8 <__aeabi_dmul+0x32c>
    5094:	220f      	movs	r2, #15
    5096:	402a      	ands	r2, r5
    5098:	2a04      	cmp	r2, #4
    509a:	d005      	beq.n	50a8 <__aeabi_dmul+0x32c>
    509c:	1d2a      	adds	r2, r5, #4
    509e:	42aa      	cmp	r2, r5
    50a0:	41ad      	sbcs	r5, r5
    50a2:	426d      	negs	r5, r5
    50a4:	1964      	adds	r4, r4, r5
    50a6:	0015      	movs	r5, r2
    50a8:	01e3      	lsls	r3, r4, #7
    50aa:	d504      	bpl.n	50b6 <__aeabi_dmul+0x33a>
    50ac:	2180      	movs	r1, #128	; 0x80
    50ae:	4a1e      	ldr	r2, [pc, #120]	; (5128 <__aeabi_dmul+0x3ac>)
    50b0:	00c9      	lsls	r1, r1, #3
    50b2:	4014      	ands	r4, r2
    50b4:	4461      	add	r1, ip
    50b6:	4a1d      	ldr	r2, [pc, #116]	; (512c <__aeabi_dmul+0x3b0>)
    50b8:	4291      	cmp	r1, r2
    50ba:	dd00      	ble.n	50be <__aeabi_dmul+0x342>
    50bc:	e724      	b.n	4f08 <__aeabi_dmul+0x18c>
    50be:	0762      	lsls	r2, r4, #29
    50c0:	08ed      	lsrs	r5, r5, #3
    50c2:	0264      	lsls	r4, r4, #9
    50c4:	0549      	lsls	r1, r1, #21
    50c6:	4315      	orrs	r5, r2
    50c8:	0b24      	lsrs	r4, r4, #12
    50ca:	0d4a      	lsrs	r2, r1, #21
    50cc:	e6c6      	b.n	4e5c <__aeabi_dmul+0xe0>
    50ce:	9701      	str	r7, [sp, #4]
    50d0:	e6b8      	b.n	4e44 <__aeabi_dmul+0xc8>
    50d2:	4a10      	ldr	r2, [pc, #64]	; (5114 <__aeabi_dmul+0x398>)
    50d4:	2003      	movs	r0, #3
    50d6:	4694      	mov	ip, r2
    50d8:	4463      	add	r3, ip
    50da:	464a      	mov	r2, r9
    50dc:	9300      	str	r3, [sp, #0]
    50de:	2303      	movs	r3, #3
    50e0:	431a      	orrs	r2, r3
    50e2:	4691      	mov	r9, r2
    50e4:	4652      	mov	r2, sl
    50e6:	e68a      	b.n	4dfe <__aeabi_dmul+0x82>
    50e8:	4649      	mov	r1, r9
    50ea:	2301      	movs	r3, #1
    50ec:	4319      	orrs	r1, r3
    50ee:	4689      	mov	r9, r1
    50f0:	2600      	movs	r6, #0
    50f2:	2001      	movs	r0, #1
    50f4:	e683      	b.n	4dfe <__aeabi_dmul+0x82>
    50f6:	220c      	movs	r2, #12
    50f8:	9300      	str	r3, [sp, #0]
    50fa:	2303      	movs	r3, #3
    50fc:	0005      	movs	r5, r0
    50fe:	4691      	mov	r9, r2
    5100:	469b      	mov	fp, r3
    5102:	e65e      	b.n	4dc2 <__aeabi_dmul+0x46>
    5104:	2304      	movs	r3, #4
    5106:	4699      	mov	r9, r3
    5108:	2300      	movs	r3, #0
    510a:	9300      	str	r3, [sp, #0]
    510c:	3301      	adds	r3, #1
    510e:	2400      	movs	r4, #0
    5110:	469b      	mov	fp, r3
    5112:	e656      	b.n	4dc2 <__aeabi_dmul+0x46>
    5114:	000007ff 	.word	0x000007ff
    5118:	fffffc01 	.word	0xfffffc01
    511c:	00006044 	.word	0x00006044
    5120:	fffffc0d 	.word	0xfffffc0d
    5124:	000003ff 	.word	0x000003ff
    5128:	feffffff 	.word	0xfeffffff
    512c:	000007fe 	.word	0x000007fe
    5130:	2300      	movs	r3, #0
    5132:	2480      	movs	r4, #128	; 0x80
    5134:	2500      	movs	r5, #0
    5136:	4a44      	ldr	r2, [pc, #272]	; (5248 <__aeabi_dmul+0x4cc>)
    5138:	9301      	str	r3, [sp, #4]
    513a:	0324      	lsls	r4, r4, #12
    513c:	e68e      	b.n	4e5c <__aeabi_dmul+0xe0>
    513e:	2001      	movs	r0, #1
    5140:	1a40      	subs	r0, r0, r1
    5142:	2838      	cmp	r0, #56	; 0x38
    5144:	dd00      	ble.n	5148 <__aeabi_dmul+0x3cc>
    5146:	e686      	b.n	4e56 <__aeabi_dmul+0xda>
    5148:	281f      	cmp	r0, #31
    514a:	dd5b      	ble.n	5204 <__aeabi_dmul+0x488>
    514c:	221f      	movs	r2, #31
    514e:	0023      	movs	r3, r4
    5150:	4252      	negs	r2, r2
    5152:	1a51      	subs	r1, r2, r1
    5154:	40cb      	lsrs	r3, r1
    5156:	0019      	movs	r1, r3
    5158:	2820      	cmp	r0, #32
    515a:	d003      	beq.n	5164 <__aeabi_dmul+0x3e8>
    515c:	4a3b      	ldr	r2, [pc, #236]	; (524c <__aeabi_dmul+0x4d0>)
    515e:	4462      	add	r2, ip
    5160:	4094      	lsls	r4, r2
    5162:	4325      	orrs	r5, r4
    5164:	1e6a      	subs	r2, r5, #1
    5166:	4195      	sbcs	r5, r2
    5168:	002a      	movs	r2, r5
    516a:	430a      	orrs	r2, r1
    516c:	2107      	movs	r1, #7
    516e:	000d      	movs	r5, r1
    5170:	2400      	movs	r4, #0
    5172:	4015      	ands	r5, r2
    5174:	4211      	tst	r1, r2
    5176:	d05b      	beq.n	5230 <__aeabi_dmul+0x4b4>
    5178:	210f      	movs	r1, #15
    517a:	2400      	movs	r4, #0
    517c:	4011      	ands	r1, r2
    517e:	2904      	cmp	r1, #4
    5180:	d053      	beq.n	522a <__aeabi_dmul+0x4ae>
    5182:	1d11      	adds	r1, r2, #4
    5184:	4291      	cmp	r1, r2
    5186:	4192      	sbcs	r2, r2
    5188:	4252      	negs	r2, r2
    518a:	18a4      	adds	r4, r4, r2
    518c:	000a      	movs	r2, r1
    518e:	0223      	lsls	r3, r4, #8
    5190:	d54b      	bpl.n	522a <__aeabi_dmul+0x4ae>
    5192:	2201      	movs	r2, #1
    5194:	2400      	movs	r4, #0
    5196:	2500      	movs	r5, #0
    5198:	e660      	b.n	4e5c <__aeabi_dmul+0xe0>
    519a:	2380      	movs	r3, #128	; 0x80
    519c:	031b      	lsls	r3, r3, #12
    519e:	421c      	tst	r4, r3
    51a0:	d009      	beq.n	51b6 <__aeabi_dmul+0x43a>
    51a2:	421e      	tst	r6, r3
    51a4:	d107      	bne.n	51b6 <__aeabi_dmul+0x43a>
    51a6:	4333      	orrs	r3, r6
    51a8:	031c      	lsls	r4, r3, #12
    51aa:	4643      	mov	r3, r8
    51ac:	0015      	movs	r5, r2
    51ae:	0b24      	lsrs	r4, r4, #12
    51b0:	4a25      	ldr	r2, [pc, #148]	; (5248 <__aeabi_dmul+0x4cc>)
    51b2:	9301      	str	r3, [sp, #4]
    51b4:	e652      	b.n	4e5c <__aeabi_dmul+0xe0>
    51b6:	2280      	movs	r2, #128	; 0x80
    51b8:	0312      	lsls	r2, r2, #12
    51ba:	4314      	orrs	r4, r2
    51bc:	0324      	lsls	r4, r4, #12
    51be:	4a22      	ldr	r2, [pc, #136]	; (5248 <__aeabi_dmul+0x4cc>)
    51c0:	0b24      	lsrs	r4, r4, #12
    51c2:	9701      	str	r7, [sp, #4]
    51c4:	e64a      	b.n	4e5c <__aeabi_dmul+0xe0>
    51c6:	f000 fc3d 	bl	5a44 <__clzsi2>
    51ca:	0003      	movs	r3, r0
    51cc:	001a      	movs	r2, r3
    51ce:	3215      	adds	r2, #21
    51d0:	3020      	adds	r0, #32
    51d2:	2a1c      	cmp	r2, #28
    51d4:	dc00      	bgt.n	51d8 <__aeabi_dmul+0x45c>
    51d6:	e684      	b.n	4ee2 <__aeabi_dmul+0x166>
    51d8:	4656      	mov	r6, sl
    51da:	3b08      	subs	r3, #8
    51dc:	2200      	movs	r2, #0
    51de:	409e      	lsls	r6, r3
    51e0:	e689      	b.n	4ef6 <__aeabi_dmul+0x17a>
    51e2:	f000 fc2f 	bl	5a44 <__clzsi2>
    51e6:	0001      	movs	r1, r0
    51e8:	0002      	movs	r2, r0
    51ea:	3115      	adds	r1, #21
    51ec:	3220      	adds	r2, #32
    51ee:	291c      	cmp	r1, #28
    51f0:	dc00      	bgt.n	51f4 <__aeabi_dmul+0x478>
    51f2:	e64e      	b.n	4e92 <__aeabi_dmul+0x116>
    51f4:	0034      	movs	r4, r6
    51f6:	3808      	subs	r0, #8
    51f8:	2500      	movs	r5, #0
    51fa:	4084      	lsls	r4, r0
    51fc:	e653      	b.n	4ea6 <__aeabi_dmul+0x12a>
    51fe:	9b00      	ldr	r3, [sp, #0]
    5200:	469c      	mov	ip, r3
    5202:	e741      	b.n	5088 <__aeabi_dmul+0x30c>
    5204:	4912      	ldr	r1, [pc, #72]	; (5250 <__aeabi_dmul+0x4d4>)
    5206:	0022      	movs	r2, r4
    5208:	4461      	add	r1, ip
    520a:	002e      	movs	r6, r5
    520c:	408d      	lsls	r5, r1
    520e:	408a      	lsls	r2, r1
    5210:	40c6      	lsrs	r6, r0
    5212:	1e69      	subs	r1, r5, #1
    5214:	418d      	sbcs	r5, r1
    5216:	4332      	orrs	r2, r6
    5218:	432a      	orrs	r2, r5
    521a:	40c4      	lsrs	r4, r0
    521c:	0753      	lsls	r3, r2, #29
    521e:	d0b6      	beq.n	518e <__aeabi_dmul+0x412>
    5220:	210f      	movs	r1, #15
    5222:	4011      	ands	r1, r2
    5224:	2904      	cmp	r1, #4
    5226:	d1ac      	bne.n	5182 <__aeabi_dmul+0x406>
    5228:	e7b1      	b.n	518e <__aeabi_dmul+0x412>
    522a:	0765      	lsls	r5, r4, #29
    522c:	0264      	lsls	r4, r4, #9
    522e:	0b24      	lsrs	r4, r4, #12
    5230:	08d2      	lsrs	r2, r2, #3
    5232:	4315      	orrs	r5, r2
    5234:	2200      	movs	r2, #0
    5236:	e611      	b.n	4e5c <__aeabi_dmul+0xe0>
    5238:	2280      	movs	r2, #128	; 0x80
    523a:	0312      	lsls	r2, r2, #12
    523c:	4314      	orrs	r4, r2
    523e:	0324      	lsls	r4, r4, #12
    5240:	4a01      	ldr	r2, [pc, #4]	; (5248 <__aeabi_dmul+0x4cc>)
    5242:	0b24      	lsrs	r4, r4, #12
    5244:	e60a      	b.n	4e5c <__aeabi_dmul+0xe0>
    5246:	46c0      	nop			; (mov r8, r8)
    5248:	000007ff 	.word	0x000007ff
    524c:	0000043e 	.word	0x0000043e
    5250:	0000041e 	.word	0x0000041e

00005254 <__aeabi_dsub>:
    5254:	b5f8      	push	{r3, r4, r5, r6, r7, lr}
    5256:	4657      	mov	r7, sl
    5258:	464e      	mov	r6, r9
    525a:	4645      	mov	r5, r8
    525c:	46de      	mov	lr, fp
    525e:	0004      	movs	r4, r0
    5260:	b5e0      	push	{r5, r6, r7, lr}
    5262:	001f      	movs	r7, r3
    5264:	0010      	movs	r0, r2
    5266:	030b      	lsls	r3, r1, #12
    5268:	0f62      	lsrs	r2, r4, #29
    526a:	004e      	lsls	r6, r1, #1
    526c:	0fcd      	lsrs	r5, r1, #31
    526e:	0a5b      	lsrs	r3, r3, #9
    5270:	0339      	lsls	r1, r7, #12
    5272:	4313      	orrs	r3, r2
    5274:	0a49      	lsrs	r1, r1, #9
    5276:	00e2      	lsls	r2, r4, #3
    5278:	0f44      	lsrs	r4, r0, #29
    527a:	4321      	orrs	r1, r4
    527c:	4cc2      	ldr	r4, [pc, #776]	; (5588 <__aeabi_dsub+0x334>)
    527e:	4691      	mov	r9, r2
    5280:	4692      	mov	sl, r2
    5282:	00c0      	lsls	r0, r0, #3
    5284:	007a      	lsls	r2, r7, #1
    5286:	4680      	mov	r8, r0
    5288:	0d76      	lsrs	r6, r6, #21
    528a:	0d52      	lsrs	r2, r2, #21
    528c:	0fff      	lsrs	r7, r7, #31
    528e:	42a2      	cmp	r2, r4
    5290:	d100      	bne.n	5294 <__aeabi_dsub+0x40>
    5292:	e0b4      	b.n	53fe <__aeabi_dsub+0x1aa>
    5294:	2401      	movs	r4, #1
    5296:	4067      	eors	r7, r4
    5298:	46bb      	mov	fp, r7
    529a:	42bd      	cmp	r5, r7
    529c:	d100      	bne.n	52a0 <__aeabi_dsub+0x4c>
    529e:	e088      	b.n	53b2 <__aeabi_dsub+0x15e>
    52a0:	1ab4      	subs	r4, r6, r2
    52a2:	46a4      	mov	ip, r4
    52a4:	2c00      	cmp	r4, #0
    52a6:	dc00      	bgt.n	52aa <__aeabi_dsub+0x56>
    52a8:	e0b2      	b.n	5410 <__aeabi_dsub+0x1bc>
    52aa:	2a00      	cmp	r2, #0
    52ac:	d100      	bne.n	52b0 <__aeabi_dsub+0x5c>
    52ae:	e0c5      	b.n	543c <__aeabi_dsub+0x1e8>
    52b0:	4ab5      	ldr	r2, [pc, #724]	; (5588 <__aeabi_dsub+0x334>)
    52b2:	4296      	cmp	r6, r2
    52b4:	d100      	bne.n	52b8 <__aeabi_dsub+0x64>
    52b6:	e28b      	b.n	57d0 <__aeabi_dsub+0x57c>
    52b8:	2280      	movs	r2, #128	; 0x80
    52ba:	0412      	lsls	r2, r2, #16
    52bc:	4311      	orrs	r1, r2
    52be:	4662      	mov	r2, ip
    52c0:	2a38      	cmp	r2, #56	; 0x38
    52c2:	dd00      	ble.n	52c6 <__aeabi_dsub+0x72>
    52c4:	e1a1      	b.n	560a <__aeabi_dsub+0x3b6>
    52c6:	2a1f      	cmp	r2, #31
    52c8:	dd00      	ble.n	52cc <__aeabi_dsub+0x78>
    52ca:	e216      	b.n	56fa <__aeabi_dsub+0x4a6>
    52cc:	2720      	movs	r7, #32
    52ce:	000c      	movs	r4, r1
    52d0:	1abf      	subs	r7, r7, r2
    52d2:	40bc      	lsls	r4, r7
    52d4:	0002      	movs	r2, r0
    52d6:	46a0      	mov	r8, r4
    52d8:	4664      	mov	r4, ip
    52da:	40b8      	lsls	r0, r7
    52dc:	40e2      	lsrs	r2, r4
    52de:	4644      	mov	r4, r8
    52e0:	4314      	orrs	r4, r2
    52e2:	0002      	movs	r2, r0
    52e4:	1e50      	subs	r0, r2, #1
    52e6:	4182      	sbcs	r2, r0
    52e8:	4660      	mov	r0, ip
    52ea:	40c1      	lsrs	r1, r0
    52ec:	4322      	orrs	r2, r4
    52ee:	1a5b      	subs	r3, r3, r1
    52f0:	4649      	mov	r1, r9
    52f2:	1a8c      	subs	r4, r1, r2
    52f4:	45a1      	cmp	r9, r4
    52f6:	4192      	sbcs	r2, r2
    52f8:	4252      	negs	r2, r2
    52fa:	1a9b      	subs	r3, r3, r2
    52fc:	4698      	mov	r8, r3
    52fe:	4643      	mov	r3, r8
    5300:	021b      	lsls	r3, r3, #8
    5302:	d400      	bmi.n	5306 <__aeabi_dsub+0xb2>
    5304:	e117      	b.n	5536 <__aeabi_dsub+0x2e2>
    5306:	4643      	mov	r3, r8
    5308:	025b      	lsls	r3, r3, #9
    530a:	0a5b      	lsrs	r3, r3, #9
    530c:	4698      	mov	r8, r3
    530e:	4643      	mov	r3, r8
    5310:	2b00      	cmp	r3, #0
    5312:	d100      	bne.n	5316 <__aeabi_dsub+0xc2>
    5314:	e16c      	b.n	55f0 <__aeabi_dsub+0x39c>
    5316:	4640      	mov	r0, r8
    5318:	f000 fb94 	bl	5a44 <__clzsi2>
    531c:	0002      	movs	r2, r0
    531e:	3a08      	subs	r2, #8
    5320:	2120      	movs	r1, #32
    5322:	0020      	movs	r0, r4
    5324:	4643      	mov	r3, r8
    5326:	1a89      	subs	r1, r1, r2
    5328:	4093      	lsls	r3, r2
    532a:	40c8      	lsrs	r0, r1
    532c:	4094      	lsls	r4, r2
    532e:	4303      	orrs	r3, r0
    5330:	4296      	cmp	r6, r2
    5332:	dd00      	ble.n	5336 <__aeabi_dsub+0xe2>
    5334:	e157      	b.n	55e6 <__aeabi_dsub+0x392>
    5336:	1b96      	subs	r6, r2, r6
    5338:	1c71      	adds	r1, r6, #1
    533a:	291f      	cmp	r1, #31
    533c:	dd00      	ble.n	5340 <__aeabi_dsub+0xec>
    533e:	e1cb      	b.n	56d8 <__aeabi_dsub+0x484>
    5340:	2220      	movs	r2, #32
    5342:	0018      	movs	r0, r3
    5344:	0026      	movs	r6, r4
    5346:	1a52      	subs	r2, r2, r1
    5348:	4094      	lsls	r4, r2
    534a:	4090      	lsls	r0, r2
    534c:	40ce      	lsrs	r6, r1
    534e:	40cb      	lsrs	r3, r1
    5350:	1e62      	subs	r2, r4, #1
    5352:	4194      	sbcs	r4, r2
    5354:	4330      	orrs	r0, r6
    5356:	4698      	mov	r8, r3
    5358:	2600      	movs	r6, #0
    535a:	4304      	orrs	r4, r0
    535c:	0763      	lsls	r3, r4, #29
    535e:	d009      	beq.n	5374 <__aeabi_dsub+0x120>
    5360:	230f      	movs	r3, #15
    5362:	4023      	ands	r3, r4
    5364:	2b04      	cmp	r3, #4
    5366:	d005      	beq.n	5374 <__aeabi_dsub+0x120>
    5368:	1d23      	adds	r3, r4, #4
    536a:	42a3      	cmp	r3, r4
    536c:	41a4      	sbcs	r4, r4
    536e:	4264      	negs	r4, r4
    5370:	44a0      	add	r8, r4
    5372:	001c      	movs	r4, r3
    5374:	4643      	mov	r3, r8
    5376:	021b      	lsls	r3, r3, #8
    5378:	d400      	bmi.n	537c <__aeabi_dsub+0x128>
    537a:	e0df      	b.n	553c <__aeabi_dsub+0x2e8>
    537c:	4b82      	ldr	r3, [pc, #520]	; (5588 <__aeabi_dsub+0x334>)
    537e:	3601      	adds	r6, #1
    5380:	429e      	cmp	r6, r3
    5382:	d100      	bne.n	5386 <__aeabi_dsub+0x132>
    5384:	e0fb      	b.n	557e <__aeabi_dsub+0x32a>
    5386:	4642      	mov	r2, r8
    5388:	4b80      	ldr	r3, [pc, #512]	; (558c <__aeabi_dsub+0x338>)
    538a:	08e4      	lsrs	r4, r4, #3
    538c:	401a      	ands	r2, r3
    538e:	0013      	movs	r3, r2
    5390:	0571      	lsls	r1, r6, #21
    5392:	0752      	lsls	r2, r2, #29
    5394:	025b      	lsls	r3, r3, #9
    5396:	4322      	orrs	r2, r4
    5398:	0b1b      	lsrs	r3, r3, #12
    539a:	0d49      	lsrs	r1, r1, #21
    539c:	0509      	lsls	r1, r1, #20
    539e:	07ed      	lsls	r5, r5, #31
    53a0:	4319      	orrs	r1, r3
    53a2:	4329      	orrs	r1, r5
    53a4:	0010      	movs	r0, r2
    53a6:	bc3c      	pop	{r2, r3, r4, r5}
    53a8:	4690      	mov	r8, r2
    53aa:	4699      	mov	r9, r3
    53ac:	46a2      	mov	sl, r4
    53ae:	46ab      	mov	fp, r5
    53b0:	bdf8      	pop	{r3, r4, r5, r6, r7, pc}
    53b2:	1ab4      	subs	r4, r6, r2
    53b4:	46a4      	mov	ip, r4
    53b6:	2c00      	cmp	r4, #0
    53b8:	dd58      	ble.n	546c <__aeabi_dsub+0x218>
    53ba:	2a00      	cmp	r2, #0
    53bc:	d100      	bne.n	53c0 <__aeabi_dsub+0x16c>
    53be:	e09e      	b.n	54fe <__aeabi_dsub+0x2aa>
    53c0:	4a71      	ldr	r2, [pc, #452]	; (5588 <__aeabi_dsub+0x334>)
    53c2:	4296      	cmp	r6, r2
    53c4:	d100      	bne.n	53c8 <__aeabi_dsub+0x174>
    53c6:	e13b      	b.n	5640 <__aeabi_dsub+0x3ec>
    53c8:	2280      	movs	r2, #128	; 0x80
    53ca:	0412      	lsls	r2, r2, #16
    53cc:	4311      	orrs	r1, r2
    53ce:	4662      	mov	r2, ip
    53d0:	2a38      	cmp	r2, #56	; 0x38
    53d2:	dd00      	ble.n	53d6 <__aeabi_dsub+0x182>
    53d4:	e0c1      	b.n	555a <__aeabi_dsub+0x306>
    53d6:	2a1f      	cmp	r2, #31
    53d8:	dc00      	bgt.n	53dc <__aeabi_dsub+0x188>
    53da:	e1bb      	b.n	5754 <__aeabi_dsub+0x500>
    53dc:	000c      	movs	r4, r1
    53de:	3a20      	subs	r2, #32
    53e0:	40d4      	lsrs	r4, r2
    53e2:	0022      	movs	r2, r4
    53e4:	4664      	mov	r4, ip
    53e6:	2c20      	cmp	r4, #32
    53e8:	d004      	beq.n	53f4 <__aeabi_dsub+0x1a0>
    53ea:	2740      	movs	r7, #64	; 0x40
    53ec:	1b3f      	subs	r7, r7, r4
    53ee:	40b9      	lsls	r1, r7
    53f0:	4308      	orrs	r0, r1
    53f2:	4680      	mov	r8, r0
    53f4:	4644      	mov	r4, r8
    53f6:	1e61      	subs	r1, r4, #1
    53f8:	418c      	sbcs	r4, r1
    53fa:	4314      	orrs	r4, r2
    53fc:	e0b1      	b.n	5562 <__aeabi_dsub+0x30e>
    53fe:	000c      	movs	r4, r1
    5400:	4304      	orrs	r4, r0
    5402:	d02a      	beq.n	545a <__aeabi_dsub+0x206>
    5404:	46bb      	mov	fp, r7
    5406:	42bd      	cmp	r5, r7
    5408:	d02d      	beq.n	5466 <__aeabi_dsub+0x212>
    540a:	4c61      	ldr	r4, [pc, #388]	; (5590 <__aeabi_dsub+0x33c>)
    540c:	46a4      	mov	ip, r4
    540e:	44b4      	add	ip, r6
    5410:	4664      	mov	r4, ip
    5412:	2c00      	cmp	r4, #0
    5414:	d05c      	beq.n	54d0 <__aeabi_dsub+0x27c>
    5416:	1b94      	subs	r4, r2, r6
    5418:	46a4      	mov	ip, r4
    541a:	2e00      	cmp	r6, #0
    541c:	d000      	beq.n	5420 <__aeabi_dsub+0x1cc>
    541e:	e115      	b.n	564c <__aeabi_dsub+0x3f8>
    5420:	464d      	mov	r5, r9
    5422:	431d      	orrs	r5, r3
    5424:	d100      	bne.n	5428 <__aeabi_dsub+0x1d4>
    5426:	e1c3      	b.n	57b0 <__aeabi_dsub+0x55c>
    5428:	1e65      	subs	r5, r4, #1
    542a:	2c01      	cmp	r4, #1
    542c:	d100      	bne.n	5430 <__aeabi_dsub+0x1dc>
    542e:	e20c      	b.n	584a <__aeabi_dsub+0x5f6>
    5430:	4e55      	ldr	r6, [pc, #340]	; (5588 <__aeabi_dsub+0x334>)
    5432:	42b4      	cmp	r4, r6
    5434:	d100      	bne.n	5438 <__aeabi_dsub+0x1e4>
    5436:	e1f8      	b.n	582a <__aeabi_dsub+0x5d6>
    5438:	46ac      	mov	ip, r5
    543a:	e10e      	b.n	565a <__aeabi_dsub+0x406>
    543c:	000a      	movs	r2, r1
    543e:	4302      	orrs	r2, r0
    5440:	d100      	bne.n	5444 <__aeabi_dsub+0x1f0>
    5442:	e136      	b.n	56b2 <__aeabi_dsub+0x45e>
    5444:	0022      	movs	r2, r4
    5446:	3a01      	subs	r2, #1
    5448:	2c01      	cmp	r4, #1
    544a:	d100      	bne.n	544e <__aeabi_dsub+0x1fa>
    544c:	e1c6      	b.n	57dc <__aeabi_dsub+0x588>
    544e:	4c4e      	ldr	r4, [pc, #312]	; (5588 <__aeabi_dsub+0x334>)
    5450:	45a4      	cmp	ip, r4
    5452:	d100      	bne.n	5456 <__aeabi_dsub+0x202>
    5454:	e0f4      	b.n	5640 <__aeabi_dsub+0x3ec>
    5456:	4694      	mov	ip, r2
    5458:	e731      	b.n	52be <__aeabi_dsub+0x6a>
    545a:	2401      	movs	r4, #1
    545c:	4067      	eors	r7, r4
    545e:	46bb      	mov	fp, r7
    5460:	42bd      	cmp	r5, r7
    5462:	d000      	beq.n	5466 <__aeabi_dsub+0x212>
    5464:	e71c      	b.n	52a0 <__aeabi_dsub+0x4c>
    5466:	4c4a      	ldr	r4, [pc, #296]	; (5590 <__aeabi_dsub+0x33c>)
    5468:	46a4      	mov	ip, r4
    546a:	44b4      	add	ip, r6
    546c:	4664      	mov	r4, ip
    546e:	2c00      	cmp	r4, #0
    5470:	d100      	bne.n	5474 <__aeabi_dsub+0x220>
    5472:	e0cf      	b.n	5614 <__aeabi_dsub+0x3c0>
    5474:	1b94      	subs	r4, r2, r6
    5476:	46a4      	mov	ip, r4
    5478:	2e00      	cmp	r6, #0
    547a:	d100      	bne.n	547e <__aeabi_dsub+0x22a>
    547c:	e15c      	b.n	5738 <__aeabi_dsub+0x4e4>
    547e:	4e42      	ldr	r6, [pc, #264]	; (5588 <__aeabi_dsub+0x334>)
    5480:	42b2      	cmp	r2, r6
    5482:	d100      	bne.n	5486 <__aeabi_dsub+0x232>
    5484:	e1ec      	b.n	5860 <__aeabi_dsub+0x60c>
    5486:	2680      	movs	r6, #128	; 0x80
    5488:	0436      	lsls	r6, r6, #16
    548a:	4333      	orrs	r3, r6
    548c:	4664      	mov	r4, ip
    548e:	2c38      	cmp	r4, #56	; 0x38
    5490:	dd00      	ble.n	5494 <__aeabi_dsub+0x240>
    5492:	e1b3      	b.n	57fc <__aeabi_dsub+0x5a8>
    5494:	2c1f      	cmp	r4, #31
    5496:	dd00      	ble.n	549a <__aeabi_dsub+0x246>
    5498:	e238      	b.n	590c <__aeabi_dsub+0x6b8>
    549a:	2620      	movs	r6, #32
    549c:	1b36      	subs	r6, r6, r4
    549e:	001c      	movs	r4, r3
    54a0:	40b4      	lsls	r4, r6
    54a2:	464f      	mov	r7, r9
    54a4:	46a0      	mov	r8, r4
    54a6:	4664      	mov	r4, ip
    54a8:	40e7      	lsrs	r7, r4
    54aa:	4644      	mov	r4, r8
    54ac:	433c      	orrs	r4, r7
    54ae:	464f      	mov	r7, r9
    54b0:	40b7      	lsls	r7, r6
    54b2:	003e      	movs	r6, r7
    54b4:	1e77      	subs	r7, r6, #1
    54b6:	41be      	sbcs	r6, r7
    54b8:	4334      	orrs	r4, r6
    54ba:	4666      	mov	r6, ip
    54bc:	40f3      	lsrs	r3, r6
    54be:	18c9      	adds	r1, r1, r3
    54c0:	1824      	adds	r4, r4, r0
    54c2:	4284      	cmp	r4, r0
    54c4:	419b      	sbcs	r3, r3
    54c6:	425b      	negs	r3, r3
    54c8:	4698      	mov	r8, r3
    54ca:	0016      	movs	r6, r2
    54cc:	4488      	add	r8, r1
    54ce:	e04e      	b.n	556e <__aeabi_dsub+0x31a>
    54d0:	4a30      	ldr	r2, [pc, #192]	; (5594 <__aeabi_dsub+0x340>)
    54d2:	1c74      	adds	r4, r6, #1
    54d4:	4214      	tst	r4, r2
    54d6:	d000      	beq.n	54da <__aeabi_dsub+0x286>
    54d8:	e0d6      	b.n	5688 <__aeabi_dsub+0x434>
    54da:	464a      	mov	r2, r9
    54dc:	431a      	orrs	r2, r3
    54de:	2e00      	cmp	r6, #0
    54e0:	d000      	beq.n	54e4 <__aeabi_dsub+0x290>
    54e2:	e15b      	b.n	579c <__aeabi_dsub+0x548>
    54e4:	2a00      	cmp	r2, #0
    54e6:	d100      	bne.n	54ea <__aeabi_dsub+0x296>
    54e8:	e1a5      	b.n	5836 <__aeabi_dsub+0x5e2>
    54ea:	000a      	movs	r2, r1
    54ec:	4302      	orrs	r2, r0
    54ee:	d000      	beq.n	54f2 <__aeabi_dsub+0x29e>
    54f0:	e1bb      	b.n	586a <__aeabi_dsub+0x616>
    54f2:	464a      	mov	r2, r9
    54f4:	0759      	lsls	r1, r3, #29
    54f6:	08d2      	lsrs	r2, r2, #3
    54f8:	430a      	orrs	r2, r1
    54fa:	08db      	lsrs	r3, r3, #3
    54fc:	e027      	b.n	554e <__aeabi_dsub+0x2fa>
    54fe:	000a      	movs	r2, r1
    5500:	4302      	orrs	r2, r0
    5502:	d100      	bne.n	5506 <__aeabi_dsub+0x2b2>
    5504:	e174      	b.n	57f0 <__aeabi_dsub+0x59c>
    5506:	0022      	movs	r2, r4
    5508:	3a01      	subs	r2, #1
    550a:	2c01      	cmp	r4, #1
    550c:	d005      	beq.n	551a <__aeabi_dsub+0x2c6>
    550e:	4c1e      	ldr	r4, [pc, #120]	; (5588 <__aeabi_dsub+0x334>)
    5510:	45a4      	cmp	ip, r4
    5512:	d100      	bne.n	5516 <__aeabi_dsub+0x2c2>
    5514:	e094      	b.n	5640 <__aeabi_dsub+0x3ec>
    5516:	4694      	mov	ip, r2
    5518:	e759      	b.n	53ce <__aeabi_dsub+0x17a>
    551a:	4448      	add	r0, r9
    551c:	4548      	cmp	r0, r9
    551e:	4192      	sbcs	r2, r2
    5520:	185b      	adds	r3, r3, r1
    5522:	4698      	mov	r8, r3
    5524:	0004      	movs	r4, r0
    5526:	4252      	negs	r2, r2
    5528:	4490      	add	r8, r2
    552a:	4643      	mov	r3, r8
    552c:	2602      	movs	r6, #2
    552e:	021b      	lsls	r3, r3, #8
    5530:	d500      	bpl.n	5534 <__aeabi_dsub+0x2e0>
    5532:	e0c4      	b.n	56be <__aeabi_dsub+0x46a>
    5534:	3e01      	subs	r6, #1
    5536:	0763      	lsls	r3, r4, #29
    5538:	d000      	beq.n	553c <__aeabi_dsub+0x2e8>
    553a:	e711      	b.n	5360 <__aeabi_dsub+0x10c>
    553c:	4643      	mov	r3, r8
    553e:	46b4      	mov	ip, r6
    5540:	0759      	lsls	r1, r3, #29
    5542:	08e2      	lsrs	r2, r4, #3
    5544:	430a      	orrs	r2, r1
    5546:	08db      	lsrs	r3, r3, #3
    5548:	490f      	ldr	r1, [pc, #60]	; (5588 <__aeabi_dsub+0x334>)
    554a:	458c      	cmp	ip, r1
    554c:	d040      	beq.n	55d0 <__aeabi_dsub+0x37c>
    554e:	4661      	mov	r1, ip
    5550:	031b      	lsls	r3, r3, #12
    5552:	0549      	lsls	r1, r1, #21
    5554:	0b1b      	lsrs	r3, r3, #12
    5556:	0d49      	lsrs	r1, r1, #21
    5558:	e720      	b.n	539c <__aeabi_dsub+0x148>
    555a:	4301      	orrs	r1, r0
    555c:	000c      	movs	r4, r1
    555e:	1e61      	subs	r1, r4, #1
    5560:	418c      	sbcs	r4, r1
    5562:	444c      	add	r4, r9
    5564:	454c      	cmp	r4, r9
    5566:	4192      	sbcs	r2, r2
    5568:	4252      	negs	r2, r2
    556a:	4690      	mov	r8, r2
    556c:	4498      	add	r8, r3
    556e:	4643      	mov	r3, r8
    5570:	021b      	lsls	r3, r3, #8
    5572:	d5e0      	bpl.n	5536 <__aeabi_dsub+0x2e2>
    5574:	4b04      	ldr	r3, [pc, #16]	; (5588 <__aeabi_dsub+0x334>)
    5576:	3601      	adds	r6, #1
    5578:	429e      	cmp	r6, r3
    557a:	d000      	beq.n	557e <__aeabi_dsub+0x32a>
    557c:	e09f      	b.n	56be <__aeabi_dsub+0x46a>
    557e:	0031      	movs	r1, r6
    5580:	2300      	movs	r3, #0
    5582:	2200      	movs	r2, #0
    5584:	e70a      	b.n	539c <__aeabi_dsub+0x148>
    5586:	46c0      	nop			; (mov r8, r8)
    5588:	000007ff 	.word	0x000007ff
    558c:	ff7fffff 	.word	0xff7fffff
    5590:	fffff801 	.word	0xfffff801
    5594:	000007fe 	.word	0x000007fe
    5598:	2a00      	cmp	r2, #0
    559a:	d100      	bne.n	559e <__aeabi_dsub+0x34a>
    559c:	e160      	b.n	5860 <__aeabi_dsub+0x60c>
    559e:	000a      	movs	r2, r1
    55a0:	4302      	orrs	r2, r0
    55a2:	d04d      	beq.n	5640 <__aeabi_dsub+0x3ec>
    55a4:	464a      	mov	r2, r9
    55a6:	075c      	lsls	r4, r3, #29
    55a8:	08d2      	lsrs	r2, r2, #3
    55aa:	4322      	orrs	r2, r4
    55ac:	2480      	movs	r4, #128	; 0x80
    55ae:	08db      	lsrs	r3, r3, #3
    55b0:	0324      	lsls	r4, r4, #12
    55b2:	4223      	tst	r3, r4
    55b4:	d007      	beq.n	55c6 <__aeabi_dsub+0x372>
    55b6:	08ce      	lsrs	r6, r1, #3
    55b8:	4226      	tst	r6, r4
    55ba:	d104      	bne.n	55c6 <__aeabi_dsub+0x372>
    55bc:	465d      	mov	r5, fp
    55be:	0033      	movs	r3, r6
    55c0:	08c2      	lsrs	r2, r0, #3
    55c2:	0749      	lsls	r1, r1, #29
    55c4:	430a      	orrs	r2, r1
    55c6:	0f51      	lsrs	r1, r2, #29
    55c8:	00d2      	lsls	r2, r2, #3
    55ca:	08d2      	lsrs	r2, r2, #3
    55cc:	0749      	lsls	r1, r1, #29
    55ce:	430a      	orrs	r2, r1
    55d0:	0011      	movs	r1, r2
    55d2:	4319      	orrs	r1, r3
    55d4:	d100      	bne.n	55d8 <__aeabi_dsub+0x384>
    55d6:	e1c8      	b.n	596a <__aeabi_dsub+0x716>
    55d8:	2180      	movs	r1, #128	; 0x80
    55da:	0309      	lsls	r1, r1, #12
    55dc:	430b      	orrs	r3, r1
    55de:	031b      	lsls	r3, r3, #12
    55e0:	49d5      	ldr	r1, [pc, #852]	; (5938 <__aeabi_dsub+0x6e4>)
    55e2:	0b1b      	lsrs	r3, r3, #12
    55e4:	e6da      	b.n	539c <__aeabi_dsub+0x148>
    55e6:	49d5      	ldr	r1, [pc, #852]	; (593c <__aeabi_dsub+0x6e8>)
    55e8:	1ab6      	subs	r6, r6, r2
    55ea:	400b      	ands	r3, r1
    55ec:	4698      	mov	r8, r3
    55ee:	e6b5      	b.n	535c <__aeabi_dsub+0x108>
    55f0:	0020      	movs	r0, r4
    55f2:	f000 fa27 	bl	5a44 <__clzsi2>
    55f6:	0002      	movs	r2, r0
    55f8:	3218      	adds	r2, #24
    55fa:	2a1f      	cmp	r2, #31
    55fc:	dc00      	bgt.n	5600 <__aeabi_dsub+0x3ac>
    55fe:	e68f      	b.n	5320 <__aeabi_dsub+0xcc>
    5600:	0023      	movs	r3, r4
    5602:	3808      	subs	r0, #8
    5604:	4083      	lsls	r3, r0
    5606:	2400      	movs	r4, #0
    5608:	e692      	b.n	5330 <__aeabi_dsub+0xdc>
    560a:	4308      	orrs	r0, r1
    560c:	0002      	movs	r2, r0
    560e:	1e50      	subs	r0, r2, #1
    5610:	4182      	sbcs	r2, r0
    5612:	e66d      	b.n	52f0 <__aeabi_dsub+0x9c>
    5614:	4cca      	ldr	r4, [pc, #808]	; (5940 <__aeabi_dsub+0x6ec>)
    5616:	1c72      	adds	r2, r6, #1
    5618:	4222      	tst	r2, r4
    561a:	d000      	beq.n	561e <__aeabi_dsub+0x3ca>
    561c:	e0ad      	b.n	577a <__aeabi_dsub+0x526>
    561e:	464a      	mov	r2, r9
    5620:	431a      	orrs	r2, r3
    5622:	2e00      	cmp	r6, #0
    5624:	d1b8      	bne.n	5598 <__aeabi_dsub+0x344>
    5626:	2a00      	cmp	r2, #0
    5628:	d100      	bne.n	562c <__aeabi_dsub+0x3d8>
    562a:	e158      	b.n	58de <__aeabi_dsub+0x68a>
    562c:	000a      	movs	r2, r1
    562e:	4302      	orrs	r2, r0
    5630:	d000      	beq.n	5634 <__aeabi_dsub+0x3e0>
    5632:	e159      	b.n	58e8 <__aeabi_dsub+0x694>
    5634:	464a      	mov	r2, r9
    5636:	0759      	lsls	r1, r3, #29
    5638:	08d2      	lsrs	r2, r2, #3
    563a:	430a      	orrs	r2, r1
    563c:	08db      	lsrs	r3, r3, #3
    563e:	e786      	b.n	554e <__aeabi_dsub+0x2fa>
    5640:	464a      	mov	r2, r9
    5642:	0759      	lsls	r1, r3, #29
    5644:	08d2      	lsrs	r2, r2, #3
    5646:	430a      	orrs	r2, r1
    5648:	08db      	lsrs	r3, r3, #3
    564a:	e7c1      	b.n	55d0 <__aeabi_dsub+0x37c>
    564c:	4dba      	ldr	r5, [pc, #744]	; (5938 <__aeabi_dsub+0x6e4>)
    564e:	42aa      	cmp	r2, r5
    5650:	d100      	bne.n	5654 <__aeabi_dsub+0x400>
    5652:	e11e      	b.n	5892 <__aeabi_dsub+0x63e>
    5654:	2580      	movs	r5, #128	; 0x80
    5656:	042d      	lsls	r5, r5, #16
    5658:	432b      	orrs	r3, r5
    565a:	4664      	mov	r4, ip
    565c:	2c38      	cmp	r4, #56	; 0x38
    565e:	dc5d      	bgt.n	571c <__aeabi_dsub+0x4c8>
    5660:	2c1f      	cmp	r4, #31
    5662:	dd00      	ble.n	5666 <__aeabi_dsub+0x412>
    5664:	e0d0      	b.n	5808 <__aeabi_dsub+0x5b4>
    5666:	2520      	movs	r5, #32
    5668:	4667      	mov	r7, ip
    566a:	1b2d      	subs	r5, r5, r4
    566c:	464e      	mov	r6, r9
    566e:	001c      	movs	r4, r3
    5670:	40fe      	lsrs	r6, r7
    5672:	40ac      	lsls	r4, r5
    5674:	4334      	orrs	r4, r6
    5676:	464e      	mov	r6, r9
    5678:	40ae      	lsls	r6, r5
    567a:	0035      	movs	r5, r6
    567c:	40fb      	lsrs	r3, r7
    567e:	1e6e      	subs	r6, r5, #1
    5680:	41b5      	sbcs	r5, r6
    5682:	1ac9      	subs	r1, r1, r3
    5684:	432c      	orrs	r4, r5
    5686:	e04e      	b.n	5726 <__aeabi_dsub+0x4d2>
    5688:	464a      	mov	r2, r9
    568a:	1a14      	subs	r4, r2, r0
    568c:	45a1      	cmp	r9, r4
    568e:	4192      	sbcs	r2, r2
    5690:	4252      	negs	r2, r2
    5692:	4690      	mov	r8, r2
    5694:	1a5f      	subs	r7, r3, r1
    5696:	003a      	movs	r2, r7
    5698:	4647      	mov	r7, r8
    569a:	1bd2      	subs	r2, r2, r7
    569c:	4690      	mov	r8, r2
    569e:	0212      	lsls	r2, r2, #8
    56a0:	d500      	bpl.n	56a4 <__aeabi_dsub+0x450>
    56a2:	e08b      	b.n	57bc <__aeabi_dsub+0x568>
    56a4:	4642      	mov	r2, r8
    56a6:	4322      	orrs	r2, r4
    56a8:	d000      	beq.n	56ac <__aeabi_dsub+0x458>
    56aa:	e630      	b.n	530e <__aeabi_dsub+0xba>
    56ac:	2300      	movs	r3, #0
    56ae:	2500      	movs	r5, #0
    56b0:	e74d      	b.n	554e <__aeabi_dsub+0x2fa>
    56b2:	464a      	mov	r2, r9
    56b4:	0759      	lsls	r1, r3, #29
    56b6:	08d2      	lsrs	r2, r2, #3
    56b8:	430a      	orrs	r2, r1
    56ba:	08db      	lsrs	r3, r3, #3
    56bc:	e744      	b.n	5548 <__aeabi_dsub+0x2f4>
    56be:	4642      	mov	r2, r8
    56c0:	4b9e      	ldr	r3, [pc, #632]	; (593c <__aeabi_dsub+0x6e8>)
    56c2:	0861      	lsrs	r1, r4, #1
    56c4:	401a      	ands	r2, r3
    56c6:	0013      	movs	r3, r2
    56c8:	2201      	movs	r2, #1
    56ca:	4014      	ands	r4, r2
    56cc:	430c      	orrs	r4, r1
    56ce:	07da      	lsls	r2, r3, #31
    56d0:	085b      	lsrs	r3, r3, #1
    56d2:	4698      	mov	r8, r3
    56d4:	4314      	orrs	r4, r2
    56d6:	e641      	b.n	535c <__aeabi_dsub+0x108>
    56d8:	001a      	movs	r2, r3
    56da:	3e1f      	subs	r6, #31
    56dc:	40f2      	lsrs	r2, r6
    56de:	0016      	movs	r6, r2
    56e0:	2920      	cmp	r1, #32
    56e2:	d003      	beq.n	56ec <__aeabi_dsub+0x498>
    56e4:	2240      	movs	r2, #64	; 0x40
    56e6:	1a51      	subs	r1, r2, r1
    56e8:	408b      	lsls	r3, r1
    56ea:	431c      	orrs	r4, r3
    56ec:	1e62      	subs	r2, r4, #1
    56ee:	4194      	sbcs	r4, r2
    56f0:	2300      	movs	r3, #0
    56f2:	4334      	orrs	r4, r6
    56f4:	4698      	mov	r8, r3
    56f6:	2600      	movs	r6, #0
    56f8:	e71d      	b.n	5536 <__aeabi_dsub+0x2e2>
    56fa:	000c      	movs	r4, r1
    56fc:	3a20      	subs	r2, #32
    56fe:	40d4      	lsrs	r4, r2
    5700:	0022      	movs	r2, r4
    5702:	4664      	mov	r4, ip
    5704:	2c20      	cmp	r4, #32
    5706:	d004      	beq.n	5712 <__aeabi_dsub+0x4be>
    5708:	2740      	movs	r7, #64	; 0x40
    570a:	1b3f      	subs	r7, r7, r4
    570c:	40b9      	lsls	r1, r7
    570e:	4308      	orrs	r0, r1
    5710:	4680      	mov	r8, r0
    5712:	4644      	mov	r4, r8
    5714:	1e61      	subs	r1, r4, #1
    5716:	418c      	sbcs	r4, r1
    5718:	4322      	orrs	r2, r4
    571a:	e5e9      	b.n	52f0 <__aeabi_dsub+0x9c>
    571c:	464c      	mov	r4, r9
    571e:	4323      	orrs	r3, r4
    5720:	001c      	movs	r4, r3
    5722:	1e63      	subs	r3, r4, #1
    5724:	419c      	sbcs	r4, r3
    5726:	1b04      	subs	r4, r0, r4
    5728:	42a0      	cmp	r0, r4
    572a:	419b      	sbcs	r3, r3
    572c:	425b      	negs	r3, r3
    572e:	1acb      	subs	r3, r1, r3
    5730:	4698      	mov	r8, r3
    5732:	465d      	mov	r5, fp
    5734:	0016      	movs	r6, r2
    5736:	e5e2      	b.n	52fe <__aeabi_dsub+0xaa>
    5738:	464e      	mov	r6, r9
    573a:	431e      	orrs	r6, r3
    573c:	d100      	bne.n	5740 <__aeabi_dsub+0x4ec>
    573e:	e0ae      	b.n	589e <__aeabi_dsub+0x64a>
    5740:	1e66      	subs	r6, r4, #1
    5742:	2c01      	cmp	r4, #1
    5744:	d100      	bne.n	5748 <__aeabi_dsub+0x4f4>
    5746:	e0fd      	b.n	5944 <__aeabi_dsub+0x6f0>
    5748:	4f7b      	ldr	r7, [pc, #492]	; (5938 <__aeabi_dsub+0x6e4>)
    574a:	42bc      	cmp	r4, r7
    574c:	d100      	bne.n	5750 <__aeabi_dsub+0x4fc>
    574e:	e107      	b.n	5960 <__aeabi_dsub+0x70c>
    5750:	46b4      	mov	ip, r6
    5752:	e69b      	b.n	548c <__aeabi_dsub+0x238>
    5754:	4664      	mov	r4, ip
    5756:	2220      	movs	r2, #32
    5758:	1b12      	subs	r2, r2, r4
    575a:	000c      	movs	r4, r1
    575c:	4094      	lsls	r4, r2
    575e:	0007      	movs	r7, r0
    5760:	4090      	lsls	r0, r2
    5762:	46a0      	mov	r8, r4
    5764:	4664      	mov	r4, ip
    5766:	1e42      	subs	r2, r0, #1
    5768:	4190      	sbcs	r0, r2
    576a:	4662      	mov	r2, ip
    576c:	40e7      	lsrs	r7, r4
    576e:	4644      	mov	r4, r8
    5770:	40d1      	lsrs	r1, r2
    5772:	433c      	orrs	r4, r7
    5774:	4304      	orrs	r4, r0
    5776:	185b      	adds	r3, r3, r1
    5778:	e6f3      	b.n	5562 <__aeabi_dsub+0x30e>
    577a:	4c6f      	ldr	r4, [pc, #444]	; (5938 <__aeabi_dsub+0x6e4>)
    577c:	42a2      	cmp	r2, r4
    577e:	d100      	bne.n	5782 <__aeabi_dsub+0x52e>
    5780:	e0d5      	b.n	592e <__aeabi_dsub+0x6da>
    5782:	4448      	add	r0, r9
    5784:	185b      	adds	r3, r3, r1
    5786:	4548      	cmp	r0, r9
    5788:	4189      	sbcs	r1, r1
    578a:	4249      	negs	r1, r1
    578c:	185b      	adds	r3, r3, r1
    578e:	07dc      	lsls	r4, r3, #31
    5790:	0840      	lsrs	r0, r0, #1
    5792:	085b      	lsrs	r3, r3, #1
    5794:	4698      	mov	r8, r3
    5796:	0016      	movs	r6, r2
    5798:	4304      	orrs	r4, r0
    579a:	e6cc      	b.n	5536 <__aeabi_dsub+0x2e2>
    579c:	2a00      	cmp	r2, #0
    579e:	d000      	beq.n	57a2 <__aeabi_dsub+0x54e>
    57a0:	e082      	b.n	58a8 <__aeabi_dsub+0x654>
    57a2:	000a      	movs	r2, r1
    57a4:	4302      	orrs	r2, r0
    57a6:	d140      	bne.n	582a <__aeabi_dsub+0x5d6>
    57a8:	2380      	movs	r3, #128	; 0x80
    57aa:	2500      	movs	r5, #0
    57ac:	031b      	lsls	r3, r3, #12
    57ae:	e713      	b.n	55d8 <__aeabi_dsub+0x384>
    57b0:	074b      	lsls	r3, r1, #29
    57b2:	08c2      	lsrs	r2, r0, #3
    57b4:	431a      	orrs	r2, r3
    57b6:	465d      	mov	r5, fp
    57b8:	08cb      	lsrs	r3, r1, #3
    57ba:	e6c5      	b.n	5548 <__aeabi_dsub+0x2f4>
    57bc:	464a      	mov	r2, r9
    57be:	1a84      	subs	r4, r0, r2
    57c0:	42a0      	cmp	r0, r4
    57c2:	4192      	sbcs	r2, r2
    57c4:	1acb      	subs	r3, r1, r3
    57c6:	4252      	negs	r2, r2
    57c8:	1a9b      	subs	r3, r3, r2
    57ca:	4698      	mov	r8, r3
    57cc:	465d      	mov	r5, fp
    57ce:	e59e      	b.n	530e <__aeabi_dsub+0xba>
    57d0:	464a      	mov	r2, r9
    57d2:	0759      	lsls	r1, r3, #29
    57d4:	08d2      	lsrs	r2, r2, #3
    57d6:	430a      	orrs	r2, r1
    57d8:	08db      	lsrs	r3, r3, #3
    57da:	e6f9      	b.n	55d0 <__aeabi_dsub+0x37c>
    57dc:	464a      	mov	r2, r9
    57de:	1a14      	subs	r4, r2, r0
    57e0:	45a1      	cmp	r9, r4
    57e2:	4192      	sbcs	r2, r2
    57e4:	1a5b      	subs	r3, r3, r1
    57e6:	4252      	negs	r2, r2
    57e8:	1a9b      	subs	r3, r3, r2
    57ea:	4698      	mov	r8, r3
    57ec:	2601      	movs	r6, #1
    57ee:	e586      	b.n	52fe <__aeabi_dsub+0xaa>
    57f0:	464a      	mov	r2, r9
    57f2:	0759      	lsls	r1, r3, #29
    57f4:	08d2      	lsrs	r2, r2, #3
    57f6:	430a      	orrs	r2, r1
    57f8:	08db      	lsrs	r3, r3, #3
    57fa:	e6a5      	b.n	5548 <__aeabi_dsub+0x2f4>
    57fc:	464c      	mov	r4, r9
    57fe:	4323      	orrs	r3, r4
    5800:	001c      	movs	r4, r3
    5802:	1e63      	subs	r3, r4, #1
    5804:	419c      	sbcs	r4, r3
    5806:	e65b      	b.n	54c0 <__aeabi_dsub+0x26c>
    5808:	4665      	mov	r5, ip
    580a:	001e      	movs	r6, r3
    580c:	3d20      	subs	r5, #32
    580e:	40ee      	lsrs	r6, r5
    5810:	2c20      	cmp	r4, #32
    5812:	d005      	beq.n	5820 <__aeabi_dsub+0x5cc>
    5814:	2540      	movs	r5, #64	; 0x40
    5816:	1b2d      	subs	r5, r5, r4
    5818:	40ab      	lsls	r3, r5
    581a:	464c      	mov	r4, r9
    581c:	431c      	orrs	r4, r3
    581e:	46a2      	mov	sl, r4
    5820:	4654      	mov	r4, sl
    5822:	1e63      	subs	r3, r4, #1
    5824:	419c      	sbcs	r4, r3
    5826:	4334      	orrs	r4, r6
    5828:	e77d      	b.n	5726 <__aeabi_dsub+0x4d2>
    582a:	074b      	lsls	r3, r1, #29
    582c:	08c2      	lsrs	r2, r0, #3
    582e:	431a      	orrs	r2, r3
    5830:	465d      	mov	r5, fp
    5832:	08cb      	lsrs	r3, r1, #3
    5834:	e6cc      	b.n	55d0 <__aeabi_dsub+0x37c>
    5836:	000a      	movs	r2, r1
    5838:	4302      	orrs	r2, r0
    583a:	d100      	bne.n	583e <__aeabi_dsub+0x5ea>
    583c:	e736      	b.n	56ac <__aeabi_dsub+0x458>
    583e:	074b      	lsls	r3, r1, #29
    5840:	08c2      	lsrs	r2, r0, #3
    5842:	431a      	orrs	r2, r3
    5844:	465d      	mov	r5, fp
    5846:	08cb      	lsrs	r3, r1, #3
    5848:	e681      	b.n	554e <__aeabi_dsub+0x2fa>
    584a:	464a      	mov	r2, r9
    584c:	1a84      	subs	r4, r0, r2
    584e:	42a0      	cmp	r0, r4
    5850:	4192      	sbcs	r2, r2
    5852:	1acb      	subs	r3, r1, r3
    5854:	4252      	negs	r2, r2
    5856:	1a9b      	subs	r3, r3, r2
    5858:	4698      	mov	r8, r3
    585a:	465d      	mov	r5, fp
    585c:	2601      	movs	r6, #1
    585e:	e54e      	b.n	52fe <__aeabi_dsub+0xaa>
    5860:	074b      	lsls	r3, r1, #29
    5862:	08c2      	lsrs	r2, r0, #3
    5864:	431a      	orrs	r2, r3
    5866:	08cb      	lsrs	r3, r1, #3
    5868:	e6b2      	b.n	55d0 <__aeabi_dsub+0x37c>
    586a:	464a      	mov	r2, r9
    586c:	1a14      	subs	r4, r2, r0
    586e:	45a1      	cmp	r9, r4
    5870:	4192      	sbcs	r2, r2
    5872:	1a5f      	subs	r7, r3, r1
    5874:	4252      	negs	r2, r2
    5876:	1aba      	subs	r2, r7, r2
    5878:	4690      	mov	r8, r2
    587a:	0212      	lsls	r2, r2, #8
    587c:	d56b      	bpl.n	5956 <__aeabi_dsub+0x702>
    587e:	464a      	mov	r2, r9
    5880:	1a84      	subs	r4, r0, r2
    5882:	42a0      	cmp	r0, r4
    5884:	4192      	sbcs	r2, r2
    5886:	1acb      	subs	r3, r1, r3
    5888:	4252      	negs	r2, r2
    588a:	1a9b      	subs	r3, r3, r2
    588c:	4698      	mov	r8, r3
    588e:	465d      	mov	r5, fp
    5890:	e564      	b.n	535c <__aeabi_dsub+0x108>
    5892:	074b      	lsls	r3, r1, #29
    5894:	08c2      	lsrs	r2, r0, #3
    5896:	431a      	orrs	r2, r3
    5898:	465d      	mov	r5, fp
    589a:	08cb      	lsrs	r3, r1, #3
    589c:	e698      	b.n	55d0 <__aeabi_dsub+0x37c>
    589e:	074b      	lsls	r3, r1, #29
    58a0:	08c2      	lsrs	r2, r0, #3
    58a2:	431a      	orrs	r2, r3
    58a4:	08cb      	lsrs	r3, r1, #3
    58a6:	e64f      	b.n	5548 <__aeabi_dsub+0x2f4>
    58a8:	000a      	movs	r2, r1
    58aa:	4302      	orrs	r2, r0
    58ac:	d090      	beq.n	57d0 <__aeabi_dsub+0x57c>
    58ae:	464a      	mov	r2, r9
    58b0:	075c      	lsls	r4, r3, #29
    58b2:	08d2      	lsrs	r2, r2, #3
    58b4:	4314      	orrs	r4, r2
    58b6:	2280      	movs	r2, #128	; 0x80
    58b8:	08db      	lsrs	r3, r3, #3
    58ba:	0312      	lsls	r2, r2, #12
    58bc:	4213      	tst	r3, r2
    58be:	d008      	beq.n	58d2 <__aeabi_dsub+0x67e>
    58c0:	08ce      	lsrs	r6, r1, #3
    58c2:	4216      	tst	r6, r2
    58c4:	d105      	bne.n	58d2 <__aeabi_dsub+0x67e>
    58c6:	08c0      	lsrs	r0, r0, #3
    58c8:	0749      	lsls	r1, r1, #29
    58ca:	4308      	orrs	r0, r1
    58cc:	0004      	movs	r4, r0
    58ce:	465d      	mov	r5, fp
    58d0:	0033      	movs	r3, r6
    58d2:	0f61      	lsrs	r1, r4, #29
    58d4:	00e2      	lsls	r2, r4, #3
    58d6:	0749      	lsls	r1, r1, #29
    58d8:	08d2      	lsrs	r2, r2, #3
    58da:	430a      	orrs	r2, r1
    58dc:	e678      	b.n	55d0 <__aeabi_dsub+0x37c>
    58de:	074b      	lsls	r3, r1, #29
    58e0:	08c2      	lsrs	r2, r0, #3
    58e2:	431a      	orrs	r2, r3
    58e4:	08cb      	lsrs	r3, r1, #3
    58e6:	e632      	b.n	554e <__aeabi_dsub+0x2fa>
    58e8:	4448      	add	r0, r9
    58ea:	185b      	adds	r3, r3, r1
    58ec:	4548      	cmp	r0, r9
    58ee:	4192      	sbcs	r2, r2
    58f0:	4698      	mov	r8, r3
    58f2:	4252      	negs	r2, r2
    58f4:	4490      	add	r8, r2
    58f6:	4643      	mov	r3, r8
    58f8:	0004      	movs	r4, r0
    58fa:	021b      	lsls	r3, r3, #8
    58fc:	d400      	bmi.n	5900 <__aeabi_dsub+0x6ac>
    58fe:	e61a      	b.n	5536 <__aeabi_dsub+0x2e2>
    5900:	4642      	mov	r2, r8
    5902:	4b0e      	ldr	r3, [pc, #56]	; (593c <__aeabi_dsub+0x6e8>)
    5904:	2601      	movs	r6, #1
    5906:	401a      	ands	r2, r3
    5908:	4690      	mov	r8, r2
    590a:	e614      	b.n	5536 <__aeabi_dsub+0x2e2>
    590c:	4666      	mov	r6, ip
    590e:	001f      	movs	r7, r3
    5910:	3e20      	subs	r6, #32
    5912:	40f7      	lsrs	r7, r6
    5914:	2c20      	cmp	r4, #32
    5916:	d005      	beq.n	5924 <__aeabi_dsub+0x6d0>
    5918:	2640      	movs	r6, #64	; 0x40
    591a:	1b36      	subs	r6, r6, r4
    591c:	40b3      	lsls	r3, r6
    591e:	464c      	mov	r4, r9
    5920:	431c      	orrs	r4, r3
    5922:	46a2      	mov	sl, r4
    5924:	4654      	mov	r4, sl
    5926:	1e63      	subs	r3, r4, #1
    5928:	419c      	sbcs	r4, r3
    592a:	433c      	orrs	r4, r7
    592c:	e5c8      	b.n	54c0 <__aeabi_dsub+0x26c>
    592e:	0011      	movs	r1, r2
    5930:	2300      	movs	r3, #0
    5932:	2200      	movs	r2, #0
    5934:	e532      	b.n	539c <__aeabi_dsub+0x148>
    5936:	46c0      	nop			; (mov r8, r8)
    5938:	000007ff 	.word	0x000007ff
    593c:	ff7fffff 	.word	0xff7fffff
    5940:	000007fe 	.word	0x000007fe
    5944:	464a      	mov	r2, r9
    5946:	1814      	adds	r4, r2, r0
    5948:	4284      	cmp	r4, r0
    594a:	4192      	sbcs	r2, r2
    594c:	185b      	adds	r3, r3, r1
    594e:	4698      	mov	r8, r3
    5950:	4252      	negs	r2, r2
    5952:	4490      	add	r8, r2
    5954:	e5e9      	b.n	552a <__aeabi_dsub+0x2d6>
    5956:	4642      	mov	r2, r8
    5958:	4322      	orrs	r2, r4
    595a:	d100      	bne.n	595e <__aeabi_dsub+0x70a>
    595c:	e6a6      	b.n	56ac <__aeabi_dsub+0x458>
    595e:	e5ea      	b.n	5536 <__aeabi_dsub+0x2e2>
    5960:	074b      	lsls	r3, r1, #29
    5962:	08c2      	lsrs	r2, r0, #3
    5964:	431a      	orrs	r2, r3
    5966:	08cb      	lsrs	r3, r1, #3
    5968:	e632      	b.n	55d0 <__aeabi_dsub+0x37c>
    596a:	2200      	movs	r2, #0
    596c:	4901      	ldr	r1, [pc, #4]	; (5974 <__aeabi_dsub+0x720>)
    596e:	0013      	movs	r3, r2
    5970:	e514      	b.n	539c <__aeabi_dsub+0x148>
    5972:	46c0      	nop			; (mov r8, r8)
    5974:	000007ff 	.word	0x000007ff

00005978 <__aeabi_d2iz>:
    5978:	000a      	movs	r2, r1
    597a:	b530      	push	{r4, r5, lr}
    597c:	4c13      	ldr	r4, [pc, #76]	; (59cc <__aeabi_d2iz+0x54>)
    597e:	0053      	lsls	r3, r2, #1
    5980:	0309      	lsls	r1, r1, #12
    5982:	0005      	movs	r5, r0
    5984:	0b09      	lsrs	r1, r1, #12
    5986:	2000      	movs	r0, #0
    5988:	0d5b      	lsrs	r3, r3, #21
    598a:	0fd2      	lsrs	r2, r2, #31
    598c:	42a3      	cmp	r3, r4
    598e:	dd04      	ble.n	599a <__aeabi_d2iz+0x22>
    5990:	480f      	ldr	r0, [pc, #60]	; (59d0 <__aeabi_d2iz+0x58>)
    5992:	4283      	cmp	r3, r0
    5994:	dd02      	ble.n	599c <__aeabi_d2iz+0x24>
    5996:	4b0f      	ldr	r3, [pc, #60]	; (59d4 <__aeabi_d2iz+0x5c>)
    5998:	18d0      	adds	r0, r2, r3
    599a:	bd30      	pop	{r4, r5, pc}
    599c:	2080      	movs	r0, #128	; 0x80
    599e:	0340      	lsls	r0, r0, #13
    59a0:	4301      	orrs	r1, r0
    59a2:	480d      	ldr	r0, [pc, #52]	; (59d8 <__aeabi_d2iz+0x60>)
    59a4:	1ac0      	subs	r0, r0, r3
    59a6:	281f      	cmp	r0, #31
    59a8:	dd08      	ble.n	59bc <__aeabi_d2iz+0x44>
    59aa:	480c      	ldr	r0, [pc, #48]	; (59dc <__aeabi_d2iz+0x64>)
    59ac:	1ac3      	subs	r3, r0, r3
    59ae:	40d9      	lsrs	r1, r3
    59b0:	000b      	movs	r3, r1
    59b2:	4258      	negs	r0, r3
    59b4:	2a00      	cmp	r2, #0
    59b6:	d1f0      	bne.n	599a <__aeabi_d2iz+0x22>
    59b8:	0018      	movs	r0, r3
    59ba:	e7ee      	b.n	599a <__aeabi_d2iz+0x22>
    59bc:	4c08      	ldr	r4, [pc, #32]	; (59e0 <__aeabi_d2iz+0x68>)
    59be:	40c5      	lsrs	r5, r0
    59c0:	46a4      	mov	ip, r4
    59c2:	4463      	add	r3, ip
    59c4:	4099      	lsls	r1, r3
    59c6:	000b      	movs	r3, r1
    59c8:	432b      	orrs	r3, r5
    59ca:	e7f2      	b.n	59b2 <__aeabi_d2iz+0x3a>
    59cc:	000003fe 	.word	0x000003fe
    59d0:	0000041d 	.word	0x0000041d
    59d4:	7fffffff 	.word	0x7fffffff
    59d8:	00000433 	.word	0x00000433
    59dc:	00000413 	.word	0x00000413
    59e0:	fffffbed 	.word	0xfffffbed

000059e4 <__aeabi_i2d>:
    59e4:	b570      	push	{r4, r5, r6, lr}
    59e6:	2800      	cmp	r0, #0
    59e8:	d016      	beq.n	5a18 <__aeabi_i2d+0x34>
    59ea:	17c3      	asrs	r3, r0, #31
    59ec:	18c5      	adds	r5, r0, r3
    59ee:	405d      	eors	r5, r3
    59f0:	0fc4      	lsrs	r4, r0, #31
    59f2:	0028      	movs	r0, r5
    59f4:	f000 f826 	bl	5a44 <__clzsi2>
    59f8:	4a11      	ldr	r2, [pc, #68]	; (5a40 <__aeabi_i2d+0x5c>)
    59fa:	1a12      	subs	r2, r2, r0
    59fc:	280a      	cmp	r0, #10
    59fe:	dc16      	bgt.n	5a2e <__aeabi_i2d+0x4a>
    5a00:	0003      	movs	r3, r0
    5a02:	002e      	movs	r6, r5
    5a04:	3315      	adds	r3, #21
    5a06:	409e      	lsls	r6, r3
    5a08:	230b      	movs	r3, #11
    5a0a:	1a18      	subs	r0, r3, r0
    5a0c:	40c5      	lsrs	r5, r0
    5a0e:	0553      	lsls	r3, r2, #21
    5a10:	032d      	lsls	r5, r5, #12
    5a12:	0b2d      	lsrs	r5, r5, #12
    5a14:	0d5b      	lsrs	r3, r3, #21
    5a16:	e003      	b.n	5a20 <__aeabi_i2d+0x3c>
    5a18:	2400      	movs	r4, #0
    5a1a:	2300      	movs	r3, #0
    5a1c:	2500      	movs	r5, #0
    5a1e:	2600      	movs	r6, #0
    5a20:	051b      	lsls	r3, r3, #20
    5a22:	432b      	orrs	r3, r5
    5a24:	07e4      	lsls	r4, r4, #31
    5a26:	4323      	orrs	r3, r4
    5a28:	0030      	movs	r0, r6
    5a2a:	0019      	movs	r1, r3
    5a2c:	bd70      	pop	{r4, r5, r6, pc}
    5a2e:	380b      	subs	r0, #11
    5a30:	4085      	lsls	r5, r0
    5a32:	0553      	lsls	r3, r2, #21
    5a34:	032d      	lsls	r5, r5, #12
    5a36:	2600      	movs	r6, #0
    5a38:	0b2d      	lsrs	r5, r5, #12
    5a3a:	0d5b      	lsrs	r3, r3, #21
    5a3c:	e7f0      	b.n	5a20 <__aeabi_i2d+0x3c>
    5a3e:	46c0      	nop			; (mov r8, r8)
    5a40:	0000041e 	.word	0x0000041e

00005a44 <__clzsi2>:
    5a44:	211c      	movs	r1, #28
    5a46:	2301      	movs	r3, #1
    5a48:	041b      	lsls	r3, r3, #16
    5a4a:	4298      	cmp	r0, r3
    5a4c:	d301      	bcc.n	5a52 <__clzsi2+0xe>
    5a4e:	0c00      	lsrs	r0, r0, #16
    5a50:	3910      	subs	r1, #16
    5a52:	0a1b      	lsrs	r3, r3, #8
    5a54:	4298      	cmp	r0, r3
    5a56:	d301      	bcc.n	5a5c <__clzsi2+0x18>
    5a58:	0a00      	lsrs	r0, r0, #8
    5a5a:	3908      	subs	r1, #8
    5a5c:	091b      	lsrs	r3, r3, #4
    5a5e:	4298      	cmp	r0, r3
    5a60:	d301      	bcc.n	5a66 <__clzsi2+0x22>
    5a62:	0900      	lsrs	r0, r0, #4
    5a64:	3904      	subs	r1, #4
    5a66:	a202      	add	r2, pc, #8	; (adr r2, 5a70 <__clzsi2+0x2c>)
    5a68:	5c10      	ldrb	r0, [r2, r0]
    5a6a:	1840      	adds	r0, r0, r1
    5a6c:	4770      	bx	lr
    5a6e:	46c0      	nop			; (mov r8, r8)
    5a70:	02020304 	.word	0x02020304
    5a74:	01010101 	.word	0x01010101
	...

00005a80 <_close>:
    5a80:	2258      	movs	r2, #88	; 0x58
    5a82:	2001      	movs	r0, #1
    5a84:	4b01      	ldr	r3, [pc, #4]	; (5a8c <_close+0xc>)
    5a86:	4240      	negs	r0, r0
    5a88:	601a      	str	r2, [r3, #0]
    5a8a:	4770      	bx	lr
    5a8c:	2000011c 	.word	0x2000011c

00005a90 <_fstat>:
    5a90:	2258      	movs	r2, #88	; 0x58
    5a92:	2001      	movs	r0, #1
    5a94:	4b01      	ldr	r3, [pc, #4]	; (5a9c <_fstat+0xc>)
    5a96:	4240      	negs	r0, r0
    5a98:	601a      	str	r2, [r3, #0]
    5a9a:	4770      	bx	lr
    5a9c:	2000011c 	.word	0x2000011c

00005aa0 <_getpid>:
    5aa0:	2258      	movs	r2, #88	; 0x58
    5aa2:	2001      	movs	r0, #1
    5aa4:	4b01      	ldr	r3, [pc, #4]	; (5aac <_getpid+0xc>)
    5aa6:	4240      	negs	r0, r0
    5aa8:	601a      	str	r2, [r3, #0]
    5aaa:	4770      	bx	lr
    5aac:	2000011c 	.word	0x2000011c

00005ab0 <_isatty>:
    5ab0:	2258      	movs	r2, #88	; 0x58
    5ab2:	4b02      	ldr	r3, [pc, #8]	; (5abc <_isatty+0xc>)
    5ab4:	2000      	movs	r0, #0
    5ab6:	601a      	str	r2, [r3, #0]
    5ab8:	4770      	bx	lr
    5aba:	46c0      	nop			; (mov r8, r8)
    5abc:	2000011c 	.word	0x2000011c

00005ac0 <_kill>:
    5ac0:	2258      	movs	r2, #88	; 0x58
    5ac2:	2001      	movs	r0, #1
    5ac4:	4b01      	ldr	r3, [pc, #4]	; (5acc <_kill+0xc>)
    5ac6:	4240      	negs	r0, r0
    5ac8:	601a      	str	r2, [r3, #0]
    5aca:	4770      	bx	lr
    5acc:	2000011c 	.word	0x2000011c

00005ad0 <_lseek>:
    5ad0:	2258      	movs	r2, #88	; 0x58
    5ad2:	2001      	movs	r0, #1
    5ad4:	4b01      	ldr	r3, [pc, #4]	; (5adc <_lseek+0xc>)
    5ad6:	4240      	negs	r0, r0
    5ad8:	601a      	str	r2, [r3, #0]
    5ada:	4770      	bx	lr
    5adc:	2000011c 	.word	0x2000011c

00005ae0 <_sbrk>:
    5ae0:	4a04      	ldr	r2, [pc, #16]	; (5af4 <_sbrk+0x14>)
    5ae2:	0003      	movs	r3, r0
    5ae4:	6810      	ldr	r0, [r2, #0]
    5ae6:	2800      	cmp	r0, #0
    5ae8:	d002      	beq.n	5af0 <_sbrk+0x10>
    5aea:	18c3      	adds	r3, r0, r3
    5aec:	6013      	str	r3, [r2, #0]
    5aee:	4770      	bx	lr
    5af0:	4801      	ldr	r0, [pc, #4]	; (5af8 <_sbrk+0x18>)
    5af2:	e7fa      	b.n	5aea <_sbrk+0xa>
    5af4:	20000104 	.word	0x20000104
    5af8:	20000120 	.word	0x20000120

00005afc <_exit>:
    5afc:	e7fe      	b.n	5afc <_exit>
    5afe:	46c0      	nop			; (mov r8, r8)

00005b00 <_init>:
    5b00:	b5f8      	push	{r3, r4, r5, r6, r7, lr}
    5b02:	46c0      	nop			; (mov r8, r8)
    5b04:	bcf8      	pop	{r3, r4, r5, r6, r7}
    5b06:	bc08      	pop	{r3}
    5b08:	469e      	mov	lr, r3
    5b0a:	4770      	bx	lr

00005b0c <_fini>:
    5b0c:	b5f8      	push	{r3, r4, r5, r6, r7, lr}
    5b0e:	46c0      	nop			; (mov r8, r8)
    5b10:	bcf8      	pop	{r3, r4, r5, r6, r7}
    5b12:	bc08      	pop	{r3}
    5b14:	469e      	mov	lr, r3
    5b16:	4770      	bx	lr

00005b18 <twi>:
    5b18:	3000 4000                                   .0.@

00005b1c <timeout>:
    5b1c:	0064 0000                                   d...

00005b20 <timer>:
    5b20:	8000 4000                                   ...@

00005b24 <timer>:
    5b24:	a000 4000 7770 5f6d 6863 6e61 656e 5f6c     ...@pwm_channel_
    5b34:	6e69 6564 2078 203c 0033 0000 696d 7263     index < 3...micr
    5b44:	626f 7469 702f 6d77 632e 0000               obit/pwm.c..

00005b50 <__func__.7101>:
    5b50:	7770 5f6d 6863 6e61 656e 5f6c 6e69 7469     pwm_channel_init
    5b60:	0000 0000                                   ....

00005b64 <__func__.7106>:
    5b64:	7770 5f6d 6573 5f74 7570 736c 5f65 6977     pwm_set_pulse_wi
    5b74:	7464 0068 0202 0000 0003 0000 6e61 6c61     dth.........anal
    5b84:	676f 695f 706e 7475 505f 2032 3d3c 6120     og_input_P2 <= a
    5b94:	616e 6f6c 5f67 6e69 7570 2074 2626 6120     nalog_input && a
    5ba4:	616e 6f6c 5f67 6e69 7570 2074 3d3c 6120     nalog_input <= a
    5bb4:	616e 6f6c 5f67 6e69 7570 5f74 3150 0030     nalog_input_P10.
    5bc4:	696d 7263 626f 7469 612f 6364 632e 0000     microbit/adc.c..

00005bd4 <__func__.6580>:
    5bd4:	6461 5f63 6567 5f74 6176 756c 0065 0000     adc_get_value...

00005be4 <input_enum_map.6579>:
    5be4:	0201 0804 2010 8040 7562 7474 6e6f 3d20     ..... @.button =
    5bf4:	203d 7562 7474 6e6f 615f 7c20 207c 7562     = button_a || bu
    5c04:	7474 6e6f 3d20 203d 7562 7474 6e6f 625f     tton == button_b
    5c14:	0000 0000 696d 7263 626f 7469 622f 7475     ....microbit/but
    5c24:	6f74 2e6e 0063 0000                         ton.c...

00005c2c <__func__.6711>:
    5c2c:	7562 7474 6e6f 675f 7465 735f 6174 6574     button_get_state
    5c3c:	0000 0000                                   ....

00005c40 <led_col_gpios>:
    5c40:	0004 0000 0005 0000 0006 0000 0007 0000     ................
    5c50:	0008 0000 0009 0000 000a 0000 000b 0000     ................
    5c60:	000c 0000                                   ....

00005c64 <led_row_gpios>:
    5c64:	000d 0000 000e 0000 000f 0000               ............

00005c70 <led_col_counts>:
    5c70:	0009 0000 0007 0000 0009 0000               ............

00005c7c <led_index_lut>:
    5c7c:	0000 0000 0002 0000 0004 0000 0013 0000     ................
    5c8c:	0012 0000 0011 0000 0010 0000 000f 0000     ................
    5c9c:	000b 0000 000e 0000 000a 0000 000c 0000     ................
    5cac:	0001 0000 0003 0000 0017 0000 0015 0000     ................
    5cbc:	0016 0000 0018 0000 0014 0000 0005 0000     ................
    5ccc:	0006 0000 0007 0000 0008 0000 0009 0000     ................
    5cdc:	000d 0000 2078 203c 2035 2626 7920 3c20     ....x < 5 && y <
    5cec:	3520 0000 696d 7263 626f 7469 6c2f 6465      5..microbit/led
    5cfc:	6d5f 7461 6972 2e78 0063 0000               _matrix.c...

00005d08 <__func__.6742>:
    5d08:	656c 5f64 616d 7274 7869 735f 7465 735f     led_matrix_set_s
    5d18:	6174 6574 0000 0000 614d 6e67 7465 6d6f     tate....Magnetom
    5d28:	7465 7265 5820 253a 0969 3a59 6925 5a09     eter X:%i.Y:%i.Z
    5d38:	253a 0a69 000d 0000 3a4a 5409 5255 5f4e     :%i.....J:.TURN_
    5d48:	4952 4847 5f54 4f43 4544 000d 3a42 5409     RIGHT_CODE..B:.T
    5d58:	5255 5f4e 454c 5446 435f 444f 0d45 0000     URN_LEFT_CODE...
    5d68:	6e55 6e6b 776f 206e 6f4d 7372 2065 6f43     Unknown Morse Co
    5d78:	6564 0d21 0000 0000 1c02 0000 1c9c 0000     de!.............
    5d88:	1ce6 0000 1cfc 0000 1d12 0000 1d26 0000     ............&...
    5d98:	1da6 0000 7453 7461 3a65 2520 0a69 000d     ....State: %i...
    5da8:	614d 4f67 6972 6e65 6174 6974 6e6f 203a     MagOrientation: 
    5db8:	6925 0d0a 0000 0000 614d 6e67 7465 6d6f     %i......Magnetom
    5dc8:	7465 7265 203a 6925 0d0a 0000 219e 0000     eter: %i.....!..
    5dd8:	21cc 0000 21ec 0000 2218 0000 229e 0000     .!...!..."..."..
    5de8:	223c 0000 2242 0000 227a 0000 228a 0000     <"..B"..z"..."..
    5df8:	2298 0000 6142 7272 6569 2072 6964 7473     ."..Barrier dist
    5e08:	6e61 6563 203a 6c25 0a69 000d 694c 6867     ance: %li...Ligh
    5e18:	3a74 2520 696c 0d0a 0000 0000 694c 6867     t: %li......Ligh
    5e28:	3a74 2520 696c 0d0a 0020 0000 6573 736e     t: %li.. ...sens
    5e38:	726f 3d20 203d 696c 6867 5f74 6573 736e     or == light_sens
    5e48:	726f 6c5f 6665 2074 7c7c 7320 6e65 6f73     or_left || senso
    5e58:	2072 3d3d 6c20 6769 7468 735f 6e65 6f73     r == light_senso
    5e68:	5f72 6972 6867 0074 6962 6274 746f 6c2f     r_right.bitbot/l
    5e78:	6769 7468 735f 6e65 6f73 2e72 0063 0000     ight_sensor.c...

00005e88 <__func__.6738>:
    5e88:	696c 6867 5f74 6573 736e 726f 675f 7465     light_sensor_get
    5e98:	765f 6c61 6575 0000 6f6d 6f74 2072 3d3d     _value..motor ==
    5ea8:	6d20 746f 726f 6c5f 6665 2074 7c7c 6d20      motor_left || m
    5eb8:	746f 726f 3d20 203d 6f6d 6f74 5f72 6972     otor == motor_ri
    5ec8:	6867 0074 6962 6274 746f 6d2f 746f 726f     ght.bitbot/motor
    5ed8:	632e 0000                                   .c..

00005edc <__func__.6723>:
    5edc:	6f6d 6f74 5f72 6573 5f74 6570 6372 6e65     motor_set_percen
    5eec:	0074 0000                                   t...

00005ef0 <rise_timeout.6717>:
    5ef0:	03e8 0000                                   ....

00005ef4 <timeout.6718>:
    5ef4:	5aa0 0000                                   .Z..

00005ef8 <cm_divisor.6715>:
    5ef8:	003a 0000                                   :...

00005efc <max_distance.6716>:
    5efc:	0190 0000 6573 736e 726f 3d20 203d 696c     ....sensor == li
    5f0c:	656e 735f 6e65 6f73 5f72 656c 7466 7c20     ne_sensor_left |
    5f1c:	207c 6573 736e 726f 3d20 203d 696c 656e     | sensor == line
    5f2c:	735f 6e65 6f73 5f72 6972 6867 0074 0000     _sensor_right...
    5f3c:	6962 6274 746f 6c2f 6e69 5f65 6573 736e     bitbot/line_sens
    5f4c:	726f 632e 0000 0000                         or.c....

00005f54 <__func__.6711>:
    5f54:	696c 656e 735f 6e65 6f73 5f72 7369 6c5f     line_sensor_is_l
    5f64:	6e69 5f65 7270 7365 6e65 0074 202c 7566     ine_present., fu
    5f74:	636e 6974 6e6f 203a 6100 7373 7265 6974     nction: .asserti
    5f84:	6e6f 2220 7325 2022 6166 6c69 6465 203a     on "%s" failed: 
    5f94:	6966 656c 2220 7325 2c22 6c20 6e69 2065     file "%s", line 
    5fa4:	6425 7325 7325 000a                         %d%s%s..

00005fac <_global_impure_ptr>:
    5fac:	0014 2000 2d23 2b30 0020 6c68 004c 6665     ... #-0+ .hlL.ef
    5fbc:	4567 4746 3000 3231 3433 3635 3837 4139     gEFG.0123456789A
    5fcc:	4342 4544 0046 3130 3332 3534 3736 3938     BCDEF.0123456789
    5fdc:	6261 6463 6665 0000                         abcdef..

00005fe4 <__sf_fake_stderr>:
	...

00006004 <__sf_fake_stdin>:
	...

00006024 <__sf_fake_stdout>:
	...
    6044:	4f10 0000 4e3e 0000 4e3e 0000 4e3a 0000     .O..>N..>N..:N..
    6054:	4e44 0000 4e44 0000 5130 0000 4e3a 0000     DN..DN..0Q..:N..
    6064:	4e44 0000 5130 0000 4e44 0000 4e3a 0000     DN..0Q..DN..:N..
    6074:	50ce 0000 50ce 0000 50ce 0000 519a 0000     .P...P...P...Q..

00006084 <__EH_FRAME_BEGIN__>:
    6084:	0000 0000                                   ....
